CCS PCH C Compiler, Version 4.104, 5967               16-abr.-21 07:55

               Filename: D:\Laboratorio\Modulo Flujo Laminar\2021\JPCFLVMOD-2PM TOUCH Abaco OP202130 #004588545\Firmware Flujo Masico V2.3.3 Botones Normales-ColorCabina\GLCD_Controller.lst

               ROM used: 58284 bytes (59%)
                         Largest free fragment is 32768
               RAM used: 1884 (57%) at main() level
                         1967 (59%) worst case
               Stack:    8 worst case (6 in main + 2 for interrupts)

*
00000:  GOTO   8918
*
00008:  GOTO   00AE
0000C:  NOP   
0000E:  NOP   
00010:  NOP   
00012:  NOP   
00014:  NOP   
00016:  NOP   
00018:  MOVWF  04
0001A:  MOVFF  FD8,05
0001E:  MOVFF  FE0,06
00022:  MOVLB  0
00024:  MOVFF  FE9,0C
00028:  MOVFF  FEA,07
0002C:  MOVFF  FE1,08
00030:  MOVFF  FE2,09
00034:  MOVFF  FD9,0A
00038:  MOVFF  FDA,0B
0003C:  MOVFF  FF3,12
00040:  MOVFF  FF4,13
00044:  MOVFF  FFA,14
00048:  MOVFF  FFB,15
0004C:  MOVFF  00,0E
00050:  MOVFF  01,0F
00054:  MOVFF  02,10
00058:  MOVFF  03,11
0005C:  BTFSS  F9D.5
0005E:  GOTO   0068
00062:  BTFSC  F9E.5
00064:  GOTO   049E
00068:  MOVFF  0E,00
0006C:  MOVFF  0F,01
00070:  MOVFF  10,02
00074:  MOVFF  11,03
00078:  MOVFF  0C,FE9
0007C:  MOVFF  07,FEA
00080:  BSF    07.7
00082:  MOVFF  08,FE1
00086:  MOVFF  09,FE2
0008A:  MOVFF  0A,FD9
0008E:  MOVFF  0B,FDA
00092:  MOVFF  12,FF3
00096:  MOVFF  13,FF4
0009A:  MOVFF  14,FFA
0009E:  MOVFF  15,FFB
000A2:  MOVF   04,W
000A4:  MOVFF  06,FE0
000A8:  MOVFF  05,FD8
000AC:  RETFIE 0
000AE:  MOVWF  17
000B0:  MOVFF  FD8,18
000B4:  MOVFF  FE0,19
000B8:  MOVLB  0
000BA:  MOVFF  FE9,1F
000BE:  MOVFF  FEA,1A
000C2:  MOVFF  FE1,1B
000C6:  MOVFF  FE2,1C
000CA:  MOVFF  FD9,1D
000CE:  MOVFF  FDA,1E
000D2:  MOVFF  FF3,25
000D6:  MOVFF  FF4,26
000DA:  MOVFF  FFA,27
000DE:  MOVFF  FFB,28
000E2:  MOVFF  00,21
000E6:  MOVFF  01,22
000EA:  MOVFF  02,23
000EE:  MOVFF  03,24
000F2:  BTFSS  F9D.0
000F4:  GOTO   00FE
000F8:  BTFSC  F9E.0
000FA:  GOTO   03A6
000FE:  MOVFF  21,00
00102:  MOVFF  22,01
00106:  MOVFF  23,02
0010A:  MOVFF  24,03
0010E:  MOVFF  1F,FE9
00112:  MOVFF  1A,FEA
00116:  BSF    1A.7
00118:  MOVFF  1B,FE1
0011C:  MOVFF  1C,FE2
00120:  MOVFF  1D,FD9
00124:  MOVFF  1E,FDA
00128:  MOVFF  25,FF3
0012C:  MOVFF  26,FF4
00130:  MOVFF  27,FFA
00134:  MOVFF  28,FFB
00138:  MOVF   17,W
0013A:  MOVFF  19,FE0
0013E:  MOVFF  18,FD8
00142:  RETFIE 0
.................... //Programa para Cabina de Bioseguridad 
....................  
.................... #include <18F4685.h> 
.................... //////// Standard Header file for the PIC18F4685 device //////////////// 
.................... #device PIC18F4685 
.................... #list 
....................  
.................... #device adc=10 
.................... #device HIGH_INTS=TRUE //Activamos niveles de prioridad 
.................... #fuses HS,WDT8192,NOPROTECT,NOLVP,NODEBUG,NOSTVREN,NOPUT,NOCPD,NOWRT,NOIESO,NOFCMEN,NOPBADEN,NOWRTC,NOWRTB,NOEBTR,NOEBTRB,NOCPB,NOXINST,NOLPT1OSC,NOMCLR,NOBROWNOUT 
.................... #use delay(clock=20000000) 
*
015AA:  MOVLW  07
015AC:  MOVWF  FEA
015AE:  MOVLW  6C
015B0:  MOVWF  FE9
015B2:  MOVF   FEF,W
015B4:  BZ    15D0
015B6:  MOVLW  06
015B8:  MOVWF  01
015BA:  CLRF   00
015BC:  DECFSZ 00,F
015BE:  BRA    15BC
015C0:  DECFSZ 01,F
015C2:  BRA    15BA
015C4:  MOVLW  7B
015C6:  MOVWF  00
015C8:  DECFSZ 00,F
015CA:  BRA    15C8
015CC:  DECFSZ FEF,F
015CE:  BRA    15B6
015D0:  RETLW  00
.................... #use rs232(baud=9600, xmit=PIN_C6, rcv=PIN_C7, bits=8, parity=N,errors) 
*
00486:  BTFSS  F9E.5
00488:  BRA    0486
0048A:  MOVFF  FAB,2A
0048E:  MOVFF  FAE,01
00492:  BTFSS  2A.1
00494:  BRA    049A
00496:  BCF    FAB.4
00498:  BSF    FAB.4
0049A:  GOTO   04A0 (RETURN)
*
01E58:  BTFSS  F9E.4
01E5A:  BRA    1E58
01E5C:  MOVWF  FAD
01E5E:  RETLW  00
.................... #use i2c(Master,slow,sda=PIN_D7,scl=PIN_D6) 
*
0149A:  MOVLW  08
0149C:  MOVWF  01
0149E:  MOVLW  05
014A0:  MOVWF  00
014A2:  DECFSZ 00,F
014A4:  BRA    14A2
014A6:  BCF    F8C.6
014A8:  BCF    F95.6
014AA:  MOVLW  06
014AC:  MOVWF  00
014AE:  DECFSZ 00,F
014B0:  BRA    14AE
014B2:  MOVLB  7
014B4:  RLCF   x65,F
014B6:  BCF    F8C.7
014B8:  BTFSC  FD8.0
014BA:  BSF    F95.7
014BC:  BTFSS  FD8.0
014BE:  BCF    F95.7
014C0:  BSF    F95.6
014C2:  BTFSS  F83.6
014C4:  BRA    14C2
014C6:  DECFSZ 01,F
014C8:  BRA    14CC
014CA:  BRA    14D0
014CC:  MOVLB  0
014CE:  BRA    149E
014D0:  MOVLW  05
014D2:  MOVWF  00
014D4:  DECFSZ 00,F
014D6:  BRA    14D4
014D8:  BCF    F8C.6
014DA:  BCF    F95.6
014DC:  NOP   
014DE:  BSF    F95.7
014E0:  MOVLW  06
014E2:  MOVWF  00
014E4:  DECFSZ 00,F
014E6:  BRA    14E4
014E8:  MOVLW  06
014EA:  MOVWF  00
014EC:  DECFSZ 00,F
014EE:  BRA    14EC
014F0:  BSF    F95.6
014F2:  BTFSS  F83.6
014F4:  BRA    14F2
014F6:  CLRF   01
014F8:  MOVLW  06
014FA:  MOVWF  00
014FC:  DECFSZ 00,F
014FE:  BRA    14FC
01500:  BTFSC  F83.7
01502:  BSF    01.0
01504:  BCF    F8C.6
01506:  BCF    F95.6
01508:  BCF    F8C.7
0150A:  BCF    F95.7
0150C:  MOVLB  0
0150E:  RETLW  00
*
015D2:  MOVLW  08
015D4:  MOVLB  7
015D6:  MOVWF  x65
015D8:  MOVFF  00,766
015DC:  BSF    F95.7
015DE:  MOVLW  06
015E0:  MOVWF  00
015E2:  DECFSZ 00,F
015E4:  BRA    15E2
015E6:  BSF    F95.6
015E8:  BTFSS  F83.6
015EA:  BRA    15E8
015EC:  BTFSC  F83.7
015EE:  BSF    FD8.0
015F0:  BTFSS  F83.7
015F2:  BCF    FD8.0
015F4:  RLCF   01,F
015F6:  MOVLW  05
015F8:  MOVWF  00
015FA:  DECFSZ 00,F
015FC:  BRA    15FA
015FE:  BCF    F95.6
01600:  BCF    F8C.6
01602:  DECFSZ x65,F
01604:  BRA    15DC
01606:  BSF    F95.7
01608:  MOVLW  06
0160A:  MOVWF  00
0160C:  DECFSZ 00,F
0160E:  BRA    160C
01610:  BCF    F8C.7
01612:  MOVF   x66,W
01614:  BTFSS  FD8.2
01616:  BCF    F95.7
01618:  NOP   
0161A:  BSF    F95.6
0161C:  BTFSS  F83.6
0161E:  BRA    161C
01620:  MOVLW  05
01622:  MOVWF  00
01624:  DECFSZ 00,F
01626:  BRA    1624
01628:  BCF    F8C.6
0162A:  BCF    F95.6
0162C:  MOVLW  06
0162E:  MOVWF  00
01630:  DECFSZ 00,F
01632:  BRA    1630
01634:  BCF    F8C.7
01636:  BCF    F95.7
01638:  MOVLB  0
0163A:  RETLW  00
.................... #priority rda 
.................... #include <MATH.h> 
.................... //////////////////////////////////////////////////////////////////////////// 
.................... ////        (C) Copyright 1996,2008 Custom Computer Services            //// 
.................... //// This source code may only be used by licensed users of the CCS C   //// 
.................... //// compiler.  This source code may only be distributed to other       //// 
.................... //// licensed users of the CCS C compiler.  No other use, reproduction  //// 
.................... //// or distribution is permitted without written permission.           //// 
.................... //// Derivative programs created using this software in object code     //// 
.................... //// form are not restricted in any way.                                //// 
.................... //////////////////////////////////////////////////////////////////////////// 
.................... ////                                                                    //// 
.................... //// History:                                                           //// 
.................... ////  * 9/20/2001 :  Improvments are made to sin/cos code.              //// 
.................... ////                 The code now is small, much faster,                //// 
.................... ////                 and more accurate.                                 //// 
.................... ////  * 2/21/2007 :  Compiler handles & operator differently and does 
.................... ////                 not return generic (int8 *) so type cast is done   //// 
.................... ////                                                                    //// 
.................... //////////////////////////////////////////////////////////////////////////// 
....................  
.................... #ifndef MATH_H 
.................... #define MATH_H 
....................  
.................... #ifdef PI 
.................... #undef  PI 
.................... #endif 
.................... #define PI     3.1415926535897932 
....................  
....................  
.................... #define SQRT2  1.4142135623730950 
....................  
.................... //float const ps[4] = {5.9304945, 21.125224, 8.9403076, 0.29730279}; 
.................... //float const qs[4] = {1.0000000, 15.035723, 17.764134, 2.4934718}; 
....................  
.................... ///////////////////////////// Round Functions ////////////////////////////// 
....................  
.................... float32 CEIL_FLOOR(float32 x, unsigned int8 n) 
.................... { 
....................    float32 y, res; 
....................    unsigned int16 l; 
....................    int1 s; 
....................  
....................    s = 0; 
*
04130:  MOVLB  7
04132:  BCF    x97.0
....................    y = x; 
04134:  MOVFF  78B,790
04138:  MOVFF  78A,78F
0413C:  MOVFF  789,78E
04140:  MOVFF  788,78D
....................  
....................    if (x < 0) 
04144:  MOVFF  78B,79B
04148:  MOVFF  78A,79A
0414C:  MOVFF  789,799
04150:  MOVFF  788,798
04154:  CLRF   x9F
04156:  CLRF   x9E
04158:  CLRF   x9D
0415A:  CLRF   x9C
0415C:  MOVLB  0
0415E:  CALL   2F26
04162:  BNC   416E
....................    { 
....................       s = 1; 
04164:  MOVLB  7
04166:  BSF    x97.0
....................       y = -y; 
04168:  MOVF   x8E,W
0416A:  XORLW  80
0416C:  MOVWF  x8E
....................    } 
....................  
....................    if (y <= 32768.0) 
0416E:  MOVFF  790,79B
04172:  MOVFF  78F,79A
04176:  MOVFF  78E,799
0417A:  MOVFF  78D,798
0417E:  MOVLB  7
04180:  CLRF   x9F
04182:  CLRF   x9E
04184:  CLRF   x9D
04186:  MOVLW  8E
04188:  MOVWF  x9C
0418A:  MOVLB  0
0418C:  CALL   2F26
04190:  BC    4194
04192:  BNZ   41C6
....................   res = (float32)(unsigned int16)y; 
04194:  MOVFF  790,79B
04198:  MOVFF  78F,79A
0419C:  MOVFF  78E,799
041A0:  MOVFF  78D,798
041A4:  CALL   1B14
041A8:  MOVFF  02,79D
041AC:  MOVFF  01,79C
041B0:  CALL   188A
041B4:  MOVFF  03,794
041B8:  MOVFF  02,793
041BC:  MOVFF  01,792
041C0:  MOVFF  00,791
....................  
....................  else if (y < 10000000.0) 
041C4:  BRA    436C
041C6:  MOVFF  790,79B
041CA:  MOVFF  78F,79A
041CE:  MOVFF  78E,799
041D2:  MOVFF  78D,798
041D6:  MOVLW  80
041D8:  MOVLB  7
041DA:  MOVWF  x9F
041DC:  MOVLW  96
041DE:  MOVWF  x9E
041E0:  MOVLW  18
041E2:  MOVWF  x9D
041E4:  MOVLW  96
041E6:  MOVWF  x9C
041E8:  MOVLB  0
041EA:  CALL   2F26
041EE:  BTFSS  FD8.0
041F0:  BRA    435C
....................    { 
....................   l = (unsigned int16)(y/32768.0); 
041F2:  MOVFF  790,79B
041F6:  MOVFF  78F,79A
041FA:  MOVFF  78E,799
041FE:  MOVFF  78D,798
04202:  MOVLB  7
04204:  CLRF   x9F
04206:  CLRF   x9E
04208:  CLRF   x9D
0420A:  MOVLW  8E
0420C:  MOVWF  x9C
0420E:  MOVLB  0
04210:  CALL   18C0
04214:  MOVFF  03,79B
04218:  MOVFF  02,79A
0421C:  MOVFF  01,799
04220:  MOVFF  00,798
04224:  CALL   1B14
04228:  MOVFF  02,796
0422C:  MOVFF  01,795
....................       y = 32768.0*(y/32768.0 - (float32)l); 
04230:  MOVFF  790,79B
04234:  MOVFF  78F,79A
04238:  MOVFF  78E,799
0423C:  MOVFF  78D,798
04240:  MOVLB  7
04242:  CLRF   x9F
04244:  CLRF   x9E
04246:  CLRF   x9D
04248:  MOVLW  8E
0424A:  MOVWF  x9C
0424C:  MOVLB  0
0424E:  CALL   18C0
04252:  MOVFF  00,798
04256:  MOVFF  01,799
0425A:  MOVFF  02,79A
0425E:  MOVFF  03,79B
04262:  MOVFF  796,79D
04266:  MOVFF  795,79C
0426A:  CALL   188A
0426E:  BSF    FD8.1
04270:  MOVFF  79B,79F
04274:  MOVFF  79A,79E
04278:  MOVFF  799,79D
0427C:  MOVFF  798,79C
04280:  MOVFF  03,7A3
04284:  MOVFF  02,7A2
04288:  MOVFF  01,7A1
0428C:  MOVFF  00,7A0
04290:  CALL   1E96
04294:  MOVLB  7
04296:  CLRF   x9B
04298:  CLRF   x9A
0429A:  CLRF   x99
0429C:  MOVLW  8E
0429E:  MOVWF  x98
042A0:  MOVFF  03,79F
042A4:  MOVFF  02,79E
042A8:  MOVFF  01,79D
042AC:  MOVFF  00,79C
042B0:  MOVLB  0
042B2:  CALL   1A1E
042B6:  MOVFF  03,790
042BA:  MOVFF  02,78F
042BE:  MOVFF  01,78E
042C2:  MOVFF  00,78D
....................   res = 32768.0*(float32)l; 
042C6:  MOVFF  796,79D
042CA:  MOVFF  795,79C
042CE:  CALL   188A
042D2:  MOVLB  7
042D4:  CLRF   x9B
042D6:  CLRF   x9A
042D8:  CLRF   x99
042DA:  MOVLW  8E
042DC:  MOVWF  x98
042DE:  MOVFF  03,79F
042E2:  MOVFF  02,79E
042E6:  MOVFF  01,79D
042EA:  MOVFF  00,79C
042EE:  MOVLB  0
042F0:  CALL   1A1E
042F4:  MOVFF  03,794
042F8:  MOVFF  02,793
042FC:  MOVFF  01,792
04300:  MOVFF  00,791
....................   res += (float32)(unsigned int16)y; 
04304:  MOVFF  790,79B
04308:  MOVFF  78F,79A
0430C:  MOVFF  78E,799
04310:  MOVFF  78D,798
04314:  CALL   1B14
04318:  MOVFF  02,79D
0431C:  MOVFF  01,79C
04320:  CALL   188A
04324:  BCF    FD8.1
04326:  MOVFF  794,79F
0432A:  MOVFF  793,79E
0432E:  MOVFF  792,79D
04332:  MOVFF  791,79C
04336:  MOVFF  03,7A3
0433A:  MOVFF  02,7A2
0433E:  MOVFF  01,7A1
04342:  MOVFF  00,7A0
04346:  CALL   1E96
0434A:  MOVFF  03,794
0434E:  MOVFF  02,793
04352:  MOVFF  01,792
04356:  MOVFF  00,791
....................  } 
....................  
....................  else 
0435A:  BRA    436C
....................   res = y; 
0435C:  MOVFF  790,794
04360:  MOVFF  78F,793
04364:  MOVFF  78E,792
04368:  MOVFF  78D,791
....................  
....................  y = y - (float32)(unsigned int16)y; 
0436C:  MOVFF  790,79B
04370:  MOVFF  78F,79A
04374:  MOVFF  78E,799
04378:  MOVFF  78D,798
0437C:  CALL   1B14
04380:  MOVFF  02,79D
04384:  MOVFF  01,79C
04388:  CALL   188A
0438C:  BSF    FD8.1
0438E:  MOVFF  790,79F
04392:  MOVFF  78F,79E
04396:  MOVFF  78E,79D
0439A:  MOVFF  78D,79C
0439E:  MOVFF  03,7A3
043A2:  MOVFF  02,7A2
043A6:  MOVFF  01,7A1
043AA:  MOVFF  00,7A0
043AE:  CALL   1E96
043B2:  MOVFF  03,790
043B6:  MOVFF  02,78F
043BA:  MOVFF  01,78E
043BE:  MOVFF  00,78D
....................  
....................  if (s) 
043C2:  MOVLB  7
043C4:  BTFSS  x97.0
043C6:  BRA    43CE
....................   res = -res; 
043C8:  MOVF   x92,W
043CA:  XORLW  80
043CC:  MOVWF  x92
....................  
....................  if (y != 0) 
043CE:  MOVFF  790,79B
043D2:  MOVFF  78F,79A
043D6:  MOVFF  78E,799
043DA:  MOVFF  78D,798
043DE:  CLRF   x9F
043E0:  CLRF   x9E
043E2:  CLRF   x9D
043E4:  CLRF   x9C
043E6:  MOVLB  0
043E8:  CALL   2F26
043EC:  BZ    4466
....................  { 
....................   if (s == 1 && n == 0) 
043EE:  MOVLB  7
043F0:  BTFSS  x97.0
043F2:  BRA    442C
043F4:  MOVF   x8C,F
043F6:  BNZ   442C
....................    res -= 1.0; 
043F8:  BSF    FD8.1
043FA:  MOVFF  794,79F
043FE:  MOVFF  793,79E
04402:  MOVFF  792,79D
04406:  MOVFF  791,79C
0440A:  CLRF   xA3
0440C:  CLRF   xA2
0440E:  CLRF   xA1
04410:  MOVLW  7F
04412:  MOVWF  xA0
04414:  MOVLB  0
04416:  CALL   1E96
0441A:  MOVFF  03,794
0441E:  MOVFF  02,793
04422:  MOVFF  01,792
04426:  MOVFF  00,791
0442A:  MOVLB  7
....................  
....................   if (s == 0 && n == 1) 
0442C:  BTFSC  x97.0
0442E:  BRA    4468
04430:  DECFSZ x8C,W
04432:  BRA    4468
....................    res += 1.0; 
04434:  BCF    FD8.1
04436:  MOVFF  794,79F
0443A:  MOVFF  793,79E
0443E:  MOVFF  792,79D
04442:  MOVFF  791,79C
04446:  CLRF   xA3
04448:  CLRF   xA2
0444A:  CLRF   xA1
0444C:  MOVLW  7F
0444E:  MOVWF  xA0
04450:  MOVLB  0
04452:  CALL   1E96
04456:  MOVFF  03,794
0445A:  MOVFF  02,793
0445E:  MOVFF  01,792
04462:  MOVFF  00,791
04466:  MOVLB  7
....................  } 
....................  if (x == 0) 
04468:  MOVFF  78B,79B
0446C:  MOVFF  78A,79A
04470:  MOVFF  789,799
04474:  MOVFF  788,798
04478:  CLRF   x9F
0447A:  CLRF   x9E
0447C:  CLRF   x9D
0447E:  CLRF   x9C
04480:  MOVLB  0
04482:  CALL   2F26
04486:  BNZ   4494
....................     res = 0; 
04488:  MOVLB  7
0448A:  CLRF   x94
0448C:  CLRF   x93
0448E:  CLRF   x92
04490:  CLRF   x91
04492:  MOVLB  0
....................  
....................  return (res); 
04494:  MOVFF  791,00
04498:  MOVFF  792,01
0449C:  MOVFF  793,02
044A0:  MOVFF  794,03
.................... } 
044A4:  RETLW  00
....................  
.................... // Overloaded Functions to take care for new Data types in PCD 
.................... // Overloaded function CEIL_FLOOR() for data type - Float48 
.................... #if defined(__PCD__) 
.................... float48 CEIL_FLOOR(float48 x, unsigned int8 n) 
.................... { 
....................    float48 y, res; 
....................    unsigned int16 l; 
....................    int1 s; 
....................  
....................    s = 0; 
....................    y = x; 
....................  
....................    if (x < 0) 
....................    { 
....................       s = 1; 
....................       y = -y; 
....................    } 
....................  
....................    if (y <= 32768.0) 
....................   res = (float48)(unsigned int16)y; 
....................  
....................  else if (y < 10000000.0) 
....................    { 
....................   l = (unsigned int16)(y/32768.0); 
....................       y = 32768.0*(y/32768.0 - (float48)l); 
....................   res = 32768.0*(float32)l; 
....................   res += (float48)(unsigned int16)y; 
....................  } 
....................  
....................  else 
....................   res = y; 
....................  
....................  y = y - (float48)(unsigned int16)y; 
....................  
....................  if (s) 
....................   res = -res; 
....................  
....................  if (y != 0) 
....................  { 
....................   if (s == 1 && n == 0) 
....................    res -= 1.0; 
....................  
....................   if (s == 0 && n == 1) 
....................    res += 1.0; 
....................  } 
....................  if (x == 0) 
....................     res = 0; 
....................  
....................  return (res); 
.................... } 
....................  
....................  
.................... // Overloaded function CEIL_FLOOR() for data type - Float64 
.................... float64 CEIL_FLOOR(float64 x, unsigned int8 n) 
.................... { 
....................    float64 y, res; 
....................    unsigned int16 l; 
....................    int1 s; 
....................  
....................    s = 0; 
....................    y = x; 
....................  
....................    if (x < 0) 
....................    { 
....................       s = 1; 
....................       y = -y; 
....................    } 
....................  
....................    if (y <= 32768.0) 
....................   res = (float64)(unsigned int16)y; 
....................  
....................  else if (y < 10000000.0) 
....................    { 
....................   l = (unsigned int16)(y/32768.0); 
....................       y = 32768.0*(y/32768.0 - (float64)l); 
....................   res = 32768.0*(float64)l; 
....................   res += (float64)(unsigned int16)y; 
....................  } 
....................  
....................  else 
....................   res = y; 
....................  
....................  y = y - (float64)(unsigned int16)y; 
....................  
....................  if (s) 
....................   res = -res; 
....................  
....................  if (y != 0) 
....................  { 
....................   if (s == 1 && n == 0) 
....................    res -= 1.0; 
....................  
....................   if (s == 0 && n == 1) 
....................    res += 1.0; 
....................  } 
....................  if (x == 0) 
....................     res = 0; 
....................  
....................  return (res); 
.................... } 
.................... #endif 
....................  
.................... //////////////////////////////////////////////////////////////////////////// 
.................... //   float floor(float x) 
.................... //////////////////////////////////////////////////////////////////////////// 
.................... // Description : rounds down the number x. 
.................... // Date : N/A 
.................... // 
.................... float32 floor(float32 x) 
.................... { 
....................    return CEIL_FLOOR(x, 0); 
*
044C4:  MOVFF  787,78B
044C8:  MOVFF  786,78A
044CC:  MOVFF  785,789
044D0:  MOVFF  784,788
044D4:  MOVLB  7
044D6:  CLRF   x8C
044D8:  MOVLB  0
044DA:  RCALL  4130
.................... } 
044DC:  GOTO   45E8 (RETURN)
.................... // Following 2 functions are overloaded functions of floor() for PCD 
.................... // Overloaded function floor() for data type - Float48 
.................... #if defined(__PCD__) 
.................... float48 floor(float48 x) 
.................... { 
....................    return CEIL_FLOOR(x, 0); 
.................... } 
....................  
.................... // Overloaded function floor() for data type - Float64 
.................... float64 floor(float64 x) 
.................... { 
....................    return CEIL_FLOOR(x, 0); 
.................... } 
.................... #endif 
....................  
....................  
.................... //////////////////////////////////////////////////////////////////////////// 
.................... //   float ceil(float x) 
.................... //////////////////////////////////////////////////////////////////////////// 
.................... // Description : rounds up the number x. 
.................... // Date : N/A 
.................... // 
.................... float32 ceil(float32 x) 
.................... { 
....................    return CEIL_FLOOR(x, 1); 
*
044A6:  MOVFF  787,78B
044AA:  MOVFF  786,78A
044AE:  MOVFF  785,789
044B2:  MOVFF  784,788
044B6:  MOVLW  01
044B8:  MOVLB  7
044BA:  MOVWF  x8C
044BC:  MOVLB  0
044BE:  RCALL  4130
.................... } 
044C0:  GOTO   45A0 (RETURN)
.................... // Following 2 functions are overloaded functions of ceil() for PCD 
.................... // Overloaded function ceil() for data type - Float48 
.................... #if defined(__PCD__) 
.................... float48 ceil(float48 x) 
.................... { 
....................    return CEIL_FLOOR(x, 1); 
.................... } 
....................  
.................... // Overloaded function ceil() for data type - Float64 
.................... float64 ceil(float64 x) 
.................... { 
....................    return CEIL_FLOOR(x, 1); 
.................... } 
.................... #endif 
....................  
....................  //////////////////////////////////////////////////////////////////////////// 
.................... //   float fabs(float x) 
.................... //////////////////////////////////////////////////////////////////////////// 
.................... // Description : Computes the absolute value of floating point number x 
.................... // Returns : returns the absolute value of x 
.................... // Date : N/A 
.................... // 
.................... #define fabs abs 
....................  
.................... //////////////////////////////////////////////////////////////////////////// 
.................... //   float fmod(float x) 
.................... //////////////////////////////////////////////////////////////////////////// 
.................... // Description : Computes the floating point remainder of x/y 
.................... // Returns : returns the value of x= i*y, for some integer i such that, if y 
.................... // is non zero, the result has the same isgn of x na dmagnitude less than the 
.................... // magnitude of y. If y is zero then a domain error occurs. 
.................... // Date : N/A 
.................... // 
....................  
.................... float fmod(float32 x,float32 y) 
.................... { 
....................    float32 i; 
....................    if (y!=0.0) 
*
044E0:  MOVFF  77B,79B
044E4:  MOVFF  77A,79A
044E8:  MOVFF  779,799
044EC:  MOVFF  778,798
044F0:  MOVLB  7
044F2:  CLRF   x9F
044F4:  CLRF   x9E
044F6:  CLRF   x9D
044F8:  CLRF   x9C
044FA:  MOVLB  0
044FC:  CALL   2F26
04500:  BTFSC  FD8.2
04502:  BRA    4646
....................    { 
....................       i=(x/y < 0.0)? ceil(x/y): floor(x/y); 
04504:  MOVFF  777,79B
04508:  MOVFF  776,79A
0450C:  MOVFF  775,799
04510:  MOVFF  774,798
04514:  MOVFF  77B,79F
04518:  MOVFF  77A,79E
0451C:  MOVFF  779,79D
04520:  MOVFF  778,79C
04524:  CALL   18C0
04528:  MOVFF  00,780
0452C:  MOVFF  01,781
04530:  MOVFF  02,782
04534:  MOVFF  03,783
04538:  MOVFF  03,79B
0453C:  MOVFF  02,79A
04540:  MOVFF  01,799
04544:  MOVFF  00,798
04548:  MOVLB  7
0454A:  CLRF   x9F
0454C:  CLRF   x9E
0454E:  CLRF   x9D
04550:  CLRF   x9C
04552:  MOVLB  0
04554:  CALL   2F26
04558:  BNC   45A2
0455A:  MOVFF  777,79B
0455E:  MOVFF  776,79A
04562:  MOVFF  775,799
04566:  MOVFF  774,798
0456A:  MOVFF  77B,79F
0456E:  MOVFF  77A,79E
04572:  MOVFF  779,79D
04576:  MOVFF  778,79C
0457A:  CALL   18C0
0457E:  MOVFF  00,780
04582:  MOVFF  01,781
04586:  MOVFF  02,782
0458A:  MOVFF  03,783
0458E:  MOVFF  03,787
04592:  MOVFF  02,786
04596:  MOVFF  01,785
0459A:  MOVFF  00,784
0459E:  BRA    44A6
045A0:  BRA    45E8
045A2:  MOVFF  777,79B
045A6:  MOVFF  776,79A
045AA:  MOVFF  775,799
045AE:  MOVFF  774,798
045B2:  MOVFF  77B,79F
045B6:  MOVFF  77A,79E
045BA:  MOVFF  779,79D
045BE:  MOVFF  778,79C
045C2:  CALL   18C0
045C6:  MOVFF  00,780
045CA:  MOVFF  01,781
045CE:  MOVFF  02,782
045D2:  MOVFF  03,783
045D6:  MOVFF  03,787
045DA:  MOVFF  02,786
045DE:  MOVFF  01,785
045E2:  MOVFF  00,784
045E6:  BRA    44C4
045E8:  MOVFF  03,77F
045EC:  MOVFF  02,77E
045F0:  MOVFF  01,77D
045F4:  MOVFF  00,77C
....................       return(x-(i*y)); 
045F8:  MOVFF  77F,79B
045FC:  MOVFF  77E,79A
04600:  MOVFF  77D,799
04604:  MOVFF  77C,798
04608:  MOVFF  77B,79F
0460C:  MOVFF  77A,79E
04610:  MOVFF  779,79D
04614:  MOVFF  778,79C
04618:  CALL   1A1E
0461C:  BSF    FD8.1
0461E:  MOVFF  777,79F
04622:  MOVFF  776,79E
04626:  MOVFF  775,79D
0462A:  MOVFF  774,79C
0462E:  MOVFF  03,7A3
04632:  MOVFF  02,7A2
04636:  MOVFF  01,7A1
0463A:  MOVFF  00,7A0
0463E:  CALL   1E96
04642:  BRA    4646
....................    } 
....................    else 
04644:  BRA    4646
....................    { 
....................    #ifdef _ERRNO 
....................    { 
....................       errno=EDOM; 
....................    } 
....................    #endif 
....................    } 
.................... } 
04646:  RETLW  00
.................... //Overloaded function for fmod() for PCD 
.................... // Overloaded function fmod() for data type - Float48 
.................... #if defined(__PCD__) 
.................... float48 fmod(float48 x,float48 y) 
.................... { 
....................    float48 i; 
....................    if (y!=0.0) 
....................    { 
....................       i=(x/y < 0.0)? ceil(x/y): floor(x/y); 
....................       return(x-(i*y)); 
....................    } 
....................    else 
....................    { 
....................    #ifdef _ERRNO 
....................    { 
....................       errno=EDOM; 
....................    } 
....................    #endif 
....................    } 
.................... } 
.................... // Overloaded function fmod() for data type - Float64 
.................... float64 fmod(float64 x,float64 y) 
.................... { 
....................    float64 i; 
....................    if (y!=0.0) 
....................    { 
....................       i=(x/y < 0.0)? ceil(x/y): floor(x/y); 
....................       return(x-(i*y)); 
....................    } 
....................    else 
....................    { 
....................    #ifdef _ERRNO 
....................    { 
....................       errno=EDOM; 
....................    } 
....................    #endif 
....................    } 
.................... } 
.................... #endif 
.................... //////////////////// Exponential and logarithmic functions //////////////////// 
.................... //////////////////////////////////////////////////////////////////////////// 
.................... //   float exp(float x) 
.................... //////////////////////////////////////////////////////////////////////////// 
.................... // Description : returns the value (e^x) 
.................... // Date : N/A 
.................... // 
.................... #define LN2 0.6931471805599453 
....................  
.................... float const pe[6] = {0.000207455774, 0.00127100575, 0.00965065093, 
....................                      0.0554965651,  0.240227138,  0.693147172}; 
....................  
....................  
.................... float32 exp(float32 x) 
.................... { 
....................    float32 y, res, r; 
....................    #if defined(__PCD__) 
....................    int8 data1; 
....................    #endif 
....................    signed int8 n; 
....................    int1 s; 
....................    #ifdef _ERRNO 
....................    if(x > 88.722838) 
....................    { 
....................       errno=ERANGE; 
....................       return(0); 
....................    } 
....................    #endif 
....................    n = (signed int16)(x/LN2); 
*
04B78:  MOVFF  77B,79B
04B7C:  MOVFF  77A,79A
04B80:  MOVFF  779,799
04B84:  MOVFF  778,798
04B88:  MOVLW  18
04B8A:  MOVLB  7
04B8C:  MOVWF  x9F
04B8E:  MOVLW  72
04B90:  MOVWF  x9E
04B92:  MOVLW  31
04B94:  MOVWF  x9D
04B96:  MOVLW  7E
04B98:  MOVWF  x9C
04B9A:  MOVLB  0
04B9C:  CALL   18C0
04BA0:  MOVFF  03,79B
04BA4:  MOVFF  02,79A
04BA8:  MOVFF  01,799
04BAC:  MOVFF  00,798
04BB0:  CALL   1B14
04BB4:  MOVFF  01,788
....................    s = 0; 
04BB8:  MOVLB  7
04BBA:  BCF    x89.0
....................    y = x; 
04BBC:  MOVFF  77B,77F
04BC0:  MOVFF  77A,77E
04BC4:  MOVFF  779,77D
04BC8:  MOVFF  778,77C
....................  
....................    if (x < 0) 
04BCC:  MOVFF  77B,79B
04BD0:  MOVFF  77A,79A
04BD4:  MOVFF  779,799
04BD8:  MOVFF  778,798
04BDC:  CLRF   x9F
04BDE:  CLRF   x9E
04BE0:  CLRF   x9D
04BE2:  CLRF   x9C
04BE4:  MOVLB  0
04BE6:  CALL   2F26
04BEA:  BNC   4BF8
....................    { 
....................       s = 1; 
04BEC:  MOVLB  7
04BEE:  BSF    x89.0
....................       n = -n; 
04BF0:  NEGF   x88
....................       y = -y; 
04BF2:  MOVF   x7D,W
04BF4:  XORLW  80
04BF6:  MOVWF  x7D
....................    } 
....................  
....................    res = 0.0; 
04BF8:  MOVLB  7
04BFA:  CLRF   x83
04BFC:  CLRF   x82
04BFE:  CLRF   x81
04C00:  CLRF   x80
.................... #if !defined(__PCD__) 
....................    *((unsigned int8 *)(&res)) = n + 0x7F; 
04C02:  MOVLW  07
04C04:  MOVWF  x8B
04C06:  MOVLW  80
04C08:  MOVWF  FE9
04C0A:  MOVFF  78B,FEA
04C0E:  MOVLW  7F
04C10:  ADDWF  x88,W
04C12:  MOVWF  FEF
.................... #endif 
....................  
.................... #if defined(__PCD__)  // Takes care of IEEE format for PCD 
....................    data1 = n+0x7F; 
....................    if(bit_test(data1,0)) 
....................    bit_set(*(((unsigned int8 *)(&res)+2)),7); 
....................    rotate_right(&data1,1); 
....................    bit_clear(data1,7); 
....................    *(((unsigned int8 *)(&res)+3)) = data1; 
.................... #endif 
....................  
....................    y = y/LN2 - (float32)n; 
04C14:  MOVFF  77F,79B
04C18:  MOVFF  77E,79A
04C1C:  MOVFF  77D,799
04C20:  MOVFF  77C,798
04C24:  MOVLW  18
04C26:  MOVWF  x9F
04C28:  MOVLW  72
04C2A:  MOVWF  x9E
04C2C:  MOVLW  31
04C2E:  MOVWF  x9D
04C30:  MOVLW  7E
04C32:  MOVWF  x9C
04C34:  MOVLB  0
04C36:  CALL   18C0
04C3A:  MOVFF  00,78A
04C3E:  MOVFF  01,78B
04C42:  MOVFF  02,78C
04C46:  MOVFF  03,78D
04C4A:  MOVLB  7
04C4C:  CLRF   x8F
04C4E:  MOVFF  788,78E
04C52:  BTFSC  x8E.7
04C54:  DECF   x8F,F
04C56:  MOVLB  0
04C58:  RCALL  4648
04C5A:  BSF    FD8.1
04C5C:  MOVFF  78D,79F
04C60:  MOVFF  78C,79E
04C64:  MOVFF  78B,79D
04C68:  MOVFF  78A,79C
04C6C:  MOVFF  03,7A3
04C70:  MOVFF  02,7A2
04C74:  MOVFF  01,7A1
04C78:  MOVFF  00,7A0
04C7C:  CALL   1E96
04C80:  MOVFF  03,77F
04C84:  MOVFF  02,77E
04C88:  MOVFF  01,77D
04C8C:  MOVFF  00,77C
....................  
....................    r = pe[0]*y + pe[1]; 
04C90:  MOVLW  7C
04C92:  MOVLB  7
04C94:  MOVWF  x9B
04C96:  MOVLW  88
04C98:  MOVWF  x9A
04C9A:  MOVLW  59
04C9C:  MOVWF  x99
04C9E:  MOVLW  72
04CA0:  MOVWF  x98
04CA2:  MOVFF  77F,79F
04CA6:  MOVFF  77E,79E
04CAA:  MOVFF  77D,79D
04CAE:  MOVFF  77C,79C
04CB2:  MOVLB  0
04CB4:  CALL   1A1E
04CB8:  MOVFF  00,78A
04CBC:  MOVFF  01,78B
04CC0:  MOVFF  02,78C
04CC4:  MOVFF  03,78D
04CC8:  BCF    FD8.1
04CCA:  MOVFF  03,79F
04CCE:  MOVFF  02,79E
04CD2:  MOVFF  01,79D
04CD6:  MOVFF  00,79C
04CDA:  MOVLW  E0
04CDC:  MOVLB  7
04CDE:  MOVWF  xA3
04CE0:  MOVLW  97
04CE2:  MOVWF  xA2
04CE4:  MOVLW  26
04CE6:  MOVWF  xA1
04CE8:  MOVLW  75
04CEA:  MOVWF  xA0
04CEC:  MOVLB  0
04CEE:  CALL   1E96
04CF2:  MOVFF  03,787
04CF6:  MOVFF  02,786
04CFA:  MOVFF  01,785
04CFE:  MOVFF  00,784
....................    r = r*y + pe[2]; 
04D02:  MOVFF  787,79B
04D06:  MOVFF  786,79A
04D0A:  MOVFF  785,799
04D0E:  MOVFF  784,798
04D12:  MOVFF  77F,79F
04D16:  MOVFF  77E,79E
04D1A:  MOVFF  77D,79D
04D1E:  MOVFF  77C,79C
04D22:  CALL   1A1E
04D26:  MOVFF  00,78A
04D2A:  MOVFF  01,78B
04D2E:  MOVFF  02,78C
04D32:  MOVFF  03,78D
04D36:  BCF    FD8.1
04D38:  MOVFF  03,79F
04D3C:  MOVFF  02,79E
04D40:  MOVFF  01,79D
04D44:  MOVFF  00,79C
04D48:  MOVLW  C4
04D4A:  MOVLB  7
04D4C:  MOVWF  xA3
04D4E:  MOVLW  1D
04D50:  MOVWF  xA2
04D52:  MOVLW  1E
04D54:  MOVWF  xA1
04D56:  MOVLW  78
04D58:  MOVWF  xA0
04D5A:  MOVLB  0
04D5C:  CALL   1E96
04D60:  MOVFF  03,787
04D64:  MOVFF  02,786
04D68:  MOVFF  01,785
04D6C:  MOVFF  00,784
....................    r = r*y + pe[3]; 
04D70:  MOVFF  787,79B
04D74:  MOVFF  786,79A
04D78:  MOVFF  785,799
04D7C:  MOVFF  784,798
04D80:  MOVFF  77F,79F
04D84:  MOVFF  77E,79E
04D88:  MOVFF  77D,79D
04D8C:  MOVFF  77C,79C
04D90:  CALL   1A1E
04D94:  MOVFF  00,78A
04D98:  MOVFF  01,78B
04D9C:  MOVFF  02,78C
04DA0:  MOVFF  03,78D
04DA4:  BCF    FD8.1
04DA6:  MOVFF  03,79F
04DAA:  MOVFF  02,79E
04DAE:  MOVFF  01,79D
04DB2:  MOVFF  00,79C
04DB6:  MOVLW  5E
04DB8:  MOVLB  7
04DBA:  MOVWF  xA3
04DBC:  MOVLW  50
04DBE:  MOVWF  xA2
04DC0:  MOVLW  63
04DC2:  MOVWF  xA1
04DC4:  MOVLW  7A
04DC6:  MOVWF  xA0
04DC8:  MOVLB  0
04DCA:  CALL   1E96
04DCE:  MOVFF  03,787
04DD2:  MOVFF  02,786
04DD6:  MOVFF  01,785
04DDA:  MOVFF  00,784
....................    r = r*y + pe[4]; 
04DDE:  MOVFF  787,79B
04DE2:  MOVFF  786,79A
04DE6:  MOVFF  785,799
04DEA:  MOVFF  784,798
04DEE:  MOVFF  77F,79F
04DF2:  MOVFF  77E,79E
04DF6:  MOVFF  77D,79D
04DFA:  MOVFF  77C,79C
04DFE:  CALL   1A1E
04E02:  MOVFF  00,78A
04E06:  MOVFF  01,78B
04E0A:  MOVFF  02,78C
04E0E:  MOVFF  03,78D
04E12:  BCF    FD8.1
04E14:  MOVFF  03,79F
04E18:  MOVFF  02,79E
04E1C:  MOVFF  01,79D
04E20:  MOVFF  00,79C
04E24:  MOVLW  1A
04E26:  MOVLB  7
04E28:  MOVWF  xA3
04E2A:  MOVLW  FE
04E2C:  MOVWF  xA2
04E2E:  MOVLW  75
04E30:  MOVWF  xA1
04E32:  MOVLW  7C
04E34:  MOVWF  xA0
04E36:  MOVLB  0
04E38:  CALL   1E96
04E3C:  MOVFF  03,787
04E40:  MOVFF  02,786
04E44:  MOVFF  01,785
04E48:  MOVFF  00,784
....................    r = r*y + pe[5]; 
04E4C:  MOVFF  787,79B
04E50:  MOVFF  786,79A
04E54:  MOVFF  785,799
04E58:  MOVFF  784,798
04E5C:  MOVFF  77F,79F
04E60:  MOVFF  77E,79E
04E64:  MOVFF  77D,79D
04E68:  MOVFF  77C,79C
04E6C:  CALL   1A1E
04E70:  MOVFF  00,78A
04E74:  MOVFF  01,78B
04E78:  MOVFF  02,78C
04E7C:  MOVFF  03,78D
04E80:  BCF    FD8.1
04E82:  MOVFF  03,79F
04E86:  MOVFF  02,79E
04E8A:  MOVFF  01,79D
04E8E:  MOVFF  00,79C
04E92:  MOVLW  18
04E94:  MOVLB  7
04E96:  MOVWF  xA3
04E98:  MOVLW  72
04E9A:  MOVWF  xA2
04E9C:  MOVLW  31
04E9E:  MOVWF  xA1
04EA0:  MOVLW  7E
04EA2:  MOVWF  xA0
04EA4:  MOVLB  0
04EA6:  CALL   1E96
04EAA:  MOVFF  03,787
04EAE:  MOVFF  02,786
04EB2:  MOVFF  01,785
04EB6:  MOVFF  00,784
....................  
....................    res = res*(1.0 + y*r); 
04EBA:  MOVFF  77F,79B
04EBE:  MOVFF  77E,79A
04EC2:  MOVFF  77D,799
04EC6:  MOVFF  77C,798
04ECA:  MOVFF  787,79F
04ECE:  MOVFF  786,79E
04ED2:  MOVFF  785,79D
04ED6:  MOVFF  784,79C
04EDA:  CALL   1A1E
04EDE:  BCF    FD8.1
04EE0:  MOVLB  7
04EE2:  CLRF   x9F
04EE4:  CLRF   x9E
04EE6:  CLRF   x9D
04EE8:  MOVLW  7F
04EEA:  MOVWF  x9C
04EEC:  MOVFF  03,7A3
04EF0:  MOVFF  02,7A2
04EF4:  MOVFF  01,7A1
04EF8:  MOVFF  00,7A0
04EFC:  MOVLB  0
04EFE:  CALL   1E96
04F02:  MOVFF  783,79B
04F06:  MOVFF  782,79A
04F0A:  MOVFF  781,799
04F0E:  MOVFF  780,798
04F12:  MOVFF  03,79F
04F16:  MOVFF  02,79E
04F1A:  MOVFF  01,79D
04F1E:  MOVFF  00,79C
04F22:  CALL   1A1E
04F26:  MOVFF  03,783
04F2A:  MOVFF  02,782
04F2E:  MOVFF  01,781
04F32:  MOVFF  00,780
....................  
....................    if (s) 
04F36:  MOVLB  7
04F38:  BTFSS  x89.0
04F3A:  BRA    4F6E
....................       res = 1.0/res; 
04F3C:  CLRF   x9B
04F3E:  CLRF   x9A
04F40:  CLRF   x99
04F42:  MOVLW  7F
04F44:  MOVWF  x98
04F46:  MOVFF  783,79F
04F4A:  MOVFF  782,79E
04F4E:  MOVFF  781,79D
04F52:  MOVFF  780,79C
04F56:  MOVLB  0
04F58:  CALL   18C0
04F5C:  MOVFF  03,783
04F60:  MOVFF  02,782
04F64:  MOVFF  01,781
04F68:  MOVFF  00,780
04F6C:  MOVLB  7
....................    return(res); 
04F6E:  MOVFF  780,00
04F72:  MOVFF  781,01
04F76:  MOVFF  782,02
04F7A:  MOVFF  783,03
.................... } 
04F7E:  MOVLB  0
04F80:  RETLW  00
....................  
....................  
.................... //Overloaded function for exp() for PCD 
.................... // Overloaded function exp() for data type - Float48 
.................... #if defined(__PCD__) 
.................... float48 exp(float48 x) 
.................... { 
....................    float48 y, res, r; 
....................    int8 data1; 
....................    signed int8 n; 
....................    int1 s; 
....................    #ifdef _ERRNO 
....................    if(x > 88.722838) 
....................    { 
....................       errno=ERANGE; 
....................       return(0); 
....................    } 
....................    #endif 
....................    n = (signed int16)(x/LN2); 
....................    s = 0; 
....................    y = x; 
....................  
....................    if (x < 0) 
....................    { 
....................       s = 1; 
....................       n = -n; 
....................       y = -y; 
....................    } 
....................  
....................    res = 0.0; 
....................  
....................    data1 = n+0x7F; 
....................    if(bit_test(data1,0)) 
....................    bit_set(*(((unsigned int8 *)(&res)+4)),7); 
....................    rotate_right(&data1,1); 
....................    bit_clear(data1,7); 
....................    *(((unsigned int8 *)(&res)+5)) = data1; 
....................  
....................    y = y/LN2 - (float48)n; 
....................  
....................    r = pe[0]*y + pe[1]; 
....................    r = r*y + pe[2]; 
....................    r = r*y + pe[3]; 
....................    r = r*y + pe[4]; 
....................    r = r*y + pe[5]; 
....................  
....................    res = res*(1.0 + y*r); 
....................  
....................    if (s) 
....................       res = 1.0/res; 
....................    return(res); 
.................... } 
....................  
.................... // Overloaded function exp() for data type - Float64 
.................... float64 exp(float64 x) 
.................... { 
....................    float64 y, res, r; 
....................    unsigned int16 data1, data2; 
....................    unsigned int16 *p; 
....................    signed int16 n; 
....................    int1 s; 
....................    #ifdef _ERRNO 
....................    if(x > 709.7827128) 
....................    { 
....................       errno=ERANGE; 
....................       return(0); 
....................    } 
....................    #endif 
....................    n = (signed int16)(x/LN2); 
....................    s = 0; 
....................    y = x; 
....................  
....................    if (x < 0) 
....................    { 
....................       s = 1; 
....................       n = -n; 
....................       y = -y; 
....................    } 
....................  
....................    res = 0.0; 
....................  
.................... #if !defined(__PCD__) 
....................    *((unsigned int16 *)(&res)) = n + 0x7F; 
.................... #endif 
....................    p= (((unsigned int16 *)(&res))+3); 
....................    data1 = *p; 
....................    data2 = *p;    
....................    data1 = n + 0x3FF; 
....................    data1 = data1 <<4; 
....................    if(bit_test(data2,15)) 
....................    bit_set(data1,15); 
....................    data2 = data2 & 0x000F; 
....................    data1 ^= data2; 
....................  
....................    *(((unsigned int16 *)(&res)+3)) = data1; 
....................  
....................  
....................    y = y/LN2 - (float64)n; 
....................  
....................    r = pe[0]*y + pe[1]; 
....................    r = r*y + pe[2]; 
....................    r = r*y + pe[3]; 
....................    r = r*y + pe[4]; 
....................    r = r*y + pe[5]; 
....................  
....................    res = res*(1.0 + y*r); 
....................  
....................    if (s) 
....................       res = 1.0/res; 
....................    return(res); 
.................... } 
....................  
.................... #ENDIF 
....................  
....................  
.................... /************************************************************/ 
....................  
.................... float32 const pl[4] = {0.45145214, -9.0558803, 26.940971, -19.860189}; 
.................... float32 const ql[4] = {1.0000000,  -8.1354259, 16.780517, -9.9300943}; 
....................  
.................... //////////////////////////////////////////////////////////////////////////// 
.................... //   float log(float x) 
.................... //////////////////////////////////////////////////////////////////////////// 
.................... // Description : returns the the natural log of x 
.................... // Date : N/A 
.................... // 
.................... float32 log(float32 x) 
.................... { 
....................    float32 y, res, r, y2; 
....................    #if defined(__PCD__) 
....................    unsigned int8  data1,data2; 
....................    #endif 
....................    signed int8 n; 
....................    #ifdef _ERRNO 
....................    if(x <0) 
....................    { 
....................       errno=EDOM; 
....................    } 
....................    if(x ==0) 
....................    { 
....................       errno=ERANGE; 
....................       return(0); 
....................    } 
....................    #endif 
....................    y = x; 
*
04698:  MOVFF  77B,77F
0469C:  MOVFF  77A,77E
046A0:  MOVFF  779,77D
046A4:  MOVFF  778,77C
....................  
....................    if (y != 1.0) 
046A8:  MOVFF  77F,79B
046AC:  MOVFF  77E,79A
046B0:  MOVFF  77D,799
046B4:  MOVFF  77C,798
046B8:  MOVLB  7
046BA:  CLRF   x9F
046BC:  CLRF   x9E
046BE:  CLRF   x9D
046C0:  MOVLW  7F
046C2:  MOVWF  x9C
046C4:  MOVLB  0
046C6:  CALL   2F26
046CA:  BTFSC  FD8.2
046CC:  BRA    4B5A
....................    { 
.................... #if !defined(__PCD__) 
....................     *((unsigned int8 *)(&y)) = 0x7E;  
046CE:  MOVLW  07
046D0:  MOVLB  7
046D2:  MOVWF  x8E
046D4:  MOVLW  7C
046D6:  MOVWF  FE9
046D8:  MOVFF  78E,FEA
046DC:  MOVLW  7E
046DE:  MOVWF  FEF
.................... #endif 
....................  
.................... #if defined(__PCD__) // Takes care of IEEE format 
....................    data2 = *(((unsigned int8 *)(&y))+3); 
....................    *(((unsigned int8 *)(&y))+3) = 0x3F; 
....................    data1 = *(((unsigned int8 *)(&y))+2); 
....................    bit_clear(data1,7); 
....................    *(((unsigned int8 *)(&y))+2) = data1; 
....................    if(bit_test(data2,7)) 
....................    bit_set(*(((unsigned int8 *)(&y))+3),7); 
.................... #endif 
....................  
....................       y = (y - 1.0)/(y + 1.0); 
046E0:  BSF    FD8.1
046E2:  MOVFF  77F,79F
046E6:  MOVFF  77E,79E
046EA:  MOVFF  77D,79D
046EE:  MOVFF  77C,79C
046F2:  CLRF   xA3
046F4:  CLRF   xA2
046F6:  CLRF   xA1
046F8:  MOVLW  7F
046FA:  MOVWF  xA0
046FC:  MOVLB  0
046FE:  CALL   1E96
04702:  MOVFF  00,78D
04706:  MOVFF  01,78E
0470A:  MOVFF  02,78F
0470E:  MOVFF  03,790
04712:  BCF    FD8.1
04714:  MOVFF  77F,79F
04718:  MOVFF  77E,79E
0471C:  MOVFF  77D,79D
04720:  MOVFF  77C,79C
04724:  MOVLB  7
04726:  CLRF   xA3
04728:  CLRF   xA2
0472A:  CLRF   xA1
0472C:  MOVLW  7F
0472E:  MOVWF  xA0
04730:  MOVLB  0
04732:  CALL   1E96
04736:  MOVFF  790,79B
0473A:  MOVFF  78F,79A
0473E:  MOVFF  78E,799
04742:  MOVFF  78D,798
04746:  MOVFF  03,79F
0474A:  MOVFF  02,79E
0474E:  MOVFF  01,79D
04752:  MOVFF  00,79C
04756:  CALL   18C0
0475A:  MOVFF  03,77F
0475E:  MOVFF  02,77E
04762:  MOVFF  01,77D
04766:  MOVFF  00,77C
....................  
....................       y2=y*y; 
0476A:  MOVFF  77F,79B
0476E:  MOVFF  77E,79A
04772:  MOVFF  77D,799
04776:  MOVFF  77C,798
0477A:  MOVFF  77F,79F
0477E:  MOVFF  77E,79E
04782:  MOVFF  77D,79D
04786:  MOVFF  77C,79C
0478A:  CALL   1A1E
0478E:  MOVFF  03,78B
04792:  MOVFF  02,78A
04796:  MOVFF  01,789
0479A:  MOVFF  00,788
....................  
....................       res = pl[0]*y2 + pl[1]; 
0479E:  MOVLW  BC
047A0:  MOVLB  7
047A2:  MOVWF  x9B
047A4:  MOVLW  24
047A6:  MOVWF  x9A
047A8:  MOVLW  67
047AA:  MOVWF  x99
047AC:  MOVLW  7D
047AE:  MOVWF  x98
047B0:  MOVFF  78B,79F
047B4:  MOVFF  78A,79E
047B8:  MOVFF  789,79D
047BC:  MOVFF  788,79C
047C0:  MOVLB  0
047C2:  CALL   1A1E
047C6:  MOVFF  00,78D
047CA:  MOVFF  01,78E
047CE:  MOVFF  02,78F
047D2:  MOVFF  03,790
047D6:  BCF    FD8.1
047D8:  MOVFF  03,79F
047DC:  MOVFF  02,79E
047E0:  MOVFF  01,79D
047E4:  MOVFF  00,79C
047E8:  MOVLW  E3
047EA:  MOVLB  7
047EC:  MOVWF  xA3
047EE:  MOVLW  E4
047F0:  MOVWF  xA2
047F2:  MOVLW  90
047F4:  MOVWF  xA1
047F6:  MOVLW  82
047F8:  MOVWF  xA0
047FA:  MOVLB  0
047FC:  CALL   1E96
04800:  MOVFF  03,783
04804:  MOVFF  02,782
04808:  MOVFF  01,781
0480C:  MOVFF  00,780
....................       res = res*y2 + pl[2]; 
04810:  MOVFF  783,79B
04814:  MOVFF  782,79A
04818:  MOVFF  781,799
0481C:  MOVFF  780,798
04820:  MOVFF  78B,79F
04824:  MOVFF  78A,79E
04828:  MOVFF  789,79D
0482C:  MOVFF  788,79C
04830:  CALL   1A1E
04834:  MOVFF  00,78D
04838:  MOVFF  01,78E
0483C:  MOVFF  02,78F
04840:  MOVFF  03,790
04844:  BCF    FD8.1
04846:  MOVFF  03,79F
0484A:  MOVFF  02,79E
0484E:  MOVFF  01,79D
04852:  MOVFF  00,79C
04856:  MOVLW  1C
04858:  MOVLB  7
0485A:  MOVWF  xA3
0485C:  MOVLW  87
0485E:  MOVWF  xA2
04860:  MOVLW  57
04862:  MOVWF  xA1
04864:  MOVLW  83
04866:  MOVWF  xA0
04868:  MOVLB  0
0486A:  CALL   1E96
0486E:  MOVFF  03,783
04872:  MOVFF  02,782
04876:  MOVFF  01,781
0487A:  MOVFF  00,780
....................       res = res*y2 + pl[3]; 
0487E:  MOVFF  783,79B
04882:  MOVFF  782,79A
04886:  MOVFF  781,799
0488A:  MOVFF  780,798
0488E:  MOVFF  78B,79F
04892:  MOVFF  78A,79E
04896:  MOVFF  789,79D
0489A:  MOVFF  788,79C
0489E:  CALL   1A1E
048A2:  MOVFF  00,78D
048A6:  MOVFF  01,78E
048AA:  MOVFF  02,78F
048AE:  MOVFF  03,790
048B2:  BCF    FD8.1
048B4:  MOVFF  03,79F
048B8:  MOVFF  02,79E
048BC:  MOVFF  01,79D
048C0:  MOVFF  00,79C
048C4:  MOVLW  AB
048C6:  MOVLB  7
048C8:  MOVWF  xA3
048CA:  MOVLW  E1
048CC:  MOVWF  xA2
048CE:  MOVLW  9E
048D0:  MOVWF  xA1
048D2:  MOVLW  83
048D4:  MOVWF  xA0
048D6:  MOVLB  0
048D8:  CALL   1E96
048DC:  MOVFF  03,783
048E0:  MOVFF  02,782
048E4:  MOVFF  01,781
048E8:  MOVFF  00,780
....................  
....................       r = ql[0]*y2 + ql[1]; 
048EC:  MOVLB  7
048EE:  CLRF   x9B
048F0:  CLRF   x9A
048F2:  CLRF   x99
048F4:  MOVLW  7F
048F6:  MOVWF  x98
048F8:  MOVFF  78B,79F
048FC:  MOVFF  78A,79E
04900:  MOVFF  789,79D
04904:  MOVFF  788,79C
04908:  MOVLB  0
0490A:  CALL   1A1E
0490E:  MOVFF  00,78D
04912:  MOVFF  01,78E
04916:  MOVFF  02,78F
0491A:  MOVFF  03,790
0491E:  BCF    FD8.1
04920:  MOVFF  03,79F
04924:  MOVFF  02,79E
04928:  MOVFF  01,79D
0492C:  MOVFF  00,79C
04930:  MOVLW  B4
04932:  MOVLB  7
04934:  MOVWF  xA3
04936:  MOVLW  2A
04938:  MOVWF  xA2
0493A:  MOVLW  82
0493C:  MOVWF  xA1
0493E:  MOVWF  xA0
04940:  MOVLB  0
04942:  CALL   1E96
04946:  MOVFF  03,787
0494A:  MOVFF  02,786
0494E:  MOVFF  01,785
04952:  MOVFF  00,784
....................       r = r*y2 + ql[2]; 
04956:  MOVFF  787,79B
0495A:  MOVFF  786,79A
0495E:  MOVFF  785,799
04962:  MOVFF  784,798
04966:  MOVFF  78B,79F
0496A:  MOVFF  78A,79E
0496E:  MOVFF  789,79D
04972:  MOVFF  788,79C
04976:  CALL   1A1E
0497A:  MOVFF  00,78D
0497E:  MOVFF  01,78E
04982:  MOVFF  02,78F
04986:  MOVFF  03,790
0498A:  BCF    FD8.1
0498C:  MOVFF  03,79F
04990:  MOVFF  02,79E
04994:  MOVFF  01,79D
04998:  MOVFF  00,79C
0499C:  MOVLW  80
0499E:  MOVLB  7
049A0:  MOVWF  xA3
049A2:  MOVLW  3E
049A4:  MOVWF  xA2
049A6:  MOVLW  06
049A8:  MOVWF  xA1
049AA:  MOVLW  83
049AC:  MOVWF  xA0
049AE:  MOVLB  0
049B0:  CALL   1E96
049B4:  MOVFF  03,787
049B8:  MOVFF  02,786
049BC:  MOVFF  01,785
049C0:  MOVFF  00,784
....................       r = r*y2 + ql[3]; 
049C4:  MOVFF  787,79B
049C8:  MOVFF  786,79A
049CC:  MOVFF  785,799
049D0:  MOVFF  784,798
049D4:  MOVFF  78B,79F
049D8:  MOVFF  78A,79E
049DC:  MOVFF  789,79D
049E0:  MOVFF  788,79C
049E4:  CALL   1A1E
049E8:  MOVFF  00,78D
049EC:  MOVFF  01,78E
049F0:  MOVFF  02,78F
049F4:  MOVFF  03,790
049F8:  BCF    FD8.1
049FA:  MOVFF  03,79F
049FE:  MOVFF  02,79E
04A02:  MOVFF  01,79D
04A06:  MOVFF  00,79C
04A0A:  MOVLW  AB
04A0C:  MOVLB  7
04A0E:  MOVWF  xA3
04A10:  MOVLW  E1
04A12:  MOVWF  xA2
04A14:  MOVLW  9E
04A16:  MOVWF  xA1
04A18:  MOVLW  82
04A1A:  MOVWF  xA0
04A1C:  MOVLB  0
04A1E:  CALL   1E96
04A22:  MOVFF  03,787
04A26:  MOVFF  02,786
04A2A:  MOVFF  01,785
04A2E:  MOVFF  00,784
....................  
....................       res = y*res/r; 
04A32:  MOVFF  77F,79B
04A36:  MOVFF  77E,79A
04A3A:  MOVFF  77D,799
04A3E:  MOVFF  77C,798
04A42:  MOVFF  783,79F
04A46:  MOVFF  782,79E
04A4A:  MOVFF  781,79D
04A4E:  MOVFF  780,79C
04A52:  CALL   1A1E
04A56:  MOVFF  00,78D
04A5A:  MOVFF  01,78E
04A5E:  MOVFF  02,78F
04A62:  MOVFF  03,790
04A66:  MOVFF  03,79B
04A6A:  MOVFF  02,79A
04A6E:  MOVFF  01,799
04A72:  MOVFF  00,798
04A76:  MOVFF  787,79F
04A7A:  MOVFF  786,79E
04A7E:  MOVFF  785,79D
04A82:  MOVFF  784,79C
04A86:  CALL   18C0
04A8A:  MOVFF  03,783
04A8E:  MOVFF  02,782
04A92:  MOVFF  01,781
04A96:  MOVFF  00,780
.................... #if !defined(__PCD__) 
....................       n = *((unsigned int8 *)(&x)) - 0x7E; 
04A9A:  MOVLW  07
04A9C:  MOVLB  7
04A9E:  MOVWF  x8E
04AA0:  MOVLW  78
04AA2:  MOVWF  FE9
04AA4:  MOVFF  78E,FEA
04AA8:  MOVLW  7E
04AAA:  SUBWF  FEF,W
04AAC:  MOVWF  x8C
.................... #endif 
.................... #if defined(__PCD__)  
....................     data1 = *(((unsigned int8 *)(&x)+3)); 
....................     rotate_left(&data1,1); 
....................     data2 = *(((unsigned int8 *)(&x)+2)); 
....................     if(bit_test (data2,7)) 
....................       bit_set(data1,0); 
....................     n = data1 - 0x7E; 
.................... #endif 
....................  
....................       if (n<0)  
04AAE:  BTFSC  x8C.7
04AB0:  BRA    4AB4
04AB2:  BRA    4ADC
....................          r = -(float32)-n; 
04AB4:  MOVLW  00
04AB6:  BSF    FD8.0
04AB8:  SUBFWB x8C,W
04ABA:  CLRF   x8F
04ABC:  MOVWF  x8E
04ABE:  BTFSC  x8E.7
04AC0:  DECF   x8F,F
04AC2:  MOVLB  0
04AC4:  RCALL  4648
04AC6:  MOVFF  00,784
04ACA:  MOVF   01,W
04ACC:  XORLW  80
04ACE:  MOVLB  7
04AD0:  MOVWF  x85
04AD2:  MOVFF  02,786
04AD6:  MOVFF  03,787
....................       else 
04ADA:  BRA    4AFC
....................          r = (float32)n; 
04ADC:  CLRF   x8F
04ADE:  MOVFF  78C,78E
04AE2:  BTFSC  x8E.7
04AE4:  DECF   x8F,F
04AE6:  MOVLB  0
04AE8:  RCALL  4648
04AEA:  MOVFF  03,787
04AEE:  MOVFF  02,786
04AF2:  MOVFF  01,785
04AF6:  MOVFF  00,784
04AFA:  MOVLB  7
....................  
....................       res += r*LN2; 
04AFC:  MOVFF  787,79B
04B00:  MOVFF  786,79A
04B04:  MOVFF  785,799
04B08:  MOVFF  784,798
04B0C:  MOVLW  18
04B0E:  MOVWF  x9F
04B10:  MOVLW  72
04B12:  MOVWF  x9E
04B14:  MOVLW  31
04B16:  MOVWF  x9D
04B18:  MOVLW  7E
04B1A:  MOVWF  x9C
04B1C:  MOVLB  0
04B1E:  CALL   1A1E
04B22:  BCF    FD8.1
04B24:  MOVFF  783,79F
04B28:  MOVFF  782,79E
04B2C:  MOVFF  781,79D
04B30:  MOVFF  780,79C
04B34:  MOVFF  03,7A3
04B38:  MOVFF  02,7A2
04B3C:  MOVFF  01,7A1
04B40:  MOVFF  00,7A0
04B44:  CALL   1E96
04B48:  MOVFF  03,783
04B4C:  MOVFF  02,782
04B50:  MOVFF  01,781
04B54:  MOVFF  00,780
....................    } 
....................  
....................    else 
04B58:  BRA    4B66
....................       res = 0.0; 
04B5A:  MOVLB  7
04B5C:  CLRF   x83
04B5E:  CLRF   x82
04B60:  CLRF   x81
04B62:  CLRF   x80
04B64:  MOVLB  0
....................  
....................    return(res); 
04B66:  MOVFF  780,00
04B6A:  MOVFF  781,01
04B6E:  MOVFF  782,02
04B72:  MOVFF  783,03
.................... } 
04B76:  RETLW  00
....................  
.................... //Overloaded function for log() for PCD 
.................... // Overloaded function log() for data type - Float48 
.................... #if defined(__PCD__) 
.................... float48 log(float48 x) 
.................... { 
....................    float48 y, res, r, y2; 
....................    unsigned int8  data1,data2; 
....................    signed int8 n; 
....................    #ifdef _ERRNO 
....................    if(x <0) 
....................    { 
....................       errno=EDOM; 
....................    } 
....................    if(x ==0) 
....................    { 
....................       errno=ERANGE; 
....................       return(0); 
....................    } 
....................    #endif 
....................    y = x; 
....................  
....................    if (y != 1.0) 
....................    { 
....................     
....................    #if !defined(__PCD__) 
....................        *((unsigned int8 *)(&y)) = 0x7E;  
....................    #endif 
....................       data2 = *(((unsigned int8 *)(&y))+5); 
....................       *(((unsigned int8 *)(&y))+5) = 0x3F; 
....................       data1 = *(((unsigned int8 *)(&y))+4); 
....................       bit_clear(data1,7); 
....................       *(((unsigned int8 *)(&y))+4) = data1; 
....................    
....................       if(bit_test(data2,7)) 
....................          bit_set(*(((unsigned int8 *)(&y))+4),7); 
....................       y = (y - 1.0)/(y + 1.0); 
....................  
....................       y2=y*y; 
....................  
....................       res = pl[0]*y2 + pl[1]; 
....................       res = res*y2 + pl[2]; 
....................       res = res*y2 + pl[3]; 
....................  
....................       r = ql[0]*y2 + ql[1]; 
....................       r = r*y2 + ql[2]; 
....................       r = r*y2 + ql[3]; 
....................  
....................       res = y*res/r; 
....................  
....................     data1 = *(((unsigned int8 *)(&x)+5)); 
....................     rotate_left(&data1,1); 
....................     data2 = *(((unsigned int8 *)(&x)+4)); 
....................     if(bit_test (data2,7)) 
....................        bit_set(data1,0); 
....................       
....................     n = data1 - 0x7E; 
....................  
....................       if (n<0) 
....................          r = -(float48)-n; 
....................       else 
....................          r = (float48)n; 
....................  
....................       res += r*LN2; 
....................    } 
....................  
....................    else 
....................       res = 0.0; 
....................  
....................    return(res); 
.................... } 
....................  
.................... // Overloaded function log() for data type - Float48 
.................... #if defined(__PCD__) 
.................... float32 const pl_64[4] = {0.45145214, -9.0558803, 26.940971, -19.860189}; 
.................... float32 const ql_64[4] = {1.0000000,  -8.1354259, 16.780517, -9.9300943}; 
.................... #endif 
.................... float64 log(float64 x) 
.................... { 
....................    float64 y, res, r, y2; 
....................    unsigned int16  data1,data2; 
....................    unsigned int16 *p; 
....................    signed int16 n; 
....................    #ifdef _ERRNO 
....................    if(x <0) 
....................    { 
....................       errno=EDOM; 
....................    } 
....................    if(x ==0) 
....................    { 
....................       errno=ERANGE; 
....................       return(0); 
....................    } 
....................    #endif 
....................    y = x; 
....................  
....................    if (y != 1.0) 
....................    { 
....................    #if !defined(__PCD__) 
....................        *((unsigned int8 *)(&y)) = 0x7E;  
....................    #endif 
....................       p= (((unsigned int16 *)(&y))+3); 
....................       data1 = *p; 
....................       data2 = *p; 
....................       data1 = 0x3FE; 
....................       data1 = data1 <<4; 
....................       if(bit_test (data2,15)) 
....................       bit_set(data1,15); 
....................       data2 = data2 & 0x000F; 
....................       data1 ^=data2; 
....................  
....................       *p = data1; 
....................  
....................       y = (y - 1.0)/(y + 1.0); 
....................  
....................       y2=y*y; 
....................  
....................       res = pl_64[0]*y2 + pl_64[1]; 
....................       res = res*y2 + pl_64[2]; 
....................       res = res*y2 + pl_64[3]; 
....................  
....................       r = ql_64[0]*y2 + ql_64[1]; 
....................       r = r*y2 + ql_64[2]; 
....................       r = r*y2 + ql_64[3]; 
....................  
....................       res = y*res/r; 
....................   
....................       p= (((unsigned int16 *)(&x))+3); 
....................       data1 = *p; 
....................       bit_clear(data1,15); 
....................       data1 = data1 >>4;     
....................       n = data1 - 0x3FE; 
....................  
....................  
....................       if (n<0) 
....................          r = -(float64)-n; 
....................       else 
....................          r = (float64)n; 
....................  
....................       res += r*LN2; 
....................    } 
....................  
....................    else 
....................       res = 0.0; 
....................  
....................    return(res); 
.................... } 
.................... #endif 
....................  
....................  
.................... #define LN10 2.3025850929940456 
....................  
.................... //////////////////////////////////////////////////////////////////////////// 
.................... //   float log10(float x) 
.................... //////////////////////////////////////////////////////////////////////////// 
.................... // Description : returns the the log base 10 of x 
.................... // Date : N/A 
.................... // 
.................... float32 log10(float32 x) 
.................... { 
....................    float32 r; 
....................  
....................    r = log(x); 
....................    r = r/LN10; 
....................    return(r); 
.................... } 
....................  
.................... //Overloaded functions for log10() for PCD 
.................... // Overloaded function log10() for data type - Float48 
.................... #if defined(__PCD__) 
.................... float48 log10(float48 x) 
.................... { 
....................    float48 r; 
....................  
....................    r = log(x); 
....................    r = r/LN10; 
....................    return(r); 
.................... } 
....................  
.................... // Overloaded function log10() for data type - Float64 
.................... float64 log10(float64 x) 
.................... { 
....................    float64 r; 
....................  
....................    r = log(x); 
....................    r = r/LN10; 
....................    return(r); 
.................... } 
.................... #endif 
.................... //////////////////////////////////////////////////////////////////////////// 
.................... //   float modf(float x) 
.................... //////////////////////////////////////////////////////////////////////////// 
.................... // Description :breaks the argument value int integral and fractional parts, 
.................... // ach of which have the same sign as the argument.  It stores the integral part 
.................... // as a float in the object pointed to by the iptr 
.................... // Returns : returns the signed fractional part of value. 
.................... // Date : N/A 
.................... // 
....................  
.................... float32 modf(float32 value,float32 *iptr) 
.................... { 
....................    *iptr=(value < 0.0)? ceil(value): floor(value); 
....................    return(value - *iptr); 
.................... } 
.................... //Overloaded functions for modf() for PCD 
.................... // Overloaded function modf() for data type - Float48 
.................... #if defined(__PCD__) 
.................... float48 modf(float48 value,float48 *iptr) 
.................... { 
....................    *iptr=(value < 0.0)? ceil(value): floor(value); 
....................    return(value - *iptr); 
.................... } 
.................... // Overloaded function modf() for data type - Float64 
.................... float64 modf(float64 value,float64 *iptr) 
.................... { 
....................    *iptr=(value < 0.0)? ceil(value): floor(value); 
....................    return(value - *iptr); 
.................... } 
.................... #endif 
....................  
.................... //////////////////////////////////////////////////////////////////////////// 
.................... //   float pwr(float x,float y) 
.................... //////////////////////////////////////////////////////////////////////////// 
.................... // Description : returns the value (x^y) 
.................... // Date : N/A 
.................... // Note : 0 is returned when the function will generate an imaginary number 
.................... // 
.................... float32 pwr(float32 x,float32 y) 
.................... { 
....................    if(0 > x && fmod(y, 1) == 0) { 
....................       if(fmod(y, 2) == 0) { 
....................          return (exp(log(-x) * y)); 
....................       } else { 
....................          return (-exp(log(-x) * y)); 
....................       } 
....................    } else if(0 > x && fmod(y, 1) != 0) { 
....................       return 0; 
....................    } else { 
....................       if(x != 0 || 0 >= y) { 
....................          return (exp(log(x) * y)); 
....................       } 
....................    } 
.................... } 
.................... //Overloaded functions for pwr() for PCD 
.................... // Overloaded function pwr() for data type - Float48 
.................... #if defined(__PCD__) 
.................... float48 pwr(float48 x,float48 y) 
.................... { 
....................    if(0 > x && fmod(y, 1) == 0) { 
....................       if(fmod(y, 2) == 0) { 
....................          return (exp(log(-x) * y)); 
....................       } else { 
....................          return (-exp(log(-x) * y)); 
....................       } 
....................    } else if(0 > x && fmod(y, 1) != 0) { 
....................       return 0; 
....................    } else { 
....................       if(x != 0 || 0 >= y) { 
....................          return (exp(log(x) * y)); 
....................       } 
....................    } 
.................... } 
.................... // Overloaded function pwr() for data type - Float64 
.................... float64 pwr(float64 x,float64 y) 
.................... { 
....................    if(0 > x && fmod(y, 1) == 0) { 
....................       if(fmod(y, 2) == 0) { 
....................          return (exp(log(-x) * y)); 
....................       } else { 
....................          return (-exp(log(-x) * y)); 
....................       } 
....................    } else if(0 > x && fmod(y, 1) != 0) { 
....................       return 0; 
....................    } else { 
....................       if(x != 0 || 0 >= y) { 
....................          return (exp(log(x) * y)); 
....................       } 
....................    } 
.................... } 
.................... #endif 
....................  
.................... //////////////////// Power functions //////////////////// 
....................  
.................... //////////////////////////////////////////////////////////////////////////// 
.................... //   float pow(float x,float y) 
.................... //////////////////////////////////////////////////////////////////////////// 
.................... // Description : returns the value (x^y) 
.................... // Date : N/A 
.................... // Note : 0 is returned when the function will generate an imaginary number 
.................... // 
.................... float32 pow(float32 x,float32 y) 
.................... { 
....................    if(0 > x && fmod(y, 1) == 0) { 
*
04F82:  MOVFF  76F,79B
04F86:  MOVFF  76E,79A
04F8A:  MOVFF  76D,799
04F8E:  MOVFF  76C,798
04F92:  MOVLB  7
04F94:  CLRF   x9F
04F96:  CLRF   x9E
04F98:  CLRF   x9D
04F9A:  CLRF   x9C
04F9C:  MOVLB  0
04F9E:  CALL   2F26
04FA2:  BTFSS  FD8.0
04FA4:  BRA    5158
04FA6:  MOVFF  773,777
04FAA:  MOVFF  772,776
04FAE:  MOVFF  771,775
04FB2:  MOVFF  770,774
04FB6:  MOVLB  7
04FB8:  CLRF   x7B
04FBA:  CLRF   x7A
04FBC:  CLRF   x79
04FBE:  MOVLW  7F
04FC0:  MOVWF  x78
04FC2:  MOVLB  0
04FC4:  CALL   44E0
04FC8:  MOVFF  00,774
04FCC:  MOVFF  01,775
04FD0:  MOVFF  02,776
04FD4:  MOVFF  03,777
04FD8:  MOVFF  03,79B
04FDC:  MOVFF  02,79A
04FE0:  MOVFF  01,799
04FE4:  MOVFF  00,798
04FE8:  MOVLB  7
04FEA:  CLRF   x9F
04FEC:  CLRF   x9E
04FEE:  CLRF   x9D
04FF0:  CLRF   x9C
04FF2:  MOVLB  0
04FF4:  CALL   2F26
04FF8:  BTFSS  FD8.2
04FFA:  BRA    5158
....................       if(fmod(y, 2) == 0) { 
04FFC:  MOVFF  773,777
05000:  MOVFF  772,776
05004:  MOVFF  771,775
05008:  MOVFF  770,774
0500C:  MOVLB  7
0500E:  CLRF   x7B
05010:  CLRF   x7A
05012:  CLRF   x79
05014:  MOVLW  80
05016:  MOVWF  x78
05018:  MOVLB  0
0501A:  CALL   44E0
0501E:  MOVFF  00,774
05022:  MOVFF  01,775
05026:  MOVFF  02,776
0502A:  MOVFF  03,777
0502E:  MOVFF  03,79B
05032:  MOVFF  02,79A
05036:  MOVFF  01,799
0503A:  MOVFF  00,798
0503E:  MOVLB  7
05040:  CLRF   x9F
05042:  CLRF   x9E
05044:  CLRF   x9D
05046:  CLRF   x9C
05048:  MOVLB  0
0504A:  CALL   2F26
0504E:  BNZ   50D2
....................          return (exp(log(-x) * y)); 
05050:  MOVFF  76C,774
05054:  MOVLB  7
05056:  MOVF   x6D,W
05058:  XORLW  80
0505A:  MOVWF  x75
0505C:  MOVFF  76E,776
05060:  MOVFF  76F,777
05064:  MOVFF  76F,77B
05068:  MOVFF  76E,77A
0506C:  MOVWF  x79
0506E:  MOVFF  76C,778
05072:  MOVLB  0
05074:  CALL   4698
05078:  MOVFF  00,774
0507C:  MOVFF  01,775
05080:  MOVFF  02,776
05084:  MOVFF  03,777
05088:  MOVFF  03,79B
0508C:  MOVFF  02,79A
05090:  MOVFF  01,799
05094:  MOVFF  00,798
05098:  MOVFF  773,79F
0509C:  MOVFF  772,79E
050A0:  MOVFF  771,79D
050A4:  MOVFF  770,79C
050A8:  CALL   1A1E
050AC:  MOVFF  00,774
050B0:  MOVFF  01,775
050B4:  MOVFF  02,776
050B8:  MOVFF  03,777
050BC:  MOVFF  03,77B
050C0:  MOVFF  02,77A
050C4:  MOVFF  01,779
050C8:  MOVFF  00,778
050CC:  RCALL  4B78
050CE:  BRA    528C
....................       } else { 
050D0:  BRA    5156
....................          return (-exp(log(-x) * y)); 
050D2:  MOVFF  76C,774
050D6:  MOVLB  7
050D8:  MOVF   x6D,W
050DA:  XORLW  80
050DC:  MOVWF  x75
050DE:  MOVFF  76E,776
050E2:  MOVFF  76F,777
050E6:  MOVFF  76F,77B
050EA:  MOVFF  76E,77A
050EE:  MOVWF  x79
050F0:  MOVFF  76C,778
050F4:  MOVLB  0
050F6:  CALL   4698
050FA:  MOVFF  00,774
050FE:  MOVFF  01,775
05102:  MOVFF  02,776
05106:  MOVFF  03,777
0510A:  MOVFF  03,79B
0510E:  MOVFF  02,79A
05112:  MOVFF  01,799
05116:  MOVFF  00,798
0511A:  MOVFF  773,79F
0511E:  MOVFF  772,79E
05122:  MOVFF  771,79D
05126:  MOVFF  770,79C
0512A:  CALL   1A1E
0512E:  MOVFF  00,774
05132:  MOVFF  01,775
05136:  MOVFF  02,776
0513A:  MOVFF  03,777
0513E:  MOVFF  03,77B
05142:  MOVFF  02,77A
05146:  MOVFF  01,779
0514A:  MOVFF  00,778
0514E:  RCALL  4B78
05150:  MOVLW  80
05152:  XORWF  01,F
05154:  BRA    528C
....................       } 
....................    } else if(0 > x && fmod(y, 1) != 0) { 
05156:  BRA    528C
05158:  MOVFF  76F,79B
0515C:  MOVFF  76E,79A
05160:  MOVFF  76D,799
05164:  MOVFF  76C,798
05168:  MOVLB  7
0516A:  CLRF   x9F
0516C:  CLRF   x9E
0516E:  CLRF   x9D
05170:  CLRF   x9C
05172:  MOVLB  0
05174:  CALL   2F26
05178:  BNC   51DA
0517A:  MOVFF  773,777
0517E:  MOVFF  772,776
05182:  MOVFF  771,775
05186:  MOVFF  770,774
0518A:  MOVLB  7
0518C:  CLRF   x7B
0518E:  CLRF   x7A
05190:  CLRF   x79
05192:  MOVLW  7F
05194:  MOVWF  x78
05196:  MOVLB  0
05198:  CALL   44E0
0519C:  MOVFF  00,774
051A0:  MOVFF  01,775
051A4:  MOVFF  02,776
051A8:  MOVFF  03,777
051AC:  MOVFF  03,79B
051B0:  MOVFF  02,79A
051B4:  MOVFF  01,799
051B8:  MOVFF  00,798
051BC:  MOVLB  7
051BE:  CLRF   x9F
051C0:  CLRF   x9E
051C2:  CLRF   x9D
051C4:  CLRF   x9C
051C6:  MOVLB  0
051C8:  CALL   2F26
051CC:  BZ    51DA
....................       return 0; 
051CE:  CLRF   00
051D0:  CLRF   01
051D2:  CLRF   02
051D4:  CLRF   03
051D6:  BRA    528C
....................    } else { 
051D8:  BRA    528C
....................       if(x != 0 || 0 >= y) { 
051DA:  MOVFF  76F,79B
051DE:  MOVFF  76E,79A
051E2:  MOVFF  76D,799
051E6:  MOVFF  76C,798
051EA:  MOVLB  7
051EC:  CLRF   x9F
051EE:  CLRF   x9E
051F0:  CLRF   x9D
051F2:  CLRF   x9C
051F4:  MOVLB  0
051F6:  CALL   2F26
051FA:  BNZ   5220
051FC:  MOVFF  773,79B
05200:  MOVFF  772,79A
05204:  MOVFF  771,799
05208:  MOVFF  770,798
0520C:  MOVLB  7
0520E:  CLRF   x9F
05210:  CLRF   x9E
05212:  CLRF   x9D
05214:  CLRF   x9C
05216:  MOVLB  0
05218:  CALL   2F26
0521C:  BC    5220
0521E:  BNZ   528C
....................          return (exp(log(x) * y)); 
05220:  MOVFF  76F,77B
05224:  MOVFF  76E,77A
05228:  MOVFF  76D,779
0522C:  MOVFF  76C,778
05230:  CALL   4698
05234:  MOVFF  00,774
05238:  MOVFF  01,775
0523C:  MOVFF  02,776
05240:  MOVFF  03,777
05244:  MOVFF  03,79B
05248:  MOVFF  02,79A
0524C:  MOVFF  01,799
05250:  MOVFF  00,798
05254:  MOVFF  773,79F
05258:  MOVFF  772,79E
0525C:  MOVFF  771,79D
05260:  MOVFF  770,79C
05264:  CALL   1A1E
05268:  MOVFF  00,774
0526C:  MOVFF  01,775
05270:  MOVFF  02,776
05274:  MOVFF  03,777
05278:  MOVFF  03,77B
0527C:  MOVFF  02,77A
05280:  MOVFF  01,779
05284:  MOVFF  00,778
05288:  RCALL  4B78
0528A:  BRA    528C
....................       } 
....................    } 
.................... } 
0528C:  RETLW  00
.................... //Overloaded functions for pow() for PCD 
.................... // Overloaded function for pow() data type - Float48 
.................... #if defined(__PCD__) 
.................... float48 pow(float48 x,float48 y) 
.................... { 
....................    if(0 > x && fmod(y, 1) == 0) { 
....................       if(fmod(y, 2) == 0) { 
....................          return (exp(log(-x) * y)); 
....................       } else { 
....................          return (-exp(log(-x) * y)); 
....................       } 
....................    } else if(0 > x && fmod(y, 1) != 0) { 
....................       return 0; 
....................    } else { 
....................       if(x != 0 || 0 >= y) { 
....................          return (exp(log(x) * y)); 
....................       } 
....................    } 
.................... } 
....................  
.................... // Overloaded function pow() for data type - Float64 
.................... float64 pow(float64 x,float64 y) 
.................... { 
....................    if(0 > x && fmod(y, 1) == 0) { 
....................       if(fmod(y, 2) == 0) { 
....................          return (exp(log(-x) * y)); 
....................       } else { 
....................          return (-exp(log(-x) * y)); 
....................       } 
....................    } else if(0 > x && fmod(y, 1) != 0) { 
....................       return 0; 
....................    } else { 
....................       if(x != 0 || 0 >= y) { 
....................          return (exp(log(x) * y)); 
....................       } 
....................    } 
.................... } 
.................... #endif 
....................  
.................... //////////////////////////////////////////////////////////////////////////// 
.................... //   float sqrt(float x) 
.................... //////////////////////////////////////////////////////////////////////////// 
.................... // Description : returns the square root of x 
.................... // Date : N/A 
.................... // 
.................... float32 sqrt(float32 x) 
.................... { 
....................    float32 y, res; 
....................    #if defined(__PCD__) 
....................    unsigned int16 data1,data2; 
....................    #endif 
....................    BYTE *p; 
....................  
....................    #ifdef _ERRNO 
....................    if(x < 0) 
....................    { 
....................       errno=EDOM; 
....................    } 
....................    #endif 
....................  
....................    if( x<=0.0) 
....................       return(0.0); 
....................  
....................    y=x; 
....................     
....................    #if !defined(__PCD__) 
....................     p=&y; 
....................    (*p)=(BYTE)((((unsigned int16)(*p)) + 127) >> 1); 
....................    #endif 
....................     
....................    #if defined(__PCD__) 
....................     p = (((unsigned int8 *)(&y))+3); 
....................     data1 = *(((unsigned int8 *)(&y))+3); 
....................     data2 = *(((unsigned int8 *)(&y))+2); 
....................     rotate_left(&data1,1);     
....................     if(bit_test(data2,7))     
....................     bit_set(data1,0);     
....................     data1 = ((data1+127) >>1); 
....................     bit_clear(data2,7); 
....................     if(bit_test(data1,0)) 
....................     bit_set(data2,7); 
....................     data1 = data1 >>1; 
....................     *(((unsigned int8 *)(&y))+3) = data1; 
....................     *(((unsigned int8 *)(&y))+2) = data2; 
....................      
....................   #endif 
....................  
....................    do { 
....................       res=y; 
....................       y+=(x/y); 
....................  
....................       #if !defined(__PCD__) 
....................      (*p)--; 
....................    #endif 
....................     
....................    #if defined(__PCD__) 
....................     data1 = *(((unsigned int8 *)(&y))+3); 
....................     data2 = *(((unsigned int8 *)(&y))+2); 
....................     rotate_left(&data1,1); 
....................     if(bit_test(data2,7)) 
....................     bit_set(data1,0);     
....................     data1--; 
....................     bit_clear(data2,7); 
....................     if(bit_test(data1,0)) 
....................     bit_set(data2,7); 
....................     data1 = data1 >>1; 
....................     *(((unsigned int8 *)(&y))+3) = data1; 
....................     *(((unsigned int8 *)(&y))+2) = data2; 
....................      
....................   #endif 
....................    } while(res != y); 
....................  
....................    return(res); 
.................... } 
.................... //Overloaded functions for sqrt() for PCD 
.................... // Overloaded function sqrt() for data type - Float48 
.................... #if defined(__PCD__) 
.................... float48 sqrt(float48 x) 
.................... { 
....................    float48 y, res; 
....................    unsigned int16 data1,data2; 
....................    BYTE *p; 
....................  
....................    #ifdef _ERRNO 
....................    if(x < 0) 
....................    { 
....................       errno=EDOM; 
....................    } 
....................    #endif 
....................  
....................    if( x<=0.0) 
....................       return(0.0); 
....................  
....................    y=x; 
....................     
....................    #if !defined(__PCD__) 
....................     p=&y; 
....................    (*p)=(BYTE)((((unsigned int16)(*p)) + 127) >> 1); 
....................    #endif 
....................     
....................    #if defined(__PCD__) 
....................     p = (((unsigned int8 *)(&y))+5); 
....................     data1 = *(((unsigned int8 *)(&y))+5); 
....................     data2 = *(((unsigned int8 *)(&y))+4); 
....................     rotate_left(&data1,1); 
....................     if(bit_test(data2,7)) 
....................     bit_set(data1,0);     
....................     data1 = ((data1+127) >>1); 
....................     bit_clear(data2,7); 
....................     if(bit_test(data1,0)) 
....................     bit_set(data2,7); 
....................     data1 = data1 >>1; 
....................     *(((unsigned int8 *)(&y))+5) = data1; 
....................     *(((unsigned int8 *)(&y))+4) = data2; 
....................      
....................   #endif 
....................  
....................    do { 
....................       res=y; 
....................       y+=(x/y); 
....................  
....................       #if !defined(__PCD__) 
....................      (*p)--; 
....................    #endif 
....................     
....................     data1 = *(((unsigned int8 *)(&y))+5); 
....................     data2 = *(((unsigned int8 *)(&y))+4); 
....................     rotate_left(&data1,1); 
....................     if(bit_test(data2,7)) 
....................     bit_set(data1,0);     
....................     data1--; 
....................     bit_clear(data2,7); 
....................     if(bit_test(data1,0)) 
....................     bit_set(data2,7); 
....................     data1 = data1 >>1; 
....................     *(((unsigned int8 *)(&y))+5) = data1; 
....................     *(((unsigned int8 *)(&y))+4) = data2; 
....................      
....................    } while(res != y); 
....................  
....................    return(res); 
.................... } 
....................  
.................... // Overloaded function sqrt() for data type - Float64 
.................... float64 sqrt(float64 x) 
.................... { 
....................    float64 y, res; 
....................    unsigned int16 *p; 
....................    unsigned int16 temp1,temp2; 
....................  
....................    #ifdef _ERRNO 
....................    if(x < 0) 
....................    { 
....................       errno=EDOM; 
....................    } 
....................    #endif 
....................  
....................    if( x<=0.0) 
....................       return(0.0); 
....................  
....................    y=x; 
....................    p= (((unsigned int16 *)(&y))+3); 
....................    temp1 = *p; 
....................    temp2 = *p; 
....................    bit_clear(temp1,15); 
....................    temp1 = (temp1>>4)+1023; 
....................    temp1 = temp1 >> 1; 
....................    temp1 = (temp1<<4) & 0xFFF0; 
....................    if(bit_test(temp2,15)) 
....................    bit_set(temp1,15); 
....................    temp2 = temp2 & 0x000F; 
....................    temp1 ^= temp2; 
....................     
....................    (*p) = temp1; 
....................     
....................    do { 
....................       res=y; 
....................       y+=(x/y); 
....................      temp1 = *p; 
....................      temp2 = *p; 
....................      bit_clear(temp1,15); 
....................      temp1 = (temp1>>4); 
....................      temp1--; 
....................      temp1 = (temp1<<4) & 0xFFF0; 
....................      if(bit_test(temp2,15)) 
....................      bit_set(temp1,15); 
....................      temp2 = temp2 & 0x000F; 
....................      temp1 ^= temp2; 
....................      (*p) = temp1; 
....................  
....................    } while(res != y); 
....................  
....................    return(res); 
.................... } 
.................... #endif 
....................  
.................... ////////////////////////////// Trig Functions ////////////////////////////// 
.................... #ifdef PI_DIV_BY_TWO 
.................... #undef PI_DIV_BY_TWO 
.................... #endif 
.................... #define PI_DIV_BY_TWO   1.5707963267948966 
.................... #ifdef TWOBYPI 
.................... #undef TWOBYPI 
.................... #define TWOBYPI          0.6366197723675813 
.................... #endif 
.................... //////////////////////////////////////////////////////////////////////////// 
.................... //   float cos(float x) 
.................... //////////////////////////////////////////////////////////////////////////// 
.................... // Description : returns the cosine value of the angle x, which is in radian 
.................... // Date : 9/20/2001 
.................... // 
.................... float32 cos(float32 x) 
.................... { 
....................    float32 y, t, t2 = 1.0; 
....................    unsigned int8 quad, i; 
....................    float32 frac; 
....................    float32 p[6] = {                    //by the series definition for cosine 
....................       -0.5,                            // sum ( ( (-1)^n * x^2n )/(2n)! ) 
....................        0.04166666666667, 
....................       -0.00138888888889, 
....................        0.00002480158730, 
....................       -0.00000027557319, 
....................        0.00000000208767 
....................       //-0.00000000001147, 
....................       // 0.00000000000005 
....................    }; 
....................  
....................    if (x < 0) x = -x;                  // absolute value of input 
....................  
....................    quad = (unsigned int8)(x / PI_DIV_BY_TWO);    // quadrant 
....................    frac = (x / PI_DIV_BY_TWO) - quad;  // fractional part of input 
....................    quad = quad % 4;                    // quadrant (0 to 3) 
....................  
....................    if (quad == 0 || quad == 2) 
....................       t = frac * PI_DIV_BY_TWO; 
....................    else if (quad == 1) 
....................       t = (1-frac) * PI_DIV_BY_TWO; 
....................    else // should be 3 
....................       t = (frac-1) * PI_DIV_BY_TWO; 
....................  
....................    y = 1.0; 
....................    t = t * t; 
....................    for (i = 0; i <= 5; i++) 
....................    { 
....................       t2 = t2 * t; 
....................       y = y + p[i] * t2; 
....................    } 
....................  
....................    if (quad == 2 || quad == 1) 
....................       y = -y;  // correct sign 
....................  
....................    return (y); 
.................... } 
....................  
....................  
.................... //Overloaded functions for cos() for PCD 
.................... // Overloaded function cos() for data type - Float48 
.................... #if defined(__PCD__) 
.................... float48 cos(float48 x) 
.................... { 
....................    float48 y, t, t2 = 1.0; 
....................    unsigned int8 quad, i; 
....................    float48 frac; 
....................    float48 p[6] = {                    //by the series definition for cosine 
....................       -0.5,                            // sum ( ( (-1)^n * x^2n )/(2n)! ) 
....................        0.04166666666667, 
....................       -0.00138888888889, 
....................        0.00002480158730, 
....................       -0.00000027557319, 
....................        0.00000000208767, 
....................       //-0.00000000001147, 
....................       // 0.00000000000005 
....................    }; 
....................  
....................    if (x < 0) x = -x;                  // absolute value of input 
....................  
....................    quad = (unsigned int8)(x / PI_DIV_BY_TWO);    // quadrant 
....................    frac = (x / PI_DIV_BY_TWO) - quad;  // fractional part of input 
....................    quad = quad % 4;                    // quadrant (0 to 3) 
....................  
....................    if (quad == 0 || quad == 2) 
....................       t = frac * PI_DIV_BY_TWO; 
....................    else if (quad == 1) 
....................       t = (1-frac) * PI_DIV_BY_TWO; 
....................    else // should be 3 
....................       t = (frac-1) * PI_DIV_BY_TWO; 
....................  
....................    y = 0.999999999781; 
....................    t = t * t; 
....................    for (i = 0; i <= 5; i++) 
....................    { 
....................       t2 = t2 * t; 
....................       y = y + p[i] * t2; 
....................    } 
....................  
....................    if (quad == 2 || quad == 1) 
....................       y = -y;  // correct sign 
....................  
....................    return (y); 
.................... } 
....................  
.................... // Overloaded function cos() for data type - Float48 
.................... float64 cos(float64 x) 
.................... { 
....................    float64 y, t, t2 = 1.0; 
....................    unsigned int8 quad, i; 
....................    float64 frac; 
....................    float64 p[6] = {                    //by the series definition for cosine 
....................       -0.5,                            // sum ( ( (-1)^n * x^2n )/(2n)! ) 
....................        0.04166666666667, 
....................       -0.00138888888889, 
....................        0.00002480158730, 
....................       -0.00000027557319, 
....................        0.00000000208767, 
....................       //-0.00000000001147, 
....................       // 0.00000000000005 
....................    }; 
....................  
....................    if (x < 0) x = -x;                  // absolute value of input 
....................  
....................    quad = (unsigned int8)(x / PI_DIV_BY_TWO);    // quadrant 
....................    frac = (x / PI_DIV_BY_TWO) - quad;  // fractional part of input 
....................    quad = quad % 4;                    // quadrant (0 to 3) 
....................  
....................    if (quad == 0 || quad == 2) 
....................       t = frac * PI_DIV_BY_TWO; 
....................    else if (quad == 1) 
....................       t = (1-frac) * PI_DIV_BY_TWO; 
....................    else // should be 3 
....................       t = (frac-1) * PI_DIV_BY_TWO; 
....................  
....................    y = 0.999999999781; 
....................    t = t * t; 
....................    for (i = 0; i <= 5; i++) 
....................    { 
....................       t2 = t2 * t; 
....................       y = y + p[i] * t2; 
....................    } 
....................  
....................    if (quad == 2 || quad == 1) 
....................       y = -y;  // correct sign 
....................  
....................    return (y); 
.................... } 
....................  
.................... #endif 
....................  
.................... //////////////////////////////////////////////////////////////////////////// 
.................... //   float sin(float x) 
.................... //////////////////////////////////////////////////////////////////////////// 
.................... // Description : returns the sine value of the angle x, which is in radian 
.................... // Date : 9/20/2001 
.................... // 
.................... float32 sin(float32 x) 
.................... { 
....................    return cos(x - PI_DIV_BY_TWO); 
.................... } 
....................  
.................... //Overloaded functions for sin() for PCD 
.................... // Overloaded function sin() for data type - Float48 
.................... #if defined(__PCD__) 
.................... float48 sin(float48 x) 
.................... { 
....................    return cos(x - PI_DIV_BY_TWO); 
.................... } 
....................  
.................... // Overloaded function sin() for data type - Float48 
.................... float64 sin(float64 x) 
.................... { 
....................    return cos(x - PI_DIV_BY_TWO); 
.................... } 
.................... #endif 
....................  
.................... //////////////////////////////////////////////////////////////////////////// 
.................... //   float tan(float x) 
.................... //////////////////////////////////////////////////////////////////////////// 
.................... // Description : returns the tangent value of the angle x, which is in radian 
.................... // Date : 9/20/2001 
.................... // 
.................... float32 tan(float32 x) 
.................... { 
....................    float32 c, s; 
....................  
....................    c = cos(x); 
....................    if (c == 0.0) 
....................       return (1.0e+36); 
....................  
....................    s = sin(x); 
....................    return(s/c); 
.................... } 
.................... //Overloaded functions for tan() for PCD 
.................... // Overloaded function tan() for data type - Float48 
.................... #if defined(__PCD__) 
.................... float48 tan(float48 x) 
.................... { 
....................    float48 c, s; 
....................  
....................    c = cos(x); 
....................    if (c == 0.0) 
....................       return (1.0e+36); 
....................  
....................    s = sin(x); 
....................    return(s/c); 
.................... } 
....................  
.................... // Overloaded function tan() for data type - Float48 
.................... float64 tan(float64 x) 
.................... { 
....................    float64 c, s; 
....................  
....................    c = cos(x); 
....................    if (c == 0.0) 
....................       return (1.0e+36); 
....................  
....................    s = sin(x); 
....................    return(s/c); 
.................... } 
.................... #endif 
....................  
.................... float32 const pas[3] = {0.49559947, -4.6145309, 5.6036290}; 
.................... float32 const qas[3] = {1.0000000,  -5.5484666, 5.6036290}; 
....................  
.................... float32 ASIN_COS(float32 x, unsigned int8 n) 
.................... { 
....................    float32 y, res, r, y2; 
....................    int1 s; 
....................    #ifdef _ERRNO 
....................    if(x <-1 || x > 1) 
....................    { 
....................       errno=EDOM; 
....................    } 
....................    #endif 
....................    s = 0; 
....................    y = x; 
....................  
....................    if (x < 0) 
....................    { 
....................       s = 1; 
....................       y = -y; 
....................    } 
....................  
....................    if (y > 0.5) 
....................    { 
....................       y = sqrt((1.0 - y)/2.0); 
....................       n += 2; 
....................    } 
....................  
....................    y2=y*y; 
....................  
....................    res = pas[0]*y2 + pas[1]; 
....................    res = res*y2 + pas[2]; 
....................  
....................    r = qas[0]*y2 + qas[1]; 
....................    r = r*y2 + qas[2]; 
....................  
....................    res = y*res/r; 
....................  
....................    if (n & 2)     // |x| > 0.5 
....................       res = PI_DIV_BY_TWO - 2.0*res; 
....................    if (s) 
....................       res = -res; 
....................    if (n & 1)           // take arccos 
....................       res = PI_DIV_BY_TWO - res; 
....................  
....................    return(res); 
.................... } 
....................  
.................... //Overloaded functions for ASIN_COS() for PCD 
.................... // Overloaded function ASIN_COS() for data type - Float48 
.................... #if defined(__PCD__) 
.................... float48 ASIN_COS(float48 x, unsigned int8 n) 
.................... { 
....................    float48 y, res, r, y2; 
....................    int1 s; 
....................    #ifdef _ERRNO 
....................    if(x <-1 || x > 1) 
....................    { 
....................       errno=EDOM; 
....................    } 
....................    #endif 
....................    s = 0; 
....................    y = x; 
....................  
....................    if (x < 0) 
....................    { 
....................       s = 1; 
....................       y = -y; 
....................    } 
....................  
....................    if (y > 0.5) 
....................    { 
....................       y = sqrt((1.0 - y)/2.0); 
....................       n += 2; 
....................    } 
....................  
....................    y2=y*y; 
....................  
....................    res = pas[0]*y2 + pas[1]; 
....................    res = res*y2 + pas[2]; 
....................  
....................    r = qas[0]*y2 + qas[1]; 
....................    r = r*y2 + qas[2]; 
....................  
....................    res = y*res/r; 
....................  
....................    if (n & 2)     // |x| > 0.5 
....................       res = PI_DIV_BY_TWO - 2.0*res; 
....................    if (s) 
....................       res = -res; 
....................    if (n & 1)           // take arccos 
....................       res = PI_DIV_BY_TWO - res; 
....................  
....................    return(res); 
.................... } 
....................  
.................... // Overloaded function ASIN_COS() for data type - Float64 
.................... float64 ASIN_COS(float64 x, unsigned int8 n) 
.................... { 
....................    float64 y, res, r, y2; 
....................    int1 s; 
....................    #ifdef _ERRNO 
....................    if(x <-1 || x > 1) 
....................    { 
....................       errno=EDOM; 
....................    } 
....................    #endif 
....................    s = 0; 
....................    y = x; 
....................  
....................    if (x < 0) 
....................    { 
....................       s = 1; 
....................       y = -y; 
....................    } 
....................  
....................    if (y > 0.5) 
....................    { 
....................       y = sqrt((1.0 - y)/2.0); 
....................       n += 2; 
....................    } 
....................  
....................    y2=y*y; 
....................  
....................    res = pas[0]*y2 + pas[1]; 
....................    res = res*y2 + pas[2]; 
....................  
....................    r = qas[0]*y2 + qas[1]; 
....................    r = r*y2 + qas[2]; 
....................  
....................    res = y*res/r; 
....................  
....................    if (n & 2)     // |x| > 0.5 
....................       res = PI_DIV_BY_TWO - 2.0*res; 
....................    if (s) 
....................       res = -res; 
....................    if (n & 1)           // take arccos 
....................       res = PI_DIV_BY_TWO - res; 
....................  
....................    return(res); 
.................... } 
.................... #endif 
....................  
.................... //////////////////////////////////////////////////////////////////////////// 
.................... //   float asin(float x) 
.................... //////////////////////////////////////////////////////////////////////////// 
.................... // Description : returns the arcsine value of the value x. 
.................... // Date : N/A 
.................... // 
.................... float32 asin(float32 x) 
.................... { 
....................    float32 r; 
....................  
....................    r = ASIN_COS(x, 0); 
....................    return(r); 
.................... } 
.................... //Overloaded functions for asin() for PCD 
.................... // Overloaded function asin() for data type - Float48 
.................... #if defined(__PCD__) 
.................... float48 asin(float48 x) 
.................... { 
....................    float48 r; 
....................  
....................    r = ASIN_COS(x, 0); 
....................    return(r); 
.................... } 
....................  
.................... // Overloaded function asin() for data type - Float64 
.................... float64 asin(float64 x) 
.................... { 
....................    float64 r; 
....................  
....................    r = ASIN_COS(x, 0); 
....................    return(r); 
.................... } 
.................... #endif 
....................  
.................... //////////////////////////////////////////////////////////////////////////// 
.................... //   float acos(float x) 
.................... //////////////////////////////////////////////////////////////////////////// 
.................... // Description : returns the arccosine value of the value x. 
.................... // Date : N/A 
.................... // 
.................... float32 acos(float32 x) 
.................... { 
....................    float32 r; 
....................  
....................    r = ASIN_COS(x, 1); 
....................    return(r); 
.................... } 
.................... //Overloaded functions for acos() for PCD 
.................... // Overloaded function acos() for data type - Float48 
.................... #if defined(__PCD__) 
.................... float48 acos(float48 x) 
.................... { 
....................    float48 r; 
....................  
....................    r = ASIN_COS(x, 1); 
....................    return(r); 
.................... } 
....................  
.................... // Overloaded function acos() for data type - Float64 
.................... float64 acos(float64 x) 
.................... { 
....................    float64 r; 
....................  
....................    r = ASIN_COS(x, 1); 
....................    return(r); 
.................... } 
.................... #endif 
....................  
.................... float32 const pat[4] = {0.17630401, 5.6710795, 22.376096, 19.818457}; 
.................... float32 const qat[4] = {1.0000000,  11.368190, 28.982246, 19.818457}; 
....................  
.................... //////////////////////////////////////////////////////////////////////////// 
.................... //   float atan(float x) 
.................... //////////////////////////////////////////////////////////////////////////// 
.................... // Description : returns the arctangent value of the value x. 
.................... // Date : N/A 
.................... // 
.................... float32 atan(float32 x) 
.................... { 
....................    float32 y, res, r; 
....................    int1 s, flag; 
....................  
....................    s = 0; 
....................    flag = 0; 
....................    y = x; 
....................  
....................    if (x < 0) 
....................    { 
....................       s = 1; 
....................       y = -y; 
....................    } 
....................  
....................    if (y > 1.0) 
....................    { 
....................       y = 1.0/y; 
....................       flag = 1; 
....................    } 
....................  
....................    res = pat[0]*y*y + pat[1]; 
....................    res = res*y*y + pat[2]; 
....................    res = res*y*y + pat[3]; 
....................  
....................    r = qat[0]*y*y + qat[1]; 
....................    r = r*y*y + qat[2]; 
....................    r = r*y*y + qat[3]; 
....................  
....................    res = y*res/r; 
....................  
....................  
....................    if (flag)                              // for |x| > 1 
....................       res = PI_DIV_BY_TWO - res; 
....................    if (s) 
....................       res = -res; 
....................  
....................    return(res); 
.................... } 
.................... //Overloaded functions for atan() for PCD 
.................... // Overloaded function atan() for data type - Float48 
.................... #if defined(__PCD__) 
.................... float48 atan(float48 x) 
.................... { 
....................    float48 y, res, r; 
....................    int1 s, flag; 
....................  
....................    s = 0; 
....................    flag = 0; 
....................    y = x; 
....................  
....................    if (x < 0) 
....................    { 
....................       s = 1; 
....................       y = -y; 
....................    } 
....................  
....................    if (y > 1.0) 
....................    { 
....................       y = 1.0/y; 
....................       flag = 1; 
....................    } 
....................  
....................    res = pat[0]*y*y + pat[1]; 
....................    res = res*y*y + pat[2]; 
....................    res = res*y*y + pat[3]; 
....................  
....................    r = qat[0]*y*y + qat[1]; 
....................    r = r*y*y + qat[2]; 
....................    r = r*y*y + qat[3]; 
....................  
....................    res = y*res/r; 
....................  
....................  
....................    if (flag)                              // for |x| > 1 
....................       res = PI_DIV_BY_TWO - res; 
....................    if (s) 
....................       res = -res; 
....................  
....................    return(res); 
.................... } 
....................  
.................... // Overloaded function atan() for data type - Float64 
.................... float64 atan(float64 x) 
.................... { 
....................    float64 y, res, r; 
....................    int1 s, flag; 
....................  
....................    s = 0; 
....................    flag = 0; 
....................    y = x; 
....................  
....................    if (x < 0) 
....................    { 
....................       s = 1; 
....................       y = -y; 
....................    } 
....................  
....................    if (y > 1.0) 
....................    { 
....................       y = 1.0/y; 
....................       flag = 1; 
....................    } 
....................  
....................    res = pat[0]*y*y + pat[1]; 
....................    res = res*y*y + pat[2]; 
....................    res = res*y*y + pat[3]; 
....................  
....................    r = qat[0]*y*y + qat[1]; 
....................    r = r*y*y + qat[2]; 
....................    r = r*y*y + qat[3]; 
....................  
....................    res = y*res/r; 
....................  
....................  
....................    if (flag)                              // for |x| > 1 
....................       res = PI_DIV_BY_TWO - res; 
....................    if (s) 
....................       res = -res; 
....................  
....................    return(res); 
.................... } 
.................... #endif 
....................  
.................... ///////////////////////////////////////////////////////////////////////////// 
.................... //   float atan2(float y, float x) 
.................... ///////////////////////////////////////////////////////////////////////////// 
.................... // Description :computes the principal value of arc tangent of y/x, using the 
.................... // signs of both the arguments to determine the quadrant of the return value 
.................... // Returns : returns the arc tangent of y/x. 
.................... // Date : N/A 
.................... // 
....................  
.................... float32 atan2(float32 y,float32 x) 
.................... { 
....................    float32 z; 
....................    int1 sign; 
....................    unsigned int8 quad; 
....................    sign=0; 
....................    quad=0; //quadrant 
....................    quad=((y<=0.0)?((x<=0.0)?3:4):((x<0.0)?2:1)); 
....................    if(y<0.0) 
....................    { 
....................       sign=1; 
....................       y=-y; 
....................    } 
....................    if(x<0.0) 
....................    { 
....................       x=-x; 
....................    } 
....................    if (x==0.0) 
....................    { 
....................       if(y==0.0) 
....................       { 
....................       #ifdef _ERRNO 
....................       { 
....................          errno=EDOM; 
....................       } 
....................       #endif 
....................       } 
....................       else 
....................       { 
....................          if(sign) 
....................          { 
....................          return (-(PI_DIV_BY_TWO)); 
....................          } 
....................          else 
....................          { 
....................          return (PI_DIV_BY_TWO); 
....................          } 
....................       } 
....................    } 
....................    else 
....................    { 
....................       z=y/x; 
....................       switch(quad) 
....................       { 
....................          case 1: 
....................          { 
....................             return atan(z); 
....................             break; 
....................          } 
....................          case 2: 
....................          { 
.................... //            return (atan(z)+PI_DIV_BY_TWO);  //2L3122 
....................             return (PI-atan(z)); 
....................             break; 
....................          } 
....................          case 3: 
....................          { 
....................             return (atan(z)-PI); 
....................             break; 
....................          } 
....................          case 4: 
....................          { 
....................             return (-atan(z)); 
....................             break; 
....................          } 
....................       } 
....................    } 
.................... } 
....................  
.................... //Overloaded functions for atan2() for PCD 
.................... // Overloaded function atan2() for data type - Float48 
.................... #if defined(__PCD__) 
.................... float48 atan2(float48 y,float48 x) 
.................... { 
....................    float48 z; 
....................    int1 sign; 
....................    unsigned int8 quad; 
....................    sign=0; 
....................    quad=0; //quadrant 
....................    quad=((y<=0.0)?((x<=0.0)?3:4):((x<0.0)?2:1)); 
....................    if(y<0.0) 
....................    { 
....................       sign=1; 
....................       y=-y; 
....................    } 
....................    if(x<0.0) 
....................    { 
....................       x=-x; 
....................    } 
....................    if (x==0.0) 
....................    { 
....................       if(y==0.0) 
....................       { 
....................       #ifdef _ERRNO 
....................       { 
....................          errno=EDOM; 
....................       } 
....................       #endif 
....................       } 
....................       else 
....................       { 
....................          if(sign) 
....................          { 
....................          return (-(PI_DIV_BY_TWO)); 
....................          } 
....................          else 
....................          { 
....................          return (PI_DIV_BY_TWO); 
....................          } 
....................       } 
....................    } 
....................    else 
....................    { 
....................       z=y/x; 
....................       switch(quad) 
....................       { 
....................          case 1: 
....................          { 
....................             return atan(z); 
....................             break; 
....................          } 
....................          case 2: 
....................          { 
.................... //            return (atan(z)+PI_DIV_BY_TWO);  //2L3122 
....................             return (PI-atan(z)); 
....................             break; 
....................          } 
....................          case 3: 
....................          { 
....................             return (atan(z)-PI); 
....................             break; 
....................          } 
....................          case 4: 
....................          { 
....................             return (-atan(z)); 
....................             break; 
....................          } 
....................       } 
....................    } 
.................... } 
....................  
.................... // Overloaded function atan2() for data type - Float64 
.................... float64 atan2(float64 y,float64 x) 
.................... { 
....................    float64 z; 
....................    int1 sign; 
....................    unsigned int8 quad; 
....................    sign=0; 
....................    quad=0; //quadrant 
....................    quad=((y<=0.0)?((x<=0.0)?3:4):((x<0.0)?2:1)); 
....................    if(y<0.0) 
....................    { 
....................       sign=1; 
....................       y=-y; 
....................    } 
....................    if(x<0.0) 
....................    { 
....................       x=-x; 
....................    } 
....................    if (x==0.0) 
....................    { 
....................       if(y==0.0) 
....................       { 
....................       #ifdef _ERRNO 
....................       { 
....................          errno=EDOM; 
....................       } 
....................       #endif 
....................       } 
....................       else 
....................       { 
....................          if(sign) 
....................          { 
....................          return (-(PI_DIV_BY_TWO)); 
....................          } 
....................          else 
....................          { 
....................          return (PI_DIV_BY_TWO); 
....................          } 
....................       } 
....................    } 
....................    else 
....................    { 
....................       z=y/x; 
....................       switch(quad) 
....................       { 
....................          case 1: 
....................          { 
....................             return atan(z); 
....................             break; 
....................          } 
....................          case 2: 
....................          { 
.................... //            return (atan(z)+PI_DIV_BY_TWO);  //2L3122 
....................             return (PI-atan(z)); 
....................             break; 
....................          } 
....................          case 3: 
....................          { 
....................             return (atan(z)-PI); 
....................             break; 
....................          } 
....................          case 4: 
....................          { 
....................             return (-atan(z)); 
....................             break; 
....................          } 
....................       } 
....................    } 
.................... } 
.................... #endif 
....................  
.................... //////////////////// Hyperbolic functions //////////////////// 
....................  
.................... //////////////////////////////////////////////////////////////////////////// 
.................... //   float cosh(float x) 
.................... //////////////////////////////////////////////////////////////////////////// 
.................... // Description : Computes the hyperbolic cosine value of x 
.................... // Returns : returns the hyperbolic cosine value of x 
.................... // Date : N/A 
.................... // 
....................  
.................... float32 cosh(float32 x) 
.................... { 
....................    return ((exp(x)+exp(-x))/2); 
.................... } 
.................... //Overloaded functions for cosh() for PCD 
.................... // Overloaded function cosh() for data type - Float48 
.................... #if defined(__PCD__) 
.................... float48 cosh(float48 x) 
.................... { 
....................    return ((exp(x)+exp(-x))/2); 
.................... } 
....................  
.................... // Overloaded function cosh() for data type - Float64 
.................... float64 cosh(float64 x) 
.................... { 
....................    return ((exp(x)+exp(-x))/2); 
.................... } 
.................... #endif 
....................  
.................... //////////////////////////////////////////////////////////////////////////// 
.................... //   float sinh(float x) 
.................... //////////////////////////////////////////////////////////////////////////// 
.................... // Description : Computes the hyperbolic sine value of x 
.................... // Returns : returns the hyperbolic sine value of x 
.................... // Date : N/A 
.................... // 
....................  
.................... float32 sinh(float32 x) 
.................... { 
....................  
....................    return ((exp(x) - exp(-x))/2); 
.................... } 
.................... //Overloaded functions for sinh() for PCD 
.................... // Overloaded function sinh() for data type - Float48 
.................... #if defined(__PCD__) 
.................... float48 sinh(float48 x) 
.................... { 
....................  
....................    return ((exp(x) - exp(-x))/2); 
.................... } 
....................  
.................... // Overloaded function sinh() for data type - Float48 
.................... float64 sinh(float64 x) 
.................... { 
....................  
....................    return ((exp(x) - exp(-x))/2); 
.................... } 
.................... #endif 
....................  
.................... //////////////////////////////////////////////////////////////////////////// 
.................... //   float tanh(float x) 
.................... //////////////////////////////////////////////////////////////////////////// 
.................... // Description : Computes the hyperbolic tangent value of x 
.................... // Returns : returns the hyperbolic tangent value of x 
.................... // Date : N/A 
.................... // 
....................  
.................... float32 tanh(float32 x) 
.................... { 
....................    return(sinh(x)/cosh(x)); 
.................... } 
.................... //Overloaded functions for tanh() for PCD 
.................... // Overloaded function tanh() for data type - Float48 
.................... #if defined(__PCD__) 
.................... float48 tanh(float48 x) 
.................... { 
....................    return(sinh(x)/cosh(x)); 
.................... } 
....................  
.................... // Overloaded function tanh() for data type - Float64 
.................... float64 tanh(float64 x) 
.................... { 
....................    return(sinh(x)/cosh(x)); 
.................... } 
.................... #endif 
....................  
.................... //////////////////////////////////////////////////////////////////////////// 
.................... //   float frexp(float x, signed int *exp) 
.................... //////////////////////////////////////////////////////////////////////////// 
.................... // Description : breaks a floating point number into a normalized fraction and an integral 
.................... // power of 2. It stores the integer in the signed int object pointed to by exp. 
.................... // Returns : returns the value x, such that x is a double with magnitude in the interval 
.................... // [1/2,1) or zero, and value equals x times 2 raised to the power *exp.If value is zero, 
.................... // both parts of the result are zero. 
.................... // Date : N/A 
.................... // 
....................  
.................... #define LOG2 .30102999566398119521 
.................... float32 frexp(float32 x, signed int8 *exp) 
.................... { 
....................    float32 res; 
....................    int1 sign = 0; 
....................    if(x == 0.0) 
....................    { 
....................       *exp=0; 
....................       return (0.0); 
....................    } 
....................    if(x < 0.0) 
....................    { 
....................      x=-x; 
....................      sign=1; 
....................    } 
....................    if (x > 1.0) 
....................    { 
....................       *exp=(ceil(log10(x)/LOG2)); 
....................       res=x/(pow(2, *exp)); 
....................       if (res == 1) 
....................       { 
....................          *exp=*exp+1; 
....................           res=.5; 
....................       } 
....................    } 
....................    else 
....................    { 
....................       if(x < 0.5) 
....................       { 
....................          *exp=-1; 
....................          res=x*2; 
....................       } 
....................       else 
....................       { 
....................          *exp=0; 
....................           res=x; 
....................       } 
....................    } 
....................    if(sign) 
....................    { 
....................       res=-res; 
....................    } 
....................    return res; 
.................... } 
....................  
.................... //Overloaded functions for frexp() for PCD 
.................... // Overloaded function frexp() for data type - Float48 
.................... #if defined(__PCD__) 
.................... float48 frexp(float48 x, signed int8 *exp) 
.................... { 
....................    float48 res; 
....................    int1 sign = 0; 
....................    if(x == 0.0) 
....................    { 
....................       *exp=0; 
....................       return (0.0); 
....................    } 
....................    if(x < 0.0) 
....................    { 
....................      x=-x; 
....................      sign=1; 
....................    } 
....................    if (x > 1.0) 
....................    { 
....................       *exp=(ceil(log10(x)/LOG2)); 
....................       res=x/(pow(2, *exp)); 
....................       if (res == 1) 
....................       { 
....................          *exp=*exp+1; 
....................           res=.5; 
....................       } 
....................    } 
....................    else 
....................    { 
....................       if(x < 0.5) 
....................       { 
....................          *exp=-1; 
....................          res=x*2; 
....................       } 
....................       else 
....................       { 
....................          *exp=0; 
....................           res=x; 
....................       } 
....................    } 
....................    if(sign) 
....................    { 
....................       res=-res; 
....................    } 
....................    return res; 
.................... } 
....................  
.................... // Overloaded function frexp() for data type - Float64 
.................... float64 frexp(float64 x, signed int8 *exp) 
.................... { 
....................    float64 res; 
....................    int1 sign = 0; 
....................    if(x == 0.0) 
....................    { 
....................       *exp=0; 
....................       return (0.0); 
....................    } 
....................    if(x < 0.0) 
....................    { 
....................      x=-x; 
....................      sign=1; 
....................    } 
....................    if (x > 1.0) 
....................    { 
....................       *exp=(ceil(log10(x)/LOG2)); 
....................       res=x/(pow(2, *exp)); 
....................       if (res == 1) 
....................       { 
....................          *exp=*exp+1; 
....................           res=.5; 
....................       } 
....................    } 
....................    else 
....................    { 
....................       if(x < 0.5) 
....................       { 
....................          *exp=-1; 
....................          res=x*2; 
....................       } 
....................       else 
....................       { 
....................          *exp=0; 
....................           res=x; 
....................       } 
....................    } 
....................    if(sign) 
....................    { 
....................       res=-res; 
....................    } 
....................    return res; 
.................... } 
.................... #endif 
....................  
.................... ////////////////////////////////////////////////////////////////////////////// 
.................... //   float ldexp(float x, signed int *exp) 
.................... ////////////////////////////////////////////////////////////////////////////// 
.................... // Description : multiplies a floating point number by an integral power of 2. 
.................... // Returns : returns the value of x times 2 raised to the power exp. 
.................... // Date : N/A 
.................... // 
....................  
.................... float32 ldexp(float32 value, signed int8 exp) 
.................... { 
....................    return (value * pow(2,exp)); 
.................... } 
.................... //Overloaded functions for ldexp() for PCD 
.................... // Overloaded function ldexp() for data type - Float48 
....................  
.................... #if defined(__PCD__) 
.................... float48 ldexp(float48 value, signed int8 exp) 
.................... { 
....................    return (value * pow(2,exp)); 
.................... } 
.................... // Overloaded function ldexp() for data type - Float64 
.................... float64 ldexp(float64 value, signed int8 exp) 
.................... { 
....................    return (value * pow(2,exp)); 
.................... } 
.................... #endif 
....................  
.................... #endif 
....................  
.................... #include <stdio.h> 
.................... /////////////////////////////////////////////////////////////////////////// 
.................... ////        (C) Copyright 1996,2003 Custom Computer Services           //// 
.................... //// This source code may only be used by licensed users of the CCS C  //// 
.................... //// compiler.  This source code may only be distributed to other      //// 
.................... //// licensed users of the CCS C compiler.  No other use, reproduction //// 
.................... //// or distribution is permitted without written permission.          //// 
.................... //// Derivative programs created using this software in object code    //// 
.................... //// form are not restricted in any way.                               //// 
.................... /////////////////////////////////////////////////////////////////////////// 
....................  
.................... #ifndef _STDIO 
.................... #define _STDIO 
.................... #include <string.h> 
.................... //////////////////////////////////////////////////////////////////////////// 
.................... ////        (C) Copyright 1996,2008 Custom Computer Services            //// 
.................... //// This source code may only be used by licensed users of the CCS C   //// 
.................... //// compiler.  This source code may only be distributed to other       //// 
.................... //// licensed users of the CCS C compiler.  No other use, reproduction  //// 
.................... //// or distribution is permitted without written permission.           //// 
.................... //// Derivative programs created using this software in object code     //// 
.................... //// form are not restricted in any way.                                //// 
.................... //////////////////////////////////////////////////////////////////////////// 
....................  
.................... #ifndef _STRING 
.................... #define _STRING 
.................... #include <stddef.h> 
.................... /////////////////////////////////////////////////////////////////////////// 
.................... ////        (C) Copyright 1996,2003 Custom Computer Services           //// 
.................... //// This source code may only be used by licensed users of the CCS C  //// 
.................... //// compiler.  This source code may only be distributed to other      //// 
.................... //// licensed users of the CCS C compiler.  No other use, reproduction //// 
.................... //// or distribution is permitted without written permission.          //// 
.................... //// Derivative programs created using this software in object code    //// 
.................... //// form are not restricted in any way.                               //// 
.................... /////////////////////////////////////////////////////////////////////////// 
....................  
.................... #ifndef _STDDEF 
....................  
.................... #define _STDDEF 
....................  
.................... #if sizeof(unsigned int8 *)==1 
.................... #define ptrdiff_t unsigned int8 
.................... #else 
.................... #define ptrdiff_t unsigned int16 
.................... #endif 
....................  
.................... #define size_t unsigned int8 
.................... #define wchar_t char 
.................... #define NULL 0 
....................  
.................... #define offsetof(s,f) (offsetofbit(s,f)/8) 
....................  
.................... #endif 
....................  
.................... #include <ctype.h> 
.................... //////////////////////////////////////////////////////////////////////////// 
.................... ////        (C) Copyright 1996,2003 Custom Computer Services            //// 
.................... //// This source code may only be used by licensed users of the CCS C   //// 
.................... //// compiler.  This source code may only be distributed to other       //// 
.................... //// licensed users of the CCS C compiler.  No other use, reproduction  //// 
.................... //// or distribution is permitted without written permission.           //// 
.................... //// Derivative programs created using this software in object code     //// 
.................... //// form are not restricted in any way.                                //// 
.................... //////////////////////////////////////////////////////////////////////////// 
....................  
.................... #ifndef _CTYPE 
.................... #define _CTYPE 
....................  
.................... #define islower(x)  isamong(x,"abcdefghijklmnopqrstuvwxyz") 
.................... #define isupper(x)  isamong(x,"ABCDEFGHIJKLMNOPQRSTUVWXYZ") 
.................... #define isalnum(x)  isamong(x,"0123456789ABCDEFGHIJKLMNOPQRSTUVWXYZabcdefghijklmnopqrstuvwxyz") 
.................... #define isalpha(x)  isamong(x,"ABCDEFGHIJKLMNOPQRSTUVWXYZabcdefghijklmnopqrstuvwxyz") 
.................... #define isdigit(x)  isamong(x,"0123456789") 
.................... #define isspace(x)  ((x)==' ') 
.................... #define isxdigit(x) isamong(x,"0123456789ABCDEFabcdef") 
.................... #define iscntrl(x)  ((x)<' ') 
.................... #define isprint(x)  ((x)>=' ') 
.................... #define isgraph(x)  ((x)>' ') 
.................... #define ispunct(x)  (((x)>' ')&&!isalnum(x)) 
....................  
.................... #endif 
....................  
....................  
....................  
....................  
....................  
.................... ////////////////////////////////////////////// 
.................... //// Uncomment the following define to    //// 
.................... //// allow some functions to use a        //// 
.................... //// quicker algorithm, but use more ROM  //// 
.................... ////                                      //// 
.................... //// #define FASTER_BUT_MORE_ROM          //// 
.................... ////////////////////////////////////////////// 
....................  
....................  
....................  
.................... /*Copying functions*/ 
.................... /* standard template: 
....................    void *memmove(void *s1, void *s2, size_t n). 
....................    Copies max of n characters safely (not following ending '\0') 
....................    from s2 in s1; if s2 has less than n characters, appends 0 */ 
....................  
.................... char *memmove(void *s1,char *s2,size_t n) 
.................... { 
....................    char *sc1; 
....................    char *sc2; 
....................    sc1=s1; 
....................    sc2=s2; 
....................    if(sc2<sc1 && sc1 <sc2 +n) 
....................       for(sc1+=n,sc2+=n;0<n;--n) 
....................          *--sc1=*--sc2; 
....................    else 
....................       for(;0<n;--n) 
....................          *sc1++=*sc2++; 
....................   return s1; 
....................   } 
....................  
.................... /* Standard template: char *strcpy(char *s1, const char *s2) 
....................    copies the string s2 including the null character to s1. 
....................    This is a compiler built in to handle the different address 
....................    spaces */ 
....................  
.................... #define strcopy strcpy 
....................  
.................... /* standard template: 
....................    char *strncpy(char *s1, const char *s2, size_t n). 
....................    Copies max of n characters (not following ending '\0') 
....................    from s2 in s1; if s2 has less than n characters, appends 0 */ 
....................  
.................... char *strncpy(char *s1, char *s2, size_t n) 
.................... { 
....................   char *s; 
....................  
....................   for (s = s1; n > 0 && *s2 != '\0'; n--) 
....................      *s++ = *s2++; 
....................   for (; n > 0; n--) 
....................      *s++ = '\0'; 
....................  
....................   return(s1); 
.................... } 
.................... /***********************************************************/ 
....................  
.................... /*concatenation functions*/ 
.................... /* standard template: char *strcat(char *s1, const char *s2) 
.................... appends s2 to s1*/ 
....................  
.................... char *strcat(char *s1, char *s2) 
.................... { 
....................    char *s; 
....................  
....................    for (s = s1; *s != '\0'; ++s); 
....................    while(*s2 != '\0') 
....................    { 
....................       *s = *s2; 
....................       ++s; 
....................       ++s2; 
....................    } 
....................  
....................    *s = '\0'; 
....................    return(s1); 
.................... } 
.................... /* standard template: char *strncat(char *s1, char *s2,size_t n) 
.................... appends not more than n characters from s2 to s1*/ 
....................  
.................... char *strncat(char *s1, char *s2, size_t n) 
.................... { 
....................    char *s; 
....................  
....................    for (s = s1; *s != '\0'; ++s); 
....................    while(*s2 != '\0' && 0<n) 
....................    { 
....................       *s = *s2; 
....................       ++s; 
....................       ++s2; 
....................       --n; 
....................    } 
....................  
....................    *s = '\0'; 
....................    return(s1); 
.................... } 
....................  
.................... /***********************************************************/ 
....................  
....................  
.................... /*comparison functions*/ 
.................... /* standard template: signed int memcmp(void *s1, void *s2). 
....................    Compares s1 & s2; returns -1 if s1<s2, 0 if s1=s2, 1 if s1>s2 */ 
....................  
.................... signed int8 memcmp(void * s1,char *s2,size_t n) 
.................... { 
.................... char *su1, *su2; 
.................... for(su1=s1, su2=s2; 0<n; ++su1, ++su2, --n) 
.................... { 
....................    if(*su1!=*su2) 
....................       return ((*su1<*su2)?-1:+1); 
.................... } 
.................... return 0; 
.................... } 
....................  
.................... /* standard template: int strcmp(const char *s1, const char *s2). 
....................    Compares s1 & s2; returns -1 if s1<s2, 0 if s1=s2, 1 if s1>s2 */ 
....................  
.................... signed int8 strcmp(char *s1, char *s2) 
.................... { 
....................    for (; *s1 == *s2; s1++, s2++) 
....................       if (*s1 == '\0') 
....................          return(0); 
....................    return((*s1 < *s2) ? -1: 1); 
.................... } 
.................... /* standard template: int strcoll(const char *s1, const char *s2). 
....................    Compares s1 & s2; returns -1 if s1<s2, 0 if s1=s2, 1 if s1>s2 */ 
....................  
.................... signed int8 strcoll(char *s1, char *s2) 
.................... { 
....................    for (; *s1 == *s2; s1++, s2++) 
....................       if (*s1 == '\0') 
....................          return(0); 
....................    return((*s1 < *s2) ? -1: 1); 
.................... } 
....................  
.................... /* standard template: 
....................    int strncmp(const char *s1, const char *s2, size_t n). 
....................    Compares max of n characters (not following 0) from s1 to s2; 
....................    returns same as strcmp */ 
....................  
.................... signed int8 strncmp(char *s1, char *s2, size_t n) 
.................... { 
....................    for (; n > 0; s1++, s2++, n--) 
....................       if (*s1 != *s2) 
....................          return((*s1 <*s2) ? -1: 1); 
....................       else if (*s1 == '\0') 
....................          return(0); 
....................    return(0); 
.................... } 
.................... /* standard template: 
....................    int strxfrm(const char *s1, const char *s2, size_t n). 
....................    transforms maximum of n characters from s2 and places them into s1*/ 
.................... size_t strxfrm(char *s1, char *s2, size_t n) 
.................... { 
....................   char *s; 
....................   unsigned int8 n1; 
....................   n1=n; 
....................   for (s = s1; n > 0 && *s2 != '\0'; n--) 
....................      *s++ = *s2++; 
....................   for (; n > 0; n--) 
....................      *s++ = '\0'; 
....................  
....................   return(n1); 
.................... } 
....................  
....................  
....................  
....................  
....................  
.................... /***********************************************************/ 
.................... /*Search functions*/ 
.................... /* standard template: void *memchr(const char *s, int c). 
....................    Finds first occurrence of c in n characters of s */ 
....................  
.................... char *memchr(void *s,unsigned int8 c,size_t n) 
.................... { 
....................    char uc; 
....................    char *su; 
....................    uc=c; 
....................    for(su=s;0<n;++su,--n) 
....................       if(*su==uc) 
....................       return su; 
....................    return NULL; 
.................... } 
....................  
.................... /* standard template: char *strchr(const char *s, int c). 
....................    Finds first occurrence of c in s */ 
....................  
.................... char *strchr(char *s, unsigned int8 c) 
.................... { 
....................    for (; *s != c; s++) 
....................       if (*s == '\0') 
....................          return(0); 
....................    return(s); 
.................... } 
.................... /* standard template: 
....................    size_t strcspn(const char *s1, const char *s2). 
....................    Computes length of max initial segment of s1 that 
....................    consists entirely of characters NOT from s2*/ 
....................  
.................... unsigned int8  strcspn(char *s1, char *s2) 
.................... { 
....................    char *sc1, *sc2; 
....................  
....................    for (sc1 = s1; *sc1 != 0; sc1++) 
....................       for (sc2 = s2; *sc2 != 0; sc2++) 
....................          if (*sc1 == *sc2) 
....................             return(sc1 - s1); 
....................    return(sc1 - s1); 
.................... } 
.................... /* standard template: 
....................    char *strpbrk(const char *s1, const char *s2). 
....................    Locates first occurence of any character from s2 in s1; 
....................    returns s1 if s2 is empty string */ 
....................  
.................... char *strpbrk(char *s1, char *s2) 
.................... { 
....................    char *sc1, *sc2; 
....................  
....................    for (sc1 = s1; *sc1 != 0; sc1++) 
....................       for (sc2 = s2; *sc2 != 0; sc2++) 
....................          if (*sc1 == *sc2) 
....................             return(sc1); 
....................    return(0); 
.................... } 
....................  
....................  
.................... /* standard template: char *strrchr(const char *s, int c). 
....................    Finds last occurrence of c in s */ 
....................  
.................... char *strrchr(char *s, unsigned int8 c) 
.................... { 
....................    char *p; 
....................  
....................    for (p = 0; ; s++) 
....................    { 
....................       if (*s == c) 
....................          p = s; 
....................       if (*s == '\0') 
....................          return(p); 
....................    } 
.................... } 
.................... /* computes length of max initial segment of s1 consisting 
....................    entirely of characters from s2 */ 
....................  
.................... unsigned int8  strspn(char *s1, char *s2) 
.................... { 
....................    char *sc1, *sc2; 
....................  
....................    for (sc1 = s1; *sc1 != 0; sc1++) 
....................       for (sc2 = s2; ; sc2++) 
....................     if (*sc2 == '\0') 
....................        return(sc1 - s1); 
....................          else if (*sc1 == *sc2) 
....................             break; 
....................    return(sc1 - s1); 
.................... } 
.................... /* standard template: 
....................    char *strstr(const char *s1, const char *s2); 
....................    Locates first occurence of character sequence s2 in s1; 
....................    returns 0 if s2 is empty string 
....................  
....................    Uncomment #define FASTER_BUT_MORE_ROM at the top of the 
....................    file to use the faster algorithm */ 
.................... char *strstr(char *s1, char *s2) 
.................... { 
....................    char *s, *t; 
....................  
....................    #ifdef FASTER_BUT_MORE_ROM 
....................    if (*s2 == '\0') 
....................          return(s1); 
....................    #endif 
....................  
....................    while (*s1) 
....................    { 
....................       for(s = s1, t = s2; *t && (*s == *t); ++s, ++t); 
....................  
....................       if (*t == '\0') 
....................          return s1; 
....................       ++s1; 
....................       #ifdef FASTER_BUT_MORE_ROM 
....................          while(*s1 != '\0' && *s1 != *s2) 
....................             ++s1; 
....................       #endif 
....................    } 
....................    return 0; 
.................... } 
....................  
.................... /* standard template: char *strtok(char *s1, const char *s2). 
....................  
....................    Finds next token in s1 delimited by a character from separator 
....................    string s2 (which can be different from call to call).  First call 
....................    starts at beginning of s1 searching for first character NOT 
....................    contained in s2; returns 0 if none is found. 
....................    If one is found, it is the start of first token (return value). 
....................    Function then searches from there for a character contained in s2. 
....................    If none is found, current token extends to end of s1, and subsequent 
....................    searches for a token will return 0.  If one is found, it is 
....................    overwritten by '\0', which terminates current token.  Function saves 
....................    pointer to following character from which next search will start. 
....................    Each subsequent call, with 0 as first argument, starts searching 
....................    from saved pointer */ 
....................  
.................... char *strtok(char *s1, char *s2) 
.................... { 
....................    char *beg, *end; 
....................    static char *save; 
....................  
....................    beg = (s1)? s1: save; 
....................    beg += strspn(beg, s2); 
....................    if (*beg == '\0') 
....................    { 
....................       *save = ' '; 
....................       return(0); 
....................    } 
....................    end = strpbrk(beg, s2); 
....................    if (*end != '\0') 
....................    { 
....................       *end = '\0'; 
....................       end++; 
....................    } 
....................    save = end; 
....................    return(beg); 
.................... } 
....................  
.................... /*****************************************************************/ 
.................... /*Miscellaneous functions*/ 
.................... /* standard template 
.................... maps error number in errnum to an error message string 
.................... Returns: Pointer to string 
.................... */ 
.................... #ifdef _ERRNO 
.................... char * strerror(unsigned int8 errnum) 
.................... { 
.................... char s[15]; 
.................... switch( errnum) 
.................... { 
.................... case 0: 
....................    strcpy(s,"no errors"); 
....................    return s; 
.................... case EDOM : 
....................    strcpy(s,"domain error"); 
....................    return s; 
.................... case ERANGE: 
....................    strcpy(s,"range error"); 
....................    return s; 
.................... } 
.................... } 
.................... #ENDIF 
.................... /* standard template: size_t strlen(const char *s). 
....................    Computes length of s1 (preceding terminating 0) */ 
....................  
.................... unsigned int8 strlen(char *s) 
.................... { 
....................    char *sc; 
....................  
....................    for (sc = s; *sc != 0; sc++); 
....................    return(sc - s); 
.................... } 
....................  
.................... /* standard template: size_t stricmp(const char *s1, const char *s2). 
....................    Compares s1 to s2 ignoring case (upper vs. lower) */ 
....................  
.................... signed int8 stricmp(char *s1, char *s2) 
.................... { 
....................  for(; *s1==*s2||(isalpha(*s1)&&isalpha(*s2)&&(*s1==*s2+32||*s2==*s1+32)); 
....................     s1++, s2++) 
....................     if (*s1 == '\0') 
....................        return(0); 
....................  return((*s1 < *s2) ? -1: 1); 
.................... } 
....................  
....................  
.................... /* standard template: char *strlwr(char *s). 
....................    Replaces uppercase letters by lowercase; 
....................    returns pointer to new string s */ 
....................  
.................... char *strlwr(char *s) 
.................... { 
....................    char *p; 
....................  
....................    for (p = s; *p != '\0'; p++) 
....................       if (*p >= 'A' && *p <='Z') 
....................          *p += 'a' - 'A'; 
....................    return(s); 
.................... } 
....................  
....................  
.................... /************************************************************/ 
....................  
....................  
.................... #endif 
....................  
.................... #ifndef getc 
.................... #define getc getch 
.................... #define getchar getch 
.................... #define puts(s) {printf(s); putchar(13); putchar(10);} 
.................... #define putc putchar 
.................... #endif 
.................... /* maps error number to an error message. Writes a sequence of characters to 
.................... stderr stream thus: if s is not null then string pointed to by s follwed by 
.................... a colon (:) and a space and the appropriate error message returned by strerror 
.................... function with argument errno 
....................  
.................... Returns: no value 
.................... */ 
....................  
.................... #ifdef _ERRNO 
.................... void perror(char *s) 
.................... { 
....................   if(s) 
....................   fprintf(STDERR,"%s: ",s); 
....................   fprintf(STDERR,"%s\r\n",strerror(errno)); 
.................... } 
.................... #endif 
.................... #endif 
....................  
.................... #include <string.h> 
.................... //////////////////////////////////////////////////////////////////////////// 
.................... ////        (C) Copyright 1996,2008 Custom Computer Services            //// 
.................... //// This source code may only be used by licensed users of the CCS C   //// 
.................... //// compiler.  This source code may only be distributed to other       //// 
.................... //// licensed users of the CCS C compiler.  No other use, reproduction  //// 
.................... //// or distribution is permitted without written permission.           //// 
.................... //// Derivative programs created using this software in object code     //// 
.................... //// form are not restricted in any way.                                //// 
.................... //////////////////////////////////////////////////////////////////////////// 
....................  
.................... #ifndef _STRING 
.................... #define _STRING 
.................... #include <stddef.h> 
.................... #include <ctype.h> 
....................  
....................  
....................  
.................... ////////////////////////////////////////////// 
.................... //// Uncomment the following define to    //// 
.................... //// allow some functions to use a        //// 
.................... //// quicker algorithm, but use more ROM  //// 
.................... ////                                      //// 
.................... //// #define FASTER_BUT_MORE_ROM          //// 
.................... ////////////////////////////////////////////// 
....................  
....................  
....................  
.................... /*Copying functions*/ 
.................... /* standard template: 
....................    void *memmove(void *s1, void *s2, size_t n). 
....................    Copies max of n characters safely (not following ending '\0') 
....................    from s2 in s1; if s2 has less than n characters, appends 0 */ 
....................  
.................... char *memmove(void *s1,char *s2,size_t n) 
.................... { 
....................    char *sc1; 
....................    char *sc2; 
....................    sc1=s1; 
....................    sc2=s2; 
....................    if(sc2<sc1 && sc1 <sc2 +n) 
....................       for(sc1+=n,sc2+=n;0<n;--n) 
....................          *--sc1=*--sc2; 
....................    else 
....................       for(;0<n;--n) 
....................          *sc1++=*sc2++; 
....................   return s1; 
....................   } 
....................  
.................... /* Standard template: char *strcpy(char *s1, const char *s2) 
....................    copies the string s2 including the null character to s1. 
....................    This is a compiler built in to handle the different address 
....................    spaces */ 
....................  
.................... #define strcopy strcpy 
....................  
.................... /* standard template: 
....................    char *strncpy(char *s1, const char *s2, size_t n). 
....................    Copies max of n characters (not following ending '\0') 
....................    from s2 in s1; if s2 has less than n characters, appends 0 */ 
....................  
.................... char *strncpy(char *s1, char *s2, size_t n) 
.................... { 
....................   char *s; 
....................  
....................   for (s = s1; n > 0 && *s2 != '\0'; n--) 
....................      *s++ = *s2++; 
....................   for (; n > 0; n--) 
....................      *s++ = '\0'; 
....................  
....................   return(s1); 
.................... } 
.................... /***********************************************************/ 
....................  
.................... /*concatenation functions*/ 
.................... /* standard template: char *strcat(char *s1, const char *s2) 
.................... appends s2 to s1*/ 
....................  
.................... char *strcat(char *s1, char *s2) 
.................... { 
....................    char *s; 
....................  
....................    for (s = s1; *s != '\0'; ++s); 
....................    while(*s2 != '\0') 
....................    { 
....................       *s = *s2; 
....................       ++s; 
....................       ++s2; 
....................    } 
....................  
....................    *s = '\0'; 
....................    return(s1); 
.................... } 
.................... /* standard template: char *strncat(char *s1, char *s2,size_t n) 
.................... appends not more than n characters from s2 to s1*/ 
....................  
.................... char *strncat(char *s1, char *s2, size_t n) 
.................... { 
....................    char *s; 
....................  
....................    for (s = s1; *s != '\0'; ++s); 
....................    while(*s2 != '\0' && 0<n) 
....................    { 
....................       *s = *s2; 
....................       ++s; 
....................       ++s2; 
....................       --n; 
....................    } 
....................  
....................    *s = '\0'; 
....................    return(s1); 
.................... } 
....................  
.................... /***********************************************************/ 
....................  
....................  
.................... /*comparison functions*/ 
.................... /* standard template: signed int memcmp(void *s1, void *s2). 
....................    Compares s1 & s2; returns -1 if s1<s2, 0 if s1=s2, 1 if s1>s2 */ 
....................  
.................... signed int8 memcmp(void * s1,char *s2,size_t n) 
.................... { 
.................... char *su1, *su2; 
.................... for(su1=s1, su2=s2; 0<n; ++su1, ++su2, --n) 
.................... { 
....................    if(*su1!=*su2) 
....................       return ((*su1<*su2)?-1:+1); 
.................... } 
.................... return 0; 
.................... } 
....................  
.................... /* standard template: int strcmp(const char *s1, const char *s2). 
....................    Compares s1 & s2; returns -1 if s1<s2, 0 if s1=s2, 1 if s1>s2 */ 
....................  
.................... signed int8 strcmp(char *s1, char *s2) 
.................... { 
....................    for (; *s1 == *s2; s1++, s2++) 
....................       if (*s1 == '\0') 
....................          return(0); 
....................    return((*s1 < *s2) ? -1: 1); 
.................... } 
.................... /* standard template: int strcoll(const char *s1, const char *s2). 
....................    Compares s1 & s2; returns -1 if s1<s2, 0 if s1=s2, 1 if s1>s2 */ 
....................  
.................... signed int8 strcoll(char *s1, char *s2) 
.................... { 
....................    for (; *s1 == *s2; s1++, s2++) 
....................       if (*s1 == '\0') 
....................          return(0); 
....................    return((*s1 < *s2) ? -1: 1); 
.................... } 
....................  
.................... /* standard template: 
....................    int strncmp(const char *s1, const char *s2, size_t n). 
....................    Compares max of n characters (not following 0) from s1 to s2; 
....................    returns same as strcmp */ 
....................  
.................... signed int8 strncmp(char *s1, char *s2, size_t n) 
.................... { 
....................    for (; n > 0; s1++, s2++, n--) 
....................       if (*s1 != *s2) 
....................          return((*s1 <*s2) ? -1: 1); 
....................       else if (*s1 == '\0') 
....................          return(0); 
....................    return(0); 
.................... } 
.................... /* standard template: 
....................    int strxfrm(const char *s1, const char *s2, size_t n). 
....................    transforms maximum of n characters from s2 and places them into s1*/ 
.................... size_t strxfrm(char *s1, char *s2, size_t n) 
.................... { 
....................   char *s; 
....................   unsigned int8 n1; 
....................   n1=n; 
....................   for (s = s1; n > 0 && *s2 != '\0'; n--) 
....................      *s++ = *s2++; 
....................   for (; n > 0; n--) 
....................      *s++ = '\0'; 
....................  
....................   return(n1); 
.................... } 
....................  
....................  
....................  
....................  
....................  
.................... /***********************************************************/ 
.................... /*Search functions*/ 
.................... /* standard template: void *memchr(const char *s, int c). 
....................    Finds first occurrence of c in n characters of s */ 
....................  
.................... char *memchr(void *s,unsigned int8 c,size_t n) 
.................... { 
....................    char uc; 
....................    char *su; 
....................    uc=c; 
....................    for(su=s;0<n;++su,--n) 
....................       if(*su==uc) 
....................       return su; 
....................    return NULL; 
.................... } 
....................  
.................... /* standard template: char *strchr(const char *s, int c). 
....................    Finds first occurrence of c in s */ 
....................  
.................... char *strchr(char *s, unsigned int8 c) 
.................... { 
....................    for (; *s != c; s++) 
....................       if (*s == '\0') 
....................          return(0); 
....................    return(s); 
.................... } 
.................... /* standard template: 
....................    size_t strcspn(const char *s1, const char *s2). 
....................    Computes length of max initial segment of s1 that 
....................    consists entirely of characters NOT from s2*/ 
....................  
.................... unsigned int8  strcspn(char *s1, char *s2) 
.................... { 
....................    char *sc1, *sc2; 
....................  
....................    for (sc1 = s1; *sc1 != 0; sc1++) 
....................       for (sc2 = s2; *sc2 != 0; sc2++) 
....................          if (*sc1 == *sc2) 
....................             return(sc1 - s1); 
....................    return(sc1 - s1); 
.................... } 
.................... /* standard template: 
....................    char *strpbrk(const char *s1, const char *s2). 
....................    Locates first occurence of any character from s2 in s1; 
....................    returns s1 if s2 is empty string */ 
....................  
.................... char *strpbrk(char *s1, char *s2) 
.................... { 
....................    char *sc1, *sc2; 
....................  
....................    for (sc1 = s1; *sc1 != 0; sc1++) 
....................       for (sc2 = s2; *sc2 != 0; sc2++) 
....................          if (*sc1 == *sc2) 
....................             return(sc1); 
....................    return(0); 
.................... } 
....................  
....................  
.................... /* standard template: char *strrchr(const char *s, int c). 
....................    Finds last occurrence of c in s */ 
....................  
.................... char *strrchr(char *s, unsigned int8 c) 
.................... { 
....................    char *p; 
....................  
....................    for (p = 0; ; s++) 
....................    { 
....................       if (*s == c) 
....................          p = s; 
....................       if (*s == '\0') 
....................          return(p); 
....................    } 
.................... } 
.................... /* computes length of max initial segment of s1 consisting 
....................    entirely of characters from s2 */ 
....................  
.................... unsigned int8  strspn(char *s1, char *s2) 
.................... { 
....................    char *sc1, *sc2; 
....................  
....................    for (sc1 = s1; *sc1 != 0; sc1++) 
....................       for (sc2 = s2; ; sc2++) 
....................     if (*sc2 == '\0') 
....................        return(sc1 - s1); 
....................          else if (*sc1 == *sc2) 
....................             break; 
....................    return(sc1 - s1); 
.................... } 
.................... /* standard template: 
....................    char *strstr(const char *s1, const char *s2); 
....................    Locates first occurence of character sequence s2 in s1; 
....................    returns 0 if s2 is empty string 
....................  
....................    Uncomment #define FASTER_BUT_MORE_ROM at the top of the 
....................    file to use the faster algorithm */ 
.................... char *strstr(char *s1, char *s2) 
.................... { 
....................    char *s, *t; 
....................  
....................    #ifdef FASTER_BUT_MORE_ROM 
....................    if (*s2 == '\0') 
....................          return(s1); 
....................    #endif 
....................  
....................    while (*s1) 
....................    { 
....................       for(s = s1, t = s2; *t && (*s == *t); ++s, ++t); 
....................  
....................       if (*t == '\0') 
....................          return s1; 
....................       ++s1; 
....................       #ifdef FASTER_BUT_MORE_ROM 
....................          while(*s1 != '\0' && *s1 != *s2) 
....................             ++s1; 
....................       #endif 
....................    } 
....................    return 0; 
.................... } 
....................  
.................... /* standard template: char *strtok(char *s1, const char *s2). 
....................  
....................    Finds next token in s1 delimited by a character from separator 
....................    string s2 (which can be different from call to call).  First call 
....................    starts at beginning of s1 searching for first character NOT 
....................    contained in s2; returns 0 if none is found. 
....................    If one is found, it is the start of first token (return value). 
....................    Function then searches from there for a character contained in s2. 
....................    If none is found, current token extends to end of s1, and subsequent 
....................    searches for a token will return 0.  If one is found, it is 
....................    overwritten by '\0', which terminates current token.  Function saves 
....................    pointer to following character from which next search will start. 
....................    Each subsequent call, with 0 as first argument, starts searching 
....................    from saved pointer */ 
....................  
.................... char *strtok(char *s1, char *s2) 
.................... { 
....................    char *beg, *end; 
....................    static char *save; 
....................  
....................    beg = (s1)? s1: save; 
....................    beg += strspn(beg, s2); 
....................    if (*beg == '\0') 
....................    { 
....................       *save = ' '; 
....................       return(0); 
....................    } 
....................    end = strpbrk(beg, s2); 
....................    if (*end != '\0') 
....................    { 
....................       *end = '\0'; 
....................       end++; 
....................    } 
....................    save = end; 
....................    return(beg); 
.................... } 
....................  
.................... /*****************************************************************/ 
.................... /*Miscellaneous functions*/ 
.................... /* standard template 
.................... maps error number in errnum to an error message string 
.................... Returns: Pointer to string 
.................... */ 
.................... #ifdef _ERRNO 
.................... char * strerror(unsigned int8 errnum) 
.................... { 
.................... char s[15]; 
.................... switch( errnum) 
.................... { 
.................... case 0: 
....................    strcpy(s,"no errors"); 
....................    return s; 
.................... case EDOM : 
....................    strcpy(s,"domain error"); 
....................    return s; 
.................... case ERANGE: 
....................    strcpy(s,"range error"); 
....................    return s; 
.................... } 
.................... } 
.................... #ENDIF 
.................... /* standard template: size_t strlen(const char *s). 
....................    Computes length of s1 (preceding terminating 0) */ 
....................  
.................... unsigned int8 strlen(char *s) 
.................... { 
....................    char *sc; 
....................  
....................    for (sc = s; *sc != 0; sc++); 
....................    return(sc - s); 
.................... } 
....................  
.................... /* standard template: size_t stricmp(const char *s1, const char *s2). 
....................    Compares s1 to s2 ignoring case (upper vs. lower) */ 
....................  
.................... signed int8 stricmp(char *s1, char *s2) 
.................... { 
....................  for(; *s1==*s2||(isalpha(*s1)&&isalpha(*s2)&&(*s1==*s2+32||*s2==*s1+32)); 
....................     s1++, s2++) 
....................     if (*s1 == '\0') 
....................        return(0); 
....................  return((*s1 < *s2) ? -1: 1); 
.................... } 
....................  
....................  
.................... /* standard template: char *strlwr(char *s). 
....................    Replaces uppercase letters by lowercase; 
....................    returns pointer to new string s */ 
....................  
.................... char *strlwr(char *s) 
.................... { 
....................    char *p; 
....................  
....................    for (p = s; *p != '\0'; p++) 
....................       if (*p >= 'A' && *p <='Z') 
....................          *p += 'a' - 'A'; 
....................    return(s); 
.................... } 
....................  
....................  
.................... /************************************************************/ 
....................  
....................  
.................... #endif 
....................  
.................... #include <stdlib.h> 
.................... /////////////////////////////////////////////////////////////////////////// 
.................... ////        (C) Copyright 1996,2007 Custom Computer Services           //// 
.................... //// This source code may only be used by licensed users of the CCS C  //// 
.................... //// compiler.  This source code may only be distributed to other      //// 
.................... //// licensed users of the CCS C compiler.  No other use, reproduction //// 
.................... //// or distribution is permitted without written permission.          //// 
.................... //// Derivative programs created using this software in object code    //// 
.................... //// form are not restricted in any way.                               //// 
.................... /////////////////////////////////////////////////////////////////////////// 
....................  
.................... #ifndef _STDLIB 
.................... #define _STDLIB 
....................  
.................... //--------------------------------------------------------------------------- 
.................... // Definitions and types 
.................... //--------------------------------------------------------------------------- 
....................  
.................... #ifndef RAND_MAX 
.................... #define RAND_MAX  32767    // The value of which is the maximum value 
....................                            // ... returned by the rand function 
.................... #endif 
....................  
....................  
.................... #IF (sizeof(int16*)>1) 
.................... #DEFINE LONG_POINTERS 1 
.................... #ELSE  
.................... #DEFINE LONG_POINTERS 0 
.................... #ENDIF 
....................  
.................... typedef struct { 
....................    signed int quot; 
....................    signed int rem; 
.................... } div_t; 
....................  
.................... typedef struct { 
....................    signed long quot; 
....................    signed long rem; 
.................... } ldiv_t; 
....................  
.................... #include <stddef.h> 
.................... /////////////////////////////////////////////////////////////////////////// 
.................... ////        (C) Copyright 1996,2003 Custom Computer Services           //// 
.................... //// This source code may only be used by licensed users of the CCS C  //// 
.................... //// compiler.  This source code may only be distributed to other      //// 
.................... //// licensed users of the CCS C compiler.  No other use, reproduction //// 
.................... //// or distribution is permitted without written permission.          //// 
.................... //// Derivative programs created using this software in object code    //// 
.................... //// form are not restricted in any way.                               //// 
.................... /////////////////////////////////////////////////////////////////////////// 
....................  
.................... #ifndef _STDDEF 
....................  
.................... #define _STDDEF 
....................  
.................... #if sizeof(unsigned int8 *)==1 
.................... #define ptrdiff_t unsigned int8 
.................... #else 
.................... #define ptrdiff_t unsigned int16 
.................... #endif 
....................  
.................... #define size_t unsigned int8 
.................... #define wchar_t char 
.................... #define NULL 0 
....................  
.................... #define offsetof(s,f) (offsetofbit(s,f)/8) 
....................  
.................... #endif 
....................  
....................  
.................... //--------------------------------------------------------------------------- 
.................... // String conversion functions 
.................... //--------------------------------------------------------------------------- 
....................  
.................... /* Standard template: signed int  atoi(char * s) 
....................  * converts the initial portion of the string s to a signed int 
....................  * returns the converted value if any, 0 otherwise 
....................  */ 
.................... signed int atoi(char *s); 
....................  
.................... /* Syntax: signed int32  atoi32(char * s) 
....................    converts the initial portion of the string s to a signed int32 
....................    returns the converted value if any, 0 otherwise*/ 
.................... #if (sizeof(long)==4) 
....................  #define atoi32(s) atol(s) 
.................... #else  
....................  signed int32 atoi32(char *s); 
.................... #endif 
....................  
.................... #if defined(__PCD__) 
.................... // The following functions only work on the 24 bit compiler 
.................... // for the 30F, 33F, 24F and 24H parts 
.................... /* Syntax: signed int48  atoi48(char * s) 
....................    converts the initial portion of the string s to a signed int48 
....................    returns the converted value if any, 0 otherwise*/ 
....................     
.................... signed int48 atoi48(char *s); 
....................  
.................... /* Syntax: signed int64  atoi64(char * s) 
....................    converts the initial portion of the string s to a signed int64 
....................    returns the converted value if any, 0 otherwise*/ 
.................... signed int64 atoi64(char *s); 
.................... #endif 
....................  
.................... /* Syntax: char *  itoa(signed int32 num, int8 base, char * s) 
....................    converts the signed int32 to a string and 
....................    returns the converted value if any, 0 otherwise*/ 
.................... char * itoa(signed int32 num, unsigned int base, char * s); 
....................  
.................... /* Standard template: signed int16  atol(char * s) 
....................  * converts the initial portion of the string s to a signed int16 
....................  * returns the converted value if any, 0 otherwise 
....................  */ 
.................... signed long atol(char *s); 
....................  
.................... /* Standard template: int16 strtoul(char * s,char *endptr,signed int base) 
....................  * converts the initial portion of the string s, represented as an 
....................  * integral value of radix base  to a signed long. 
....................  * Returns the converted value if any, 0 otherwise 
....................  * the final string is returned in the endptr, if endptr is not null 
....................  */ 
.................... signed long strtol(char *s,char *endptr, signed int base); 
....................  
.................... /* Standard template: int16 strtoul(char * s,char *endptr,signed int base) 
....................  * converts the initial portion of the string s, represented as an 
....................  * integral value of radix base to a unsigned long. 
....................  * returns the converted value if any, 0 otherwise 
....................  * the final string is returned in the endptr, if endptr is not null 
....................  */ 
.................... unsigned long strtoul(char *s,char *endptr, signed int base); 
....................  
.................... /* Standart template: float strtof(char * s,char *endptr) 
....................                       float48 strtof48(char *s,char *endptr); 
....................                       float64 strtod(char *s,char *endptr); 
....................  * converts the initial portion of the string s to a float32, float48 or float64, 
....................  * returns the converted value if any, 0 otherwise 
....................  * the final string is returned in the endptr, if endptr is not null                    
.................... */ 
.................... float strtof(char *s,char *endptr); 
.................... #if defined(__PCD__) 
.................... float48 strtof48(char *s,char *endptr); 
.................... float64 strtod(char *s,char *endptr); 
.................... #else 
.................... //provided for compatibility 
.................... #define strtof48(s, e) strtof(s, e) 
.................... #define strtod(s, e) strtof(s, e) 
.................... #endif 
....................  
.................... /* Standard template: float32 atof(char * s) 
....................  * converts the initial portion of the string s to a float. 
....................  * returns the converted value if any, 0 otherwise 
....................  */ 
.................... #define atof(s)   strtof(s, 0) 
....................  
.................... #if defined(__PCD__) 
.................... // The following functions only work on the 24 bit compiler 
.................... // for the 30F, 33F, 24F and 24H parts 
....................  
.................... /* Standard template: float48 atof48(char * s) 
....................  * converts the initial portion of the string s to a float. 
....................  * returns the converted value if any, 0 otherwise 
....................  */ 
.................... #define atof48(s) strtof48(s, 0) 
....................  
.................... /* Standard template: float64 atof64(char * s) 
....................  * converts the initial portion of the string s to a float. 
....................  * returns the converted value if any, 0 otherwise 
....................  */ 
.................... #define atof64(s) strtod(s, 0) 
.................... #endif 
....................  
.................... /* Standard template: float32 atoe(char * s) 
....................  * converts the initial portion of the string s to a float. 
....................  * returns the converted value if any, 0 otherwise 
....................  * also handles E format numbers 
....................  */ 
.................... #if !defined(__PCD__) 
.................... float atoe(char * s); 
.................... #endif 
....................  
.................... #if defined(__PCD__) 
.................... float32 atoe(char * s); 
.................... #endif 
....................  
.................... //--------------------------------------------------------------------------- 
.................... // Pseudo-random sequence generation functions 
.................... //--------------------------------------------------------------------------- 
....................  
.................... /* The rand function computes a sequence of pseudo-random integers in 
....................  * the range 0 to RAND_MAX 
....................  * 
....................  * Parameters: 
....................  *       (none) 
....................  * 
....................  * Returns: 
....................  *       The pseudo-random integer 
....................  */ 
.................... unsigned int16 rand(void); 
....................  
.................... /* The srand function uses the argument as a seed for a new sequence of 
....................  * pseudo-random numbers to be returned by subsequent calls to rand. 
....................  * 
....................  * Parameters: 
....................  *       [in] seed: The seed value to start from. You might need to pass 
....................  * 
....................  * Returns: 
....................  *       (none) 
....................  * 
....................  * Remarks 
....................  *          The srand function sets the starting point for generating 
....................  *       a series of pseudorandom integers. To reinitialize the 
....................  *       generator, use 1 as the seed argument. Any other value for 
....................  *       seed sets the generator to a random starting point. rand 
....................  *       retrieves the pseudorandom numbers that are generated. 
....................  *       Calling rand before any call to srand generates the same 
....................  *       sequence as calling srand with seed passed as 1. 
....................  *          Usually, you need to pass a time here from outer source 
....................  *       so that the numbers will be different every time you run. 
....................  */ 
.................... void srand(unsigned int32 seed); 
....................  
.................... //--------------------------------------------------------------------------- 
.................... // Memory management functions 
.................... //--------------------------------------------------------------------------- 
....................  
.................... // Comming soon 
....................  
.................... //--------------------------------------------------------------------------- 
.................... // Communication with the environment 
.................... //--------------------------------------------------------------------------- 
....................  
.................... /* The function returns 0 always 
....................  */ 
.................... signed int8 system(char *string); 
....................  
.................... //--------------------------------------------------------------------------- 
.................... // Searching and sorting utilities 
.................... //--------------------------------------------------------------------------- 
....................  
.................... /* Performs a binary search of a sorted array.. 
....................  * 
....................  * Parameters: 
....................  *       [in] key: Object to search for 
....................  *       [in] base: Pointer to base of search data 
....................  *       [in] num: Number of elements 
....................  *       [in] width: Width of elements 
....................  *       [in] compare: Function that compares two elements 
....................  * 
....................  * Returns: 
....................  *       bsearch returns a pointer to an occurrence of key in the array pointed 
....................  *       to by base. If key is not found, the function returns NULL. If the 
....................  *       array is not in order or contains duplicate records with identical keys, 
....................  *       the result is unpredictable. 
....................  */ 
.................... //void *bsearch(const void *key, const void *base, size_t num, size_t width, 
.................... //              int (*compare)(const void *, const void *)); 
....................  
.................... /* Performs the shell-metzner sort (not the quick sort algorithm). The contents 
....................  * of the array are sorted into ascending order according to a comparison 
....................  * function pointed to by compar. 
....................  * 
....................  * Parameters: 
....................  *       [in] base: Pointer to base of search data 
....................  *       [in] num: Number of elements 
....................  *       [in] width: Width of elements 
....................  *       [in] compare: Function that compares two elements 
....................  * 
....................  * Returns: 
....................  *       (none) 
....................  */ 
.................... //void *qsort(const void *base, size_t num, size_t width, 
.................... //              int (*compare)(const void *, const void *)); 
....................  
.................... //--------------------------------------------------------------------------- 
.................... // Integer arithmetic functions 
.................... //--------------------------------------------------------------------------- 
....................  
.................... #define labs abs 
....................  
.................... div_t div(signed int numer, signed int denom); 
.................... ldiv_t ldiv(signed long numer, signed long denom); 
....................  
.................... //--------------------------------------------------------------------------- 
.................... // Multibyte character functions 
.................... //--------------------------------------------------------------------------- 
....................  
.................... // Not supported 
....................  
.................... //--------------------------------------------------------------------------- 
.................... // Multibyte string functions 
.................... //--------------------------------------------------------------------------- 
....................  
.................... // Not supported 
....................  
....................  
.................... //--------------------------------------------------------------------------- 
.................... // Internal implementation 
.................... //--------------------------------------------------------------------------- 
....................  
.................... #include <stddef.h> 
.................... /////////////////////////////////////////////////////////////////////////// 
.................... ////        (C) Copyright 1996,2003 Custom Computer Services           //// 
.................... //// This source code may only be used by licensed users of the CCS C  //// 
.................... //// compiler.  This source code may only be distributed to other      //// 
.................... //// licensed users of the CCS C compiler.  No other use, reproduction //// 
.................... //// or distribution is permitted without written permission.          //// 
.................... //// Derivative programs created using this software in object code    //// 
.................... //// form are not restricted in any way.                               //// 
.................... /////////////////////////////////////////////////////////////////////////// 
....................  
.................... #ifndef _STDDEF 
....................  
.................... #define _STDDEF 
....................  
.................... #if sizeof(unsigned int8 *)==1 
.................... #define ptrdiff_t unsigned int8 
.................... #else 
.................... #define ptrdiff_t unsigned int16 
.................... #endif 
....................  
.................... #define size_t unsigned int8 
.................... #define wchar_t char 
.................... #define NULL 0 
....................  
.................... #define offsetof(s,f) (offsetofbit(s,f)/8) 
....................  
.................... #endif 
....................  
.................... #include <string.h> 
.................... //////////////////////////////////////////////////////////////////////////// 
.................... ////        (C) Copyright 1996,2008 Custom Computer Services            //// 
.................... //// This source code may only be used by licensed users of the CCS C   //// 
.................... //// compiler.  This source code may only be distributed to other       //// 
.................... //// licensed users of the CCS C compiler.  No other use, reproduction  //// 
.................... //// or distribution is permitted without written permission.           //// 
.................... //// Derivative programs created using this software in object code     //// 
.................... //// form are not restricted in any way.                                //// 
.................... //////////////////////////////////////////////////////////////////////////// 
....................  
.................... #ifndef _STRING 
.................... #define _STRING 
.................... #include <stddef.h> 
.................... #include <ctype.h> 
....................  
....................  
....................  
.................... ////////////////////////////////////////////// 
.................... //// Uncomment the following define to    //// 
.................... //// allow some functions to use a        //// 
.................... //// quicker algorithm, but use more ROM  //// 
.................... ////                                      //// 
.................... //// #define FASTER_BUT_MORE_ROM          //// 
.................... ////////////////////////////////////////////// 
....................  
....................  
....................  
.................... /*Copying functions*/ 
.................... /* standard template: 
....................    void *memmove(void *s1, void *s2, size_t n). 
....................    Copies max of n characters safely (not following ending '\0') 
....................    from s2 in s1; if s2 has less than n characters, appends 0 */ 
....................  
.................... char *memmove(void *s1,char *s2,size_t n) 
.................... { 
....................    char *sc1; 
....................    char *sc2; 
....................    sc1=s1; 
....................    sc2=s2; 
....................    if(sc2<sc1 && sc1 <sc2 +n) 
....................       for(sc1+=n,sc2+=n;0<n;--n) 
....................          *--sc1=*--sc2; 
....................    else 
....................       for(;0<n;--n) 
....................          *sc1++=*sc2++; 
....................   return s1; 
....................   } 
....................  
.................... /* Standard template: char *strcpy(char *s1, const char *s2) 
....................    copies the string s2 including the null character to s1. 
....................    This is a compiler built in to handle the different address 
....................    spaces */ 
....................  
.................... #define strcopy strcpy 
....................  
.................... /* standard template: 
....................    char *strncpy(char *s1, const char *s2, size_t n). 
....................    Copies max of n characters (not following ending '\0') 
....................    from s2 in s1; if s2 has less than n characters, appends 0 */ 
....................  
.................... char *strncpy(char *s1, char *s2, size_t n) 
.................... { 
....................   char *s; 
....................  
....................   for (s = s1; n > 0 && *s2 != '\0'; n--) 
....................      *s++ = *s2++; 
....................   for (; n > 0; n--) 
....................      *s++ = '\0'; 
....................  
....................   return(s1); 
.................... } 
.................... /***********************************************************/ 
....................  
.................... /*concatenation functions*/ 
.................... /* standard template: char *strcat(char *s1, const char *s2) 
.................... appends s2 to s1*/ 
....................  
.................... char *strcat(char *s1, char *s2) 
.................... { 
....................    char *s; 
....................  
....................    for (s = s1; *s != '\0'; ++s); 
....................    while(*s2 != '\0') 
....................    { 
....................       *s = *s2; 
....................       ++s; 
....................       ++s2; 
....................    } 
....................  
....................    *s = '\0'; 
....................    return(s1); 
.................... } 
.................... /* standard template: char *strncat(char *s1, char *s2,size_t n) 
.................... appends not more than n characters from s2 to s1*/ 
....................  
.................... char *strncat(char *s1, char *s2, size_t n) 
.................... { 
....................    char *s; 
....................  
....................    for (s = s1; *s != '\0'; ++s); 
....................    while(*s2 != '\0' && 0<n) 
....................    { 
....................       *s = *s2; 
....................       ++s; 
....................       ++s2; 
....................       --n; 
....................    } 
....................  
....................    *s = '\0'; 
....................    return(s1); 
.................... } 
....................  
.................... /***********************************************************/ 
....................  
....................  
.................... /*comparison functions*/ 
.................... /* standard template: signed int memcmp(void *s1, void *s2). 
....................    Compares s1 & s2; returns -1 if s1<s2, 0 if s1=s2, 1 if s1>s2 */ 
....................  
.................... signed int8 memcmp(void * s1,char *s2,size_t n) 
.................... { 
.................... char *su1, *su2; 
.................... for(su1=s1, su2=s2; 0<n; ++su1, ++su2, --n) 
.................... { 
....................    if(*su1!=*su2) 
....................       return ((*su1<*su2)?-1:+1); 
.................... } 
.................... return 0; 
.................... } 
....................  
.................... /* standard template: int strcmp(const char *s1, const char *s2). 
....................    Compares s1 & s2; returns -1 if s1<s2, 0 if s1=s2, 1 if s1>s2 */ 
....................  
.................... signed int8 strcmp(char *s1, char *s2) 
.................... { 
....................    for (; *s1 == *s2; s1++, s2++) 
....................       if (*s1 == '\0') 
....................          return(0); 
....................    return((*s1 < *s2) ? -1: 1); 
.................... } 
.................... /* standard template: int strcoll(const char *s1, const char *s2). 
....................    Compares s1 & s2; returns -1 if s1<s2, 0 if s1=s2, 1 if s1>s2 */ 
....................  
.................... signed int8 strcoll(char *s1, char *s2) 
.................... { 
....................    for (; *s1 == *s2; s1++, s2++) 
....................       if (*s1 == '\0') 
....................          return(0); 
....................    return((*s1 < *s2) ? -1: 1); 
.................... } 
....................  
.................... /* standard template: 
....................    int strncmp(const char *s1, const char *s2, size_t n). 
....................    Compares max of n characters (not following 0) from s1 to s2; 
....................    returns same as strcmp */ 
....................  
.................... signed int8 strncmp(char *s1, char *s2, size_t n) 
.................... { 
....................    for (; n > 0; s1++, s2++, n--) 
....................       if (*s1 != *s2) 
....................          return((*s1 <*s2) ? -1: 1); 
....................       else if (*s1 == '\0') 
....................          return(0); 
....................    return(0); 
.................... } 
.................... /* standard template: 
....................    int strxfrm(const char *s1, const char *s2, size_t n). 
....................    transforms maximum of n characters from s2 and places them into s1*/ 
.................... size_t strxfrm(char *s1, char *s2, size_t n) 
.................... { 
....................   char *s; 
....................   unsigned int8 n1; 
....................   n1=n; 
....................   for (s = s1; n > 0 && *s2 != '\0'; n--) 
....................      *s++ = *s2++; 
....................   for (; n > 0; n--) 
....................      *s++ = '\0'; 
....................  
....................   return(n1); 
.................... } 
....................  
....................  
....................  
....................  
....................  
.................... /***********************************************************/ 
.................... /*Search functions*/ 
.................... /* standard template: void *memchr(const char *s, int c). 
....................    Finds first occurrence of c in n characters of s */ 
....................  
.................... char *memchr(void *s,unsigned int8 c,size_t n) 
.................... { 
....................    char uc; 
....................    char *su; 
....................    uc=c; 
....................    for(su=s;0<n;++su,--n) 
....................       if(*su==uc) 
....................       return su; 
....................    return NULL; 
.................... } 
....................  
.................... /* standard template: char *strchr(const char *s, int c). 
....................    Finds first occurrence of c in s */ 
....................  
.................... char *strchr(char *s, unsigned int8 c) 
.................... { 
....................    for (; *s != c; s++) 
....................       if (*s == '\0') 
....................          return(0); 
....................    return(s); 
.................... } 
.................... /* standard template: 
....................    size_t strcspn(const char *s1, const char *s2). 
....................    Computes length of max initial segment of s1 that 
....................    consists entirely of characters NOT from s2*/ 
....................  
.................... unsigned int8  strcspn(char *s1, char *s2) 
.................... { 
....................    char *sc1, *sc2; 
....................  
....................    for (sc1 = s1; *sc1 != 0; sc1++) 
....................       for (sc2 = s2; *sc2 != 0; sc2++) 
....................          if (*sc1 == *sc2) 
....................             return(sc1 - s1); 
....................    return(sc1 - s1); 
.................... } 
.................... /* standard template: 
....................    char *strpbrk(const char *s1, const char *s2). 
....................    Locates first occurence of any character from s2 in s1; 
....................    returns s1 if s2 is empty string */ 
....................  
.................... char *strpbrk(char *s1, char *s2) 
.................... { 
....................    char *sc1, *sc2; 
....................  
....................    for (sc1 = s1; *sc1 != 0; sc1++) 
....................       for (sc2 = s2; *sc2 != 0; sc2++) 
....................          if (*sc1 == *sc2) 
....................             return(sc1); 
....................    return(0); 
.................... } 
....................  
....................  
.................... /* standard template: char *strrchr(const char *s, int c). 
....................    Finds last occurrence of c in s */ 
....................  
.................... char *strrchr(char *s, unsigned int8 c) 
.................... { 
....................    char *p; 
....................  
....................    for (p = 0; ; s++) 
....................    { 
....................       if (*s == c) 
....................          p = s; 
....................       if (*s == '\0') 
....................          return(p); 
....................    } 
.................... } 
.................... /* computes length of max initial segment of s1 consisting 
....................    entirely of characters from s2 */ 
....................  
.................... unsigned int8  strspn(char *s1, char *s2) 
.................... { 
....................    char *sc1, *sc2; 
....................  
....................    for (sc1 = s1; *sc1 != 0; sc1++) 
....................       for (sc2 = s2; ; sc2++) 
....................     if (*sc2 == '\0') 
....................        return(sc1 - s1); 
....................          else if (*sc1 == *sc2) 
....................             break; 
....................    return(sc1 - s1); 
.................... } 
.................... /* standard template: 
....................    char *strstr(const char *s1, const char *s2); 
....................    Locates first occurence of character sequence s2 in s1; 
....................    returns 0 if s2 is empty string 
....................  
....................    Uncomment #define FASTER_BUT_MORE_ROM at the top of the 
....................    file to use the faster algorithm */ 
.................... char *strstr(char *s1, char *s2) 
.................... { 
....................    char *s, *t; 
....................  
....................    #ifdef FASTER_BUT_MORE_ROM 
....................    if (*s2 == '\0') 
....................          return(s1); 
....................    #endif 
....................  
....................    while (*s1) 
....................    { 
....................       for(s = s1, t = s2; *t && (*s == *t); ++s, ++t); 
....................  
....................       if (*t == '\0') 
....................          return s1; 
....................       ++s1; 
....................       #ifdef FASTER_BUT_MORE_ROM 
....................          while(*s1 != '\0' && *s1 != *s2) 
....................             ++s1; 
....................       #endif 
....................    } 
....................    return 0; 
.................... } 
....................  
.................... /* standard template: char *strtok(char *s1, const char *s2). 
....................  
....................    Finds next token in s1 delimited by a character from separator 
....................    string s2 (which can be different from call to call).  First call 
....................    starts at beginning of s1 searching for first character NOT 
....................    contained in s2; returns 0 if none is found. 
....................    If one is found, it is the start of first token (return value). 
....................    Function then searches from there for a character contained in s2. 
....................    If none is found, current token extends to end of s1, and subsequent 
....................    searches for a token will return 0.  If one is found, it is 
....................    overwritten by '\0', which terminates current token.  Function saves 
....................    pointer to following character from which next search will start. 
....................    Each subsequent call, with 0 as first argument, starts searching 
....................    from saved pointer */ 
....................  
.................... char *strtok(char *s1, char *s2) 
.................... { 
....................    char *beg, *end; 
....................    static char *save; 
....................  
....................    beg = (s1)? s1: save; 
....................    beg += strspn(beg, s2); 
....................    if (*beg == '\0') 
....................    { 
....................       *save = ' '; 
....................       return(0); 
....................    } 
....................    end = strpbrk(beg, s2); 
....................    if (*end != '\0') 
....................    { 
....................       *end = '\0'; 
....................       end++; 
....................    } 
....................    save = end; 
....................    return(beg); 
.................... } 
....................  
.................... /*****************************************************************/ 
.................... /*Miscellaneous functions*/ 
.................... /* standard template 
.................... maps error number in errnum to an error message string 
.................... Returns: Pointer to string 
.................... */ 
.................... #ifdef _ERRNO 
.................... char * strerror(unsigned int8 errnum) 
.................... { 
.................... char s[15]; 
.................... switch( errnum) 
.................... { 
.................... case 0: 
....................    strcpy(s,"no errors"); 
....................    return s; 
.................... case EDOM : 
....................    strcpy(s,"domain error"); 
....................    return s; 
.................... case ERANGE: 
....................    strcpy(s,"range error"); 
....................    return s; 
.................... } 
.................... } 
.................... #ENDIF 
.................... /* standard template: size_t strlen(const char *s). 
....................    Computes length of s1 (preceding terminating 0) */ 
....................  
.................... unsigned int8 strlen(char *s) 
.................... { 
....................    char *sc; 
....................  
....................    for (sc = s; *sc != 0; sc++); 
....................    return(sc - s); 
.................... } 
....................  
.................... /* standard template: size_t stricmp(const char *s1, const char *s2). 
....................    Compares s1 to s2 ignoring case (upper vs. lower) */ 
....................  
.................... signed int8 stricmp(char *s1, char *s2) 
.................... { 
....................  for(; *s1==*s2||(isalpha(*s1)&&isalpha(*s2)&&(*s1==*s2+32||*s2==*s1+32)); 
....................     s1++, s2++) 
....................     if (*s1 == '\0') 
....................        return(0); 
....................  return((*s1 < *s2) ? -1: 1); 
.................... } 
....................  
....................  
.................... /* standard template: char *strlwr(char *s). 
....................    Replaces uppercase letters by lowercase; 
....................    returns pointer to new string s */ 
....................  
.................... char *strlwr(char *s) 
.................... { 
....................    char *p; 
....................  
....................    for (p = s; *p != '\0'; p++) 
....................       if (*p >= 'A' && *p <='Z') 
....................          *p += 'a' - 'A'; 
....................    return(s); 
.................... } 
....................  
....................  
.................... /************************************************************/ 
....................  
....................  
.................... #endif 
....................  
....................  
.................... div_t div(signed int numer, signed int denom) 
.................... { 
....................    div_t val; 
....................    val.quot = numer / denom; 
....................    val.rem = numer - (denom * val.quot); 
....................    return (val); 
.................... } 
....................  
.................... ldiv_t ldiv(signed long numer, signed long denom) 
.................... { 
....................    ldiv_t val; 
....................  
....................    val.quot = numer / denom; 
....................    val.rem = numer - (denom * val.quot); 
....................    return (val); 
.................... } 
....................  
.................... #if defined(__PCD__) 
.................... float32 atoe(char * s) 
.................... { 
....................    float32 pow10 = 1.0; 
....................    float32 result = 0.0; 
....................    unsigned int8 sign = 0; 
....................    unsigned int8 expsign = 0; 
....................    char c; 
....................    unsigned int8 ptr = 0; 
....................    unsigned int8 i; 
....................    float32 exp = 1.0; 
....................    unsigned int8 expcnt = 0; 
....................  
....................    c = s[ptr++]; 
....................  
....................    if ((c>='0' && c<='9') || c=='+' || c=='-' || c=='.' || c=='E' || c=='e') { 
....................       if(c == '-') { 
....................          sign = 1; 
....................          c = s[ptr++]; 
....................       } 
....................       if(c == '+') 
....................          c = s[ptr++]; 
....................  
....................       while((c >= '0' && c <= '9')) { 
....................          result = 10*result + c - '0'; 
....................          c = s[ptr++]; 
....................       } 
....................  
....................       if (c == '.') { 
....................          c = s[ptr++]; 
....................          while((c >= '0' && c <= '9')) { 
....................              pow10 = pow10*10; 
....................              result += (c - '0')/pow10; 
....................              c = s[ptr++]; 
....................          } 
....................       } 
....................  
....................       // Handling the exponent 
....................       if (c=='e' || c=='E') { 
....................          c = s[ptr++]; 
....................  
....................          if(c == '-') { 
....................             expsign = 1; 
....................             c = s[ptr++]; 
....................          } 
....................          if(c == '+') 
....................             c = s[ptr++]; 
....................  
....................          while((c >= '0' && c <= '9')) { 
....................             expcnt = 10*expcnt + c - '0'; 
....................             c = s[ptr++]; 
....................          } 
....................  
....................          for(i=0;i<expcnt;i++) 
....................             exp*=10; 
....................  
....................          if(expsign==1) 
....................             result/=exp; 
....................          else 
....................             result*=exp; 
....................       } 
....................    } 
....................  
....................    if (sign == 1) 
....................       result = -1*result; 
....................    return(result); 
.................... } 
.................... #endif 
....................  
.................... #if !defined(__PCD__) 
.................... float atoe(char * s) 
.................... { 
....................    float pow10 = 1.0; 
....................    float result = 0.0; 
....................    unsigned int8 sign = 0; 
....................    unsigned int8 expsign = 0; 
....................    char c; 
....................    unsigned int8 ptr = 0; 
....................    unsigned int8 i; 
....................    float exp = 1.0; 
....................    unsigned int8 expcnt = 0; 
....................  
....................    c = s[ptr++]; 
....................  
....................    if ((c>='0' && c<='9') || c=='+' || c=='-' || c=='.' || c=='E' || c=='e') { 
....................       if(c == '-') { 
....................          sign = 1; 
....................          c = s[ptr++]; 
....................       } 
....................       if(c == '+') 
....................          c = s[ptr++]; 
....................  
....................       while((c >= '0' && c <= '9')) { 
....................          result = 10*result + c - '0'; 
....................          c = s[ptr++]; 
....................       } 
....................  
....................       if (c == '.') { 
....................          c = s[ptr++]; 
....................          while((c >= '0' && c <= '9')) { 
....................              pow10 = pow10*10; 
....................              result += (c - '0')/pow10; 
....................              c = s[ptr++]; 
....................          } 
....................       } 
....................  
....................       // Handling the exponent 
....................       if (c=='e' || c=='E') { 
....................          c = s[ptr++]; 
....................  
....................          if(c == '-') { 
....................             expsign = 1; 
....................             c = s[ptr++]; 
....................          } 
....................          if(c == '+') 
....................             c = s[ptr++]; 
....................  
....................          while((c >= '0' && c <= '9')) { 
....................             expcnt = 10*expcnt + c - '0'; 
....................             c = s[ptr++]; 
....................          } 
....................  
....................          for(i=0;i<expcnt;i++) 
....................             exp*=10; 
....................  
....................          if(expsign==1) 
....................             result/=exp; 
....................          else 
....................             result*=exp; 
....................       } 
....................    } 
....................  
....................    if (sign == 1) 
....................       result = -1*result; 
....................    return(result); 
.................... } 
.................... #endif 
....................  
.................... signed int atoi(char *s) 
.................... { 
....................    signed int result; 
....................    unsigned int sign, base, index; 
....................    char c; 
....................  
....................    index = 0; 
....................    sign = 0; 
....................    base = 10; 
....................    result = 0; 
....................  
....................    if (!s) 
....................       return 0; 
....................    // Omit all preceeding alpha characters 
....................    c = s[index++]; 
....................  
....................    // increase index if either positive or negative sign is detected 
....................    if (c == '-') 
....................    { 
....................       sign = 1;         // Set the sign to negative 
....................       c = s[index++]; 
....................    } 
....................    else if (c == '+') 
....................    { 
....................       c = s[index++]; 
....................    } 
....................  
....................    if (c >= '0' && c <= '9') 
....................    { 
....................  
....................       // Check for hexa number 
....................       if (c == '0' && (s[index] == 'x' || s[index] == 'X')) 
....................       { 
....................          base = 16; 
....................          index++; 
....................          c = s[index++]; 
....................       } 
....................  
....................       // The number is a decimal number 
....................       if (base == 10) 
....................       { 
....................          while (c >= '0' && c <= '9') 
....................          { 
....................             result = 10*result + (c - '0'); 
....................             c = s[index++]; 
....................          } 
....................       } 
....................       else if (base == 16)    // The number is a hexa number 
....................       { 
....................          c = toupper(c); 
....................          while ( (c >= '0' && c <= '9') || (c >= 'A' && c<='F')) 
....................          { 
....................             if (c >= '0' && c <= '9') 
....................                result = (result << 4) + (c - '0'); 
....................             else 
....................                result = (result << 4) + (c - 'A' + 10); 
....................  
....................             c = s[index++]; 
....................             c = toupper(c); 
....................          } 
....................       } 
....................    } 
....................  
....................    if (sign == 1 && base == 10) 
....................        result = -result; 
....................  
....................    return(result); 
.................... } 
....................  
.................... signed long atol(char *s) 
.................... { 
....................    signed long result; 
....................    unsigned int sign, base, index; 
....................    char c; 
....................  
....................    index = 0; 
....................    sign = 0; 
....................    base = 10; 
....................    result = 0; 
....................  
....................    if (!s) 
....................       return 0; 
....................    c = s[index++]; 
....................  
....................    // increase index if either positive or negative sign is detected 
....................    if (c == '-') 
....................    { 
....................       sign = 1;         // Set the sign to negative 
....................       c = s[index++]; 
....................    } 
....................    else if (c == '+') 
....................    { 
....................       c = s[index++]; 
....................    } 
....................  
....................    if (c >= '0' && c <= '9') 
....................    { 
....................       if (c == '0' && (s[index] == 'x' || s[index] == 'X')) 
....................       { 
....................          base = 16; 
....................          index++; 
....................          c = s[index++]; 
....................       } 
....................  
....................       // The number is a decimal number 
....................       if (base == 10) 
....................       { 
....................          while (c >= '0' && c <= '9') 
....................          { 
....................             result = 10*result + (c - '0'); 
....................             c = s[index++]; 
....................          } 
....................       } 
....................       else if (base == 16)    // The number is a hexa number 
....................       { 
....................          c = toupper(c); 
....................          while ( (c >= '0' && c <= '9') || (c >= 'A' && c <='F')) 
....................          { 
....................             if (c >= '0' && c <= '9') 
....................                result = (result << 4) + (c - '0'); 
....................             else 
....................                result = (result << 4) + (c - 'A' + 10); 
....................  
....................             c = s[index++];c = toupper(c); 
....................          } 
....................       } 
....................    } 
....................  
....................    if (base == 10 && sign == 1) 
....................       result = -result; 
....................  
....................    return(result); 
.................... } 
....................  
.................... /* A fast routine to multiply by 10 
....................  */ 
.................... signed int32 mult_with10(int32 num) 
.................... { 
....................    return ( (num << 1) + (num << 3) ); 
.................... } 
....................  
.................... #if sizeof(long)==2 
.................... signed int32 atoi32(char *s) 
.................... { 
....................    signed int32 result; 
....................    int8 sign, base, index; 
....................    char c; 
....................  
....................    index = 0; 
....................    sign = 0; 
....................    base = 10; 
....................    result = 0; 
....................  
....................    if (!s) 
....................       return 0; 
....................    c = s[index++]; 
....................  
....................    // increase index if either positive or negative sign is detected 
....................    if (c == '-') 
....................    { 
....................       sign = 1;         // Set the sign to negative 
....................       c = s[index++]; 
....................    } 
....................    else if (c == '+') 
....................    { 
....................       c = s[index++]; 
....................    } 
....................  
....................    if (c >= '0' && c <= '9') 
....................    { 
....................       if (c == '0' && (s[index] == 'x' || s[index] == 'X')) 
....................       { 
....................          base = 16; 
....................          index++; 
....................          c = s[index++]; 
....................       } 
....................  
....................       // The number is a decimal number 
....................       if (base == 10) 
....................       { 
....................          while (c >= '0' && c <= '9') { 
....................             result = (result << 1) + (result << 3);  // result *= 10; 
....................             result += (c - '0'); 
....................             c = s[index++]; 
....................          } 
....................       } 
....................       else if (base == 16)    // The number is a hexa number 
....................       { 
....................          c = toupper(c); 
....................          while ((c >= '0' && c <= '9') || (c >= 'A' && c <='F')) 
....................          { 
....................             if (c >= '0' && c <= '9') 
....................                result = (result << 4) + (c - '0'); 
....................             else 
....................                result = (result << 4) + (c - 'A' + 10); 
....................  
....................             c = s[index++];c = toupper(c); 
....................          } 
....................       } 
....................    } 
....................  
....................    if (base == 10 && sign == 1) 
....................       result = -result; 
....................  
....................    return(result); 
.................... } 
.................... #endif 
....................  
.................... #if defined(__PCD__) 
....................  
.................... signed int48 atoi48(char *s) 
.................... { 
....................    signed int48 result; 
....................    int8 sign, base, index; 
....................    char c; 
....................  
....................    index = 0; 
....................    sign = 0; 
....................    base = 10; 
....................    result = 0; 
....................  
....................    if (!s) 
....................       return 0; 
....................    c = s[index++]; 
....................  
....................    // increase index if either positive or negative sign is detected 
....................    if (c == '-') 
....................    { 
....................       sign = 1;         // Set the sign to negative 
....................       c = s[index++]; 
....................    } 
....................    else if (c == '+') 
....................    { 
....................       c = s[index++]; 
....................    } 
....................  
....................    if (c >= '0' && c <= '9') 
....................    { 
....................       if (c == '0' && (s[index] == 'x' || s[index] == 'X')) 
....................       { 
....................          base = 16; 
....................          index++; 
....................          c = s[index++]; 
....................       } 
....................  
....................       // The number is a decimal number 
....................       if (base == 10) 
....................       { 
....................          while (c >= '0' && c <= '9') { 
....................             result = (result << 1) + (result << 3);  // result *= 10; 
....................             result += (c - '0'); 
....................             c = s[index++]; 
....................          } 
....................       } 
....................       else if (base == 16)    // The number is a hexa number 
....................       { 
....................          c = toupper(c); 
....................          while ((c >= '0' && c <= '9') || (c >= 'A' && c <='F')) 
....................          { 
....................             if (c >= '0' && c <= '9') 
....................                result = (result << 4) + (c - '0'); 
....................             else 
....................                result = (result << 4) + (c - 'A' + 10); 
....................  
....................             c = s[index++];c = toupper(c); 
....................          } 
....................       } 
....................    } 
....................  
....................    if (base == 10 && sign == 1) 
....................       result = -result; 
....................  
....................    return(result); 
.................... } 
....................  
.................... signed int64 atoi64(char *s) 
.................... { 
....................    signed int64 result; 
....................    int8 sign, base, index; 
....................    char c; 
....................  
....................    index = 0; 
....................    sign = 0; 
....................    base = 10; 
....................    result = 0; 
....................  
....................    if (!s) 
....................       return 0; 
....................    c = s[index++]; 
....................  
....................    // increase index if either positive or negative sign is detected 
....................    if (c == '-') 
....................    { 
....................       sign = 1;         // Set the sign to negative 
....................       c = s[index++]; 
....................    } 
....................    else if (c == '+') 
....................    { 
....................       c = s[index++]; 
....................    } 
....................  
....................    if (c >= '0' && c <= '9') 
....................    { 
....................       if (c == '0' && (s[index] == 'x' || s[index] == 'X')) 
....................       { 
....................          base = 16; 
....................          index++; 
....................          c = s[index++]; 
....................       } 
....................  
....................       // The number is a decimal number 
....................       if (base == 10) 
....................       { 
....................          while (c >= '0' && c <= '9') { 
....................             result = (result << 1) + (result << 3);  // result *= 10; 
....................             result += (c - '0'); 
....................             c = s[index++]; 
....................          } 
....................       } 
....................       else if (base == 16)    // The number is a hexa number 
....................       { 
....................          c = toupper(c); 
....................          while ((c >= '0' && c <= '9') || (c >= 'A' && c <='F')) 
....................          { 
....................             if (c >= '0' && c <= '9') 
....................                result = (result << 4) + (c - '0'); 
....................             else 
....................                result = (result << 4) + (c - 'A' + 10); 
....................  
....................             c = s[index++];c = toupper(c); 
....................          } 
....................       } 
....................    } 
....................  
....................    if (base == 10 && sign == 1) 
....................       result = -result; 
....................  
....................    return(result); 
.................... } 
.................... #endif 
....................  
.................... char * itoa(signed int32 num, unsigned int base, char * s) 
.................... { 
....................      unsigned int32 temp=1; 
....................      unsigned int8 i,sign=0,cnt=0; 
....................      char c; 
....................  
....................      if(num<0) { 
....................          sign=1;        // Check for negative number 
....................          num*=-1; 
....................      } 
....................  
....................      while(temp>0) { 
....................          temp=(num/base); 
....................          s[cnt]=(num%base)+'0';    // Conversion 
....................  
....................          if(s[cnt]>0x39) 
....................             s[cnt]+=0x7; 
....................  
....................          cnt++; 
....................          num=temp; 
....................      } 
....................  
....................      if(sign==1) { 
....................          s[cnt]=0x2D;      // Negative sign 
....................          cnt++; 
....................      } 
....................  
....................      for(i = 0;i<(int8)(cnt/2);i++) { 
....................  
....................          c=s[i]; 
....................          s[i]=s[cnt-i-1];        // Reverse the number 
....................          s[cnt-i-1]=c; 
....................      } 
....................      s[cnt]='\0';     // End the string 
....................      return s; 
.................... } 
....................  
.................... float strtof(char *s, char *endptr) 
.................... { 
....................    float pow10 = 1.0; 
....................    float result = 0.0; 
....................    int1 skip = 1, sign = 0, point = 0; 
....................    char c; 
....................    unsigned int8 ptr = 0; 
....................  
....................    if (!s) 
....................       return 0; 
....................  
....................    for(c=s[ptr++]; c!=0; c=s[ptr++]) 
....................    { 
....................       if (skip && !isspace(c)) 
....................       { 
....................          skip = 0; 
....................          if (c == '+') 
....................          { 
....................             sign = 0; 
....................             continue; 
....................          }             
....................          else if (c == '-') 
....................          { 
....................             sign = 1; 
....................             continue; 
....................          } 
....................       } 
....................       if (!skip && (c == '.') && !point) 
....................          point = 1; 
....................       else if (!skip && isdigit(c)) 
....................       { 
....................          c -= '0'; 
....................          if (point) 
....................          { 
....................             pow10 = pow10 * 10.0; 
....................             result += (float)c / pow10;    
....................          } 
....................          else 
....................          { 
....................             result = 10.0 * result + (float)c; 
....................          } 
....................       } 
....................       else if (!skip) 
....................          break; 
....................    } 
....................  
....................    if (sign) 
....................       result = -1*result; 
....................        
....................    if(endptr) 
....................    { 
....................       if (ptr) { 
....................          ptr--; 
....................        #IF LONG_POINTERS  
....................          *((long *)endptr)= s+ptr;  
....................        #ELSE 
....................          *((char *)endptr)=s+ptr; 
....................        #ENDIF 
....................       } 
....................       else 
....................       { 
....................       #IF LONG_POINTERS 
....................       *((long *)endptr)= s;  
....................       #ELSE 
....................       *((char *)endptr)=s; 
....................       #ENDIF 
....................       } 
....................    } 
....................  
....................    return(result); 
.................... } 
....................  
.................... #if defined(__PCD__) 
.................... float48 strtof48(char *s, char *endptr) 
.................... { 
....................    float48 pow10 = 1.0; 
....................    float48 result = 0.0; 
....................    int1 skip = 1, sign = 0, point = 0; 
....................    char c; 
....................    unsigned int8 ptr = 0; 
....................  
....................    if (!s) 
....................       return 0; 
....................  
....................    for(c=s[ptr++]; c!=0; c=s[ptr++]) 
....................    { 
....................       if (skip && !isspace(c)) 
....................       { 
....................          skip = 0; 
....................          if (c == '+') 
....................          { 
....................             sign = 0; 
....................             continue; 
....................          }             
....................          else if (c == '-') 
....................          { 
....................             sign = 1; 
....................             continue; 
....................          } 
....................       } 
....................       if (!skip && (c == '.') && !point) 
....................          point = 1; 
....................       else if (!skip && isdigit(c)) 
....................       { 
....................          c -= '0'; 
....................          if (point) 
....................          { 
....................             pow10 = pow10 * 10.0; 
....................             result += (float48)c / pow10;    
....................          } 
....................          else 
....................          { 
....................             result = 10.0 * result + (float48)c; 
....................          } 
....................       } 
....................       else if (!skip) 
....................          break; 
....................    } 
....................  
....................    if (sign) 
....................       result = -1*result; 
....................        
....................    if(endptr) 
....................    { 
....................       if (ptr) { 
....................          ptr--; 
....................        #IF LONG_POINTERS  
....................          *((long *)endptr)= s+ptr;  
....................        #ELSE 
....................          *((char *)endptr)=s+ptr; 
....................        #ENDIF 
....................       } 
....................       else 
....................       { 
....................       #IF LONG_POINTERS 
....................       *((long *)endptr)= s;  
....................       #ELSE 
....................       *((char *)endptr)=s; 
....................       #ENDIF 
....................       } 
....................    } 
....................  
....................    return(result); 
.................... } 
....................  
.................... float64 strtod(char *s, char *endptr) 
.................... { 
....................    float64 pow10 = 1.0; 
....................    float64 result = 0.0; 
....................    int1 skip = 1, sign = 0, point = 0; 
....................    char c; 
....................    unsigned int8 ptr = 0; 
....................  
....................    if (!s) 
....................       return 0; 
....................  
....................    for(c=s[ptr++]; c!=0; c=s[ptr++]) 
....................    { 
....................       if (skip && !isspace(c)) 
....................       { 
....................          skip = 0; 
....................          if (c == '+') 
....................          { 
....................             sign = 0; 
....................             continue; 
....................          }             
....................          else if (c == '-') 
....................          { 
....................             sign = 1; 
....................             continue; 
....................          } 
....................       } 
....................       if (!skip && (c == '.') && !point) 
....................          point = 1; 
....................       else if (!skip && isdigit(c)) 
....................       { 
....................          c -= '0'; 
....................          if (point) 
....................          { 
....................             pow10 = pow10 * 10.0; 
....................             result += (float64)c / pow10;    
....................          } 
....................          else 
....................          { 
....................             result = 10.0 * result + (float64)c; 
....................          } 
....................       } 
....................       else if (!skip) 
....................          break; 
....................    } 
....................  
....................    if (sign) 
....................       result = -1*result; 
....................        
....................    if(endptr) 
....................    { 
....................       if (ptr) { 
....................          ptr--; 
....................        #IF LONG_POINTERS  
....................          *((long *)endptr)= s+ptr;  
....................        #ELSE 
....................          *((char *)endptr)=s+ptr; 
....................        #ENDIF 
....................       } 
....................       else 
....................       { 
....................       #IF LONG_POINTERS 
....................       *((long *)endptr)= s;  
....................       #ELSE 
....................       *((char *)endptr)=s; 
....................       #ENDIF 
....................       } 
....................    } 
....................  
....................    return(result); 
.................... } 
.................... #endif 
....................  
.................... unsigned long strtoul(char *s, char *endptr, signed int base) 
.................... { 
....................    char *sc,*s1,*sd; 
....................    unsigned long x=0; 
....................    char sign; 
....................    char digits[]="0123456789abcdefghijklmnopqstuvwxyz"; 
....................    for(sc=s;isspace(*sc);++sc); 
....................    sign=*sc=='-'||*sc=='+'?*sc++:'+'; 
....................    if(sign=='-' || base <0 || base ==1|| base >36) // invalid base 
....................    goto StrtoulGO; 
....................  
....................    else if (base) 
....................    { 
....................       if(base==16 && *sc =='0'&&(sc[1]=='x' || sc[1]=='X')) 
....................          sc+=2; 
....................       if(base==8 && *sc =='0') 
....................          sc+=1; 
....................       if(base==2 && *sc =='0'&&sc[1]=='b') 
....................          sc+=2; 
....................  
....................    } 
....................    else if(*sc!='0') // base is 0, find base 
....................       base=10; 
....................    else if (sc[1]=='x' || sc[1]=='X') 
....................       base =16,sc+=2; 
....................    else if(sc[1]=='b') 
....................       base=2,sc+=2; 
....................    else 
....................       base=8; 
....................    for (s1=sc;*sc=='0';++sc);// skip leading zeroes 
....................    sd=memchr(digits,tolower(*sc),base); 
....................    for(; sd!=0; ) 
....................    { 
....................       x=x*base+(int16)(sd-digits); 
....................       ++sc; 
....................       sd=memchr(digits,tolower(*sc),base); 
....................    } 
....................    if(s1==sc) 
....................    { 
....................    StrtoulGO: 
....................       if (endptr) 
....................       { 
....................          #IF LONG_POINTERS 
....................          *((long *)endptr)= s;  
....................          #ELSE 
....................          *((char *)endptr)=s; 
....................          #ENDIF 
....................          } 
....................    return 0; 
....................    } 
....................    if (endptr) 
....................    { 
....................          #IF LONG_POINTERS 
....................          *((long *)endptr)= sc;  
....................          #ELSE 
....................          *((char *)endptr)=sc;  
....................          #ENDIF 
....................    } 
....................    return x; 
.................... } 
....................  
....................  
.................... signed long strtol(char *s,char *endptr, signed int base) 
.................... { 
....................    char *sc,*s1,*sd; 
....................    signed long x=0; 
....................    char sign; 
....................    char digits[]="0123456789abcdefghijklmnopqstuvwxyz"; 
....................    for(sc=s;isspace(*sc);++sc); 
....................    sign=*sc=='-'||*sc=='+'?*sc++:'+'; 
....................    if (base <0 || base ==1|| base >36) // invalid base 
....................    goto StrtolGO; 
....................    else if (base) 
....................    { 
....................       if(base==16 && *sc =='0'&&(sc[1]=='x' || sc[1]=='X')) 
....................          sc+=2; 
....................       if(base==8 && *sc =='0') 
....................          sc+=1; 
....................       if(base==2 && *sc =='0'&&sc[1]=='b') 
....................          sc+=2; 
....................  
....................    } 
....................    else if(*sc!='0') // base is 0, find base 
....................       base=10; 
....................    else if (sc[1]=='x' || sc[1]=='X') 
....................       base =16,sc+=2; 
....................    else if(sc[1]=='b') 
....................       base=2,sc+=2; 
....................    else 
....................       base=8; 
....................    for (s1=sc;*sc=='0';++sc);// skip leading zeroes 
....................  
....................    sd=memchr(digits,tolower(*sc),base); 
....................    for(;sd!=0;) 
....................    { 
....................       x=x*base+(int16)(sd-digits); 
....................       ++sc; 
....................       sd=memchr(digits,tolower(*sc),base); 
....................    } 
....................    if(s1==sc) 
....................    { 
....................    StrtolGO: 
....................       if (endptr) 
....................       { 
....................          #IF LONG_POINTERS 
....................          *((long *)endptr)= s;  
....................          #ELSE 
....................          *((char *)endptr)=s; 
....................          #ENDIF 
....................       } 
....................    return 0; 
....................    } 
....................    if(sign=='-') 
....................       x  =-x; 
....................    if (endptr) 
....................    { 
....................         #IF LONG_POINTERS 
....................          *((long *)endptr)= sc;  
....................         #ELSE 
....................         *((char *)endptr)=sc; 
....................         #ENDIF 
....................    } 
....................    return x; 
.................... } 
....................  
.................... signed int8 system(char *string) 
.................... { 
....................    return 0; 
.................... } 
....................  
.................... int8 mblen(char *s,size_t n) 
.................... { 
....................    return strlen(s); 
.................... } 
....................  
.................... int8 mbtowc(wchar_t *pwc,char *s,size_t n) 
.................... { 
....................    *pwc=*s; 
....................    return 1; 
.................... } 
....................  
.................... int8 wctomb(char *s,wchar_t wchar) 
.................... { 
....................    *s=wchar; 
....................    return 1; 
.................... } 
....................  
.................... size_t mbstowcs(wchar_t *pwcs,char *s,size_t n) 
.................... { 
....................    strncpy(pwcs,s,n); 
....................    return strlen(pwcs); 
.................... } 
....................  
.................... size_t wcstombs(char *s,wchar_t *pwcs,size_t n) 
.................... { 
....................    strncpy(s,pwcs,n); 
....................    return strlen(s); 
.................... } 
....................  
.................... //--------------------------------------------------------------------------- 
.................... // The random number implementation 
.................... //--------------------------------------------------------------------------- 
....................  
.................... unsigned int32 _Randseed; 
....................  
.................... unsigned int16 rand(void) 
.................... { 
....................    _Randseed = _Randseed * 1103515245 + 12345; 
....................    return ((unsigned int16)(_Randseed >> 16) % RAND_MAX); 
.................... } 
....................  
.................... void srand(unsigned int32 seed) 
.................... { 
....................    _Randseed = seed; 
.................... } 
....................  
.................... //--------------------------------------------------------------------------- 
.................... // Searching and sorting utilities implementation 
.................... //--------------------------------------------------------------------------- 
....................  
.................... #if !defined(__PCD__) 
.................... typedef signed int8 (*_Cmpfun)(char * p1,char * p2);  
.................... #else  
.................... typedef signed int16 (*_Cmpfun)(char * p1,char * p2);  
.................... #endif 
....................  
....................  
....................  
.................... void qsort(char * qdata, unsigned int qitems, unsigned int qsize, _Cmpfun cmp) { 
....................    unsigned int m,j,i,l; 
....................    int1 done; 
....................    unsigned int8 t[16]; 
....................  
....................    m = qitems/2; 
....................    while( m > 0 ) { 
....................      for(j=0; j<(qitems-m); ++j) { 
....................         i = j; 
....................         do 
....................         { 
....................            done=1; 
....................            l = i+m; 
....................            if( (*cmp)(qdata+i*qsize, qdata+l*qsize) > 0 ) { 
....................               memcpy(t, qdata+i*qsize, qsize); 
....................               memcpy(qdata+i*qsize, qdata+l*qsize, qsize); 
....................               memcpy(qdata+l*qsize, t, qsize); 
....................               if(m <= i) 
....................                 i -= m; 
....................                 done = 0; 
....................            } 
....................         } while(!done); 
....................      } 
....................      m = m/2; 
....................    } 
.................... } 
....................  
....................  
.................... char *bsearch(char *key, char *base, size_t num, size_t width,_Cmpfun cmp) 
.................... { 
....................    char *p, *q; 
....................    size_t n; 
....................    size_t pivot; 
....................    signed int val; 
....................  
....................    p = base; 
....................    n = num; 
....................  
....................    while (n > 0) 
....................    { 
....................       pivot = n >> 1; 
....................       q = p + width * pivot; 
....................  
....................       val = (*cmp)(key, q); 
....................  
....................       if (val < 0) 
....................          n = pivot; 
....................       else if (val == 0) 
....................          return ((char *)q); 
....................       else { 
....................          p = q + width; 
....................          n -= pivot + 1; 
....................       } 
....................    } 
....................  
....................    return NULL;      // There's no match 
.................... } 
....................  
....................  
.................... #endif 
....................  
.................... #include <DS1302.c> 
.................... ////////////////////////////////////////////////////////////////////////// 
.................... ////                               DS1302.C                           //// 
.................... ////                     Driver for Real Time Clock                   //// 
.................... ////                                                                  //// 
.................... ////  rtc_init()                                   Call after power up//// 
.................... ////                                                                  //// 
.................... ////  rtc_set_datetime(day,mth,year,dow,hour,min)  Set the date/time  //// 
.................... ////                                                                  //// 
.................... ////  rtc_get_date(day,mth,year,dow)               Get the date       //// 
.................... ////                                                                  //// 
.................... ////  rtc_get_time(hr,min,sec)                     Get the time       //// 
.................... ////                                                                  //// 
.................... ////  rtc_write_nvr(address,data)                  Write to NVR       //// 
.................... ////                                                                  //// 
.................... ////  data = rtc_read_nvr(address)                 Read from NVR      //// 
.................... ////                                                                  //// 
.................... ////  get_bcd(data)                              Convert data to BCD  //// 
.................... ////                                                                  //// 
.................... ////  rm_bcd(data)                               Convert data to int  //// 
.................... ////                                                                  //// 
.................... ////////////////////////////////////////////////////////////////////////// 
.................... ////        (C) Copyright 1996,2003 Custom Computer Services          //// 
.................... //// This source code may only be used by licensed users of the CCS C //// 
.................... //// compiler.  This source code may only be distributed to other     //// 
.................... //// licensed users of the CCS C compiler.  No other use, reproduction//// 
.................... //// or distribution is permitted without written permission.         //// 
.................... //// Derivative programs created using this software in object code   //// 
.................... //// form are not restricted in any way.                              //// 
.................... ////////////////////////////////////////////////////////////////////////// 
....................  
.................... //#ifndef RTC_SCLK 
....................  
.................... #define RTC_SCLK PIN_C5 
.................... #define RTC_IO   PIN_C4 
.................... #define RTC_RST  PIN_D3 
....................  
.................... //#endif 
....................  
.................... void write_ds1302_byte(BYTE cmd) { 
....................    BYTE i; 
....................  
....................    for(i=0;i<=7;++i) { 
*
01D48:  MOVLB  7
01D4A:  CLRF   x62
01D4C:  MOVF   x62,W
01D4E:  SUBLW  07
01D50:  BNC   1D6C
....................       output_bit(RTC_IO, shift_right(&cmd,1,0) ); 
01D52:  BCF    FD8.0
01D54:  RRCF   x61,F
01D56:  BC    1D5C
01D58:  BCF    F8B.4
01D5A:  BRA    1D5E
01D5C:  BSF    F8B.4
01D5E:  BCF    F94.4
....................       output_high(RTC_SCLK); 
01D60:  BCF    F94.5
01D62:  BSF    F8B.5
....................       output_low(RTC_SCLK); 
01D64:  BCF    F94.5
01D66:  BCF    F8B.5
....................    } 
01D68:  INCF   x62,F
01D6A:  BRA    1D4C
.................... } 
01D6C:  MOVLB  0
01D6E:  RETLW  00
....................  
.................... void write_ds1302(BYTE cmd, BYTE data) { 
....................  
....................    output_high(RTC_RST); 
01D70:  BCF    F95.3
01D72:  BSF    F8C.3
....................    write_ds1302_byte(cmd); 
01D74:  MOVFF  75F,761
01D78:  RCALL  1D48
....................    write_ds1302_byte(data); 
01D7A:  MOVFF  760,761
01D7E:  RCALL  1D48
....................    output_low(RTC_RST); 
01D80:  BCF    F95.3
01D82:  BCF    F8C.3
.................... } 
01D84:  RETLW  00
....................  
.................... BYTE read_ds1302(BYTE cmd) { 
....................    BYTE i,data; 
....................  
....................    output_high(RTC_RST); 
01D86:  BCF    F95.3
01D88:  BSF    F8C.3
....................    write_ds1302_byte(cmd); 
01D8A:  MOVFF  75C,761
01D8E:  RCALL  1D48
....................     
....................    input(RTC_IO); 
01D90:  BSF    F94.4
....................    delay_us(10); 
01D92:  MOVLW  10
01D94:  MOVWF  00
01D96:  DECFSZ 00,F
01D98:  BRA    1D96
01D9A:  NOP   
....................           
....................    for(i=0;i<=7;++i) { 
01D9C:  MOVLB  7
01D9E:  CLRF   x5D
01DA0:  MOVF   x5D,W
01DA2:  SUBLW  07
01DA4:  BNC   1DD0
....................       shift_right(&data,1,input(RTC_IO)); 
01DA6:  BSF    F94.4
01DA8:  BTFSC  F82.4
01DAA:  BRA    1DB0
01DAC:  BCF    FD8.0
01DAE:  BRA    1DB2
01DB0:  BSF    FD8.0
01DB2:  RRCF   x5E,F
....................       output_high(RTC_SCLK); 
01DB4:  BCF    F94.5
01DB6:  BSF    F8B.5
....................       delay_us(20); 
01DB8:  MOVLW  21
01DBA:  MOVWF  00
01DBC:  DECFSZ 00,F
01DBE:  BRA    1DBC
....................       output_low(RTC_SCLK); 
01DC0:  BCF    F94.5
01DC2:  BCF    F8B.5
....................       delay_us(20); 
01DC4:  MOVLW  21
01DC6:  MOVWF  00
01DC8:  DECFSZ 00,F
01DCA:  BRA    1DC8
....................    } 
01DCC:  INCF   x5D,F
01DCE:  BRA    1DA0
....................    output_low(RTC_RST); 
01DD0:  BCF    F95.3
01DD2:  BCF    F8C.3
....................  
....................    return(data); 
01DD4:  MOVFF  75E,01
.................... } 
01DD8:  MOVLB  0
01DDA:  RETLW  00
....................  
.................... void rtc_init() { 
....................    BYTE x; 
....................    output_low(RTC_RST); 
01DDC:  BCF    F95.3
01DDE:  BCF    F8C.3
....................    delay_us(20); 
01DE0:  MOVLW  21
01DE2:  MOVWF  00
01DE4:  DECFSZ 00,F
01DE6:  BRA    1DE4
....................    output_low(RTC_SCLK); 
01DE8:  BCF    F94.5
01DEA:  BCF    F8B.5
....................    write_ds1302(0x8e,0); 
01DEC:  MOVLW  8E
01DEE:  MOVLB  7
01DF0:  MOVWF  x5F
01DF2:  CLRF   x60
01DF4:  MOVLB  0
01DF6:  RCALL  1D70
....................    write_ds1302(0x90,0xa4); 
01DF8:  MOVLW  90
01DFA:  MOVLB  7
01DFC:  MOVWF  x5F
01DFE:  MOVLW  A4
01E00:  MOVWF  x60
01E02:  MOVLB  0
01E04:  RCALL  1D70
....................    x=read_ds1302(0x81); 
01E06:  MOVLW  81
01E08:  MOVLB  7
01E0A:  MOVWF  x5C
01E0C:  MOVLB  0
01E0E:  RCALL  1D86
01E10:  MOVFF  01,758
....................    if((x & 0x80)!=0) 
01E14:  MOVLB  7
01E16:  MOVF   x58,W
01E18:  ANDLW  80
01E1A:  BZ    1E28
....................      write_ds1302(0x80,0); 
01E1C:  MOVLW  80
01E1E:  MOVWF  x5F
01E20:  CLRF   x60
01E22:  MOVLB  0
01E24:  RCALL  1D70
01E26:  MOVLB  7
.................... } 
01E28:  MOVLB  0
01E2A:  GOTO   8E98 (RETURN)
....................  
.................... byte get_bcd(BYTE data) 
.................... { 
....................    byte nibh; 
....................    byte nibl; 
....................  
....................    nibh=data/10; 
*
0731A:  MOVFF  75E,761
0731E:  MOVLW  0A
07320:  MOVLB  7
07322:  MOVWF  x62
07324:  MOVLB  0
07326:  RCALL  71D6
07328:  MOVFF  01,75F
....................    nibl=data-(nibh*10); 
0732C:  MOVLB  7
0732E:  MOVF   x5F,W
07330:  MULLW  0A
07332:  MOVF   FF3,W
07334:  SUBWF  x5E,W
07336:  MOVWF  x60
....................  
....................    return((nibh<<4)|nibl); 
07338:  SWAPF  x5F,W
0733A:  MOVWF  00
0733C:  MOVLW  F0
0733E:  ANDWF  00,F
07340:  MOVF   00,W
07342:  IORWF  x60,W
07344:  MOVWF  01
.................... } 
07346:  MOVLB  0
07348:  RETLW  00
....................  
.................... byte rm_bcd(BYTE data) 
.................... { 
....................    byte i; 
....................  
....................    i=data; 
*
0409E:  MOVFF  75D,75E
....................    data=(i>>4)*10; 
040A2:  MOVLB  7
040A4:  SWAPF  x5E,W
040A6:  MOVWF  00
040A8:  MOVLW  0F
040AA:  ANDWF  00,F
040AC:  MOVF   00,W
040AE:  MULLW  0A
040B0:  MOVFF  FF3,75D
....................    data=data+(i<<4>>4); 
040B4:  SWAPF  x5E,W
040B6:  MOVWF  00
040B8:  MOVLW  F0
040BA:  ANDWF  00,F
040BC:  MOVF   00,W
040BE:  SWAPF  00,F
040C0:  MOVLW  0F
040C2:  ANDWF  00,F
040C4:  MOVF   00,W
040C6:  ADDWF  x5D,F
....................  
....................    return data; 
040C8:  MOVFF  75D,01
.................... } 
040CC:  MOVLB  0
040CE:  RETLW  00
....................  
.................... void rtc_set_datetime(BYTE day, BYTE mth, BYTE year, BYTE dow, BYTE hr, BYTE min) { 
....................  
....................    write_ds1302(0x86,get_bcd(day)); 
*
0734A:  MOVFF  758,75E
0734E:  RCALL  731A
07350:  MOVFF  01,75E
07354:  MOVLW  86
07356:  MOVLB  7
07358:  MOVWF  x5F
0735A:  MOVFF  01,760
0735E:  MOVLB  0
07360:  CALL   1D70
....................    write_ds1302(0x88,get_bcd(mth)); 
07364:  MOVFF  759,75E
07368:  RCALL  731A
0736A:  MOVFF  01,75E
0736E:  MOVLW  88
07370:  MOVLB  7
07372:  MOVWF  x5F
07374:  MOVFF  01,760
07378:  MOVLB  0
0737A:  CALL   1D70
....................    write_ds1302(0x8c,get_bcd(year)); 
0737E:  MOVFF  75A,75E
07382:  RCALL  731A
07384:  MOVFF  01,75E
07388:  MOVLW  8C
0738A:  MOVLB  7
0738C:  MOVWF  x5F
0738E:  MOVFF  01,760
07392:  MOVLB  0
07394:  CALL   1D70
....................    write_ds1302(0x8a,get_bcd(dow)); 
07398:  MOVFF  75B,75E
0739C:  RCALL  731A
0739E:  MOVFF  01,75E
073A2:  MOVLW  8A
073A4:  MOVLB  7
073A6:  MOVWF  x5F
073A8:  MOVFF  01,760
073AC:  MOVLB  0
073AE:  CALL   1D70
....................    write_ds1302(0x84,get_bcd(hr)); 
073B2:  MOVFF  75C,75E
073B6:  RCALL  731A
073B8:  MOVFF  01,75E
073BC:  MOVLW  84
073BE:  MOVLB  7
073C0:  MOVWF  x5F
073C2:  MOVFF  01,760
073C6:  MOVLB  0
073C8:  CALL   1D70
....................    write_ds1302(0x82,get_bcd(min)); 
073CC:  MOVFF  75D,75E
073D0:  RCALL  731A
073D2:  MOVFF  01,75E
073D6:  MOVLW  82
073D8:  MOVLB  7
073DA:  MOVWF  x5F
073DC:  MOVFF  01,760
073E0:  MOVLB  0
073E2:  CALL   1D70
....................    write_ds1302(0x80,get_bcd(0)); 
073E6:  MOVLB  7
073E8:  CLRF   x5E
073EA:  MOVLB  0
073EC:  RCALL  731A
073EE:  MOVFF  01,75E
073F2:  MOVLW  80
073F4:  MOVLB  7
073F6:  MOVWF  x5F
073F8:  MOVFF  01,760
073FC:  MOVLB  0
073FE:  CALL   1D70
.................... } 
07402:  GOTO   74EA (RETURN)
....................  
.................... void rtc_get_date(BYTE& day, BYTE& mth, BYTE& year, BYTE& dow) { 
....................    day = rm_bcd(read_ds1302(0x87)); 
*
08F02:  MOVLW  87
08F04:  MOVLB  7
08F06:  MOVWF  x5C
08F08:  MOVLB  0
08F0A:  CALL   1D86
08F0E:  MOVFF  01,758
08F12:  MOVFF  01,75D
08F16:  CALL   409E
08F1A:  MOVFF  01,94
....................    mth = rm_bcd(read_ds1302(0x89)); 
08F1E:  MOVLW  89
08F20:  MOVLB  7
08F22:  MOVWF  x5C
08F24:  MOVLB  0
08F26:  CALL   1D86
08F2A:  MOVFF  01,758
08F2E:  MOVFF  01,75D
08F32:  CALL   409E
08F36:  MOVFF  01,93
....................    year = rm_bcd(read_ds1302(0x8d)); 
08F3A:  MOVLW  8D
08F3C:  MOVLB  7
08F3E:  MOVWF  x5C
08F40:  MOVLB  0
08F42:  CALL   1D86
08F46:  MOVFF  01,758
08F4A:  MOVFF  01,75D
08F4E:  CALL   409E
08F52:  MOVFF  01,92
....................    dow = rm_bcd(read_ds1302(0x8b)); 
08F56:  MOVLW  8B
08F58:  MOVLB  7
08F5A:  MOVWF  x5C
08F5C:  MOVLB  0
08F5E:  CALL   1D86
08F62:  MOVFF  01,758
08F66:  MOVFF  01,75D
08F6A:  CALL   409E
08F6E:  MOVFF  01,98
.................... } 
....................  
.................... void rtc_get_time(BYTE& hr, BYTE& min, BYTE& sec) { 
....................    hr = rm_bcd(read_ds1302(0x85)); 
08F72:  MOVLW  85
08F74:  MOVLB  7
08F76:  MOVWF  x5C
08F78:  MOVLB  0
08F7A:  CALL   1D86
08F7E:  MOVFF  01,758
08F82:  MOVFF  01,75D
08F86:  CALL   409E
08F8A:  MOVFF  01,95
....................    min = rm_bcd(read_ds1302(0x83)); 
08F8E:  MOVLW  83
08F90:  MOVLB  7
08F92:  MOVWF  x5C
08F94:  MOVLB  0
08F96:  CALL   1D86
08F9A:  MOVFF  01,758
08F9E:  MOVFF  01,75D
08FA2:  CALL   409E
08FA6:  MOVFF  01,96
....................    sec = rm_bcd(read_ds1302(0x81)); 
08FAA:  MOVLW  81
08FAC:  MOVLB  7
08FAE:  MOVWF  x5C
08FB0:  MOVLB  0
08FB2:  CALL   1D86
08FB6:  MOVFF  01,758
08FBA:  MOVFF  01,75D
08FBE:  CALL   409E
08FC2:  MOVFF  01,97
.................... } 
....................  
.................... void rtc_write_nvr(BYTE address, BYTE data) { 
....................    write_ds1302(address|0xc0,data); 
.................... } 
....................  
.................... BYTE rtc_read_nvr(BYTE address) { 
....................     return(read_ds1302(address|0xc1)); 
.................... } 
....................  
.................... #include "FuncionesDisplay.h" 
....................  
.................... // Funcion para conversor analogo-digital 
.................... unsigned int16 sensores(int x){ 
.................... unsigned int16 y;set_adc_channel(x);delay_ms(1);y=read_adc();return (y); 
*
040F2:  MOVLB  7
040F4:  RLCF   x69,W
040F6:  MOVWF  00
040F8:  RLCF   00,F
040FA:  MOVLW  FC
040FC:  ANDWF  00,F
040FE:  MOVFF  00,01
04102:  MOVF   FC2,W
04104:  ANDLW  C3
04106:  IORWF  00,W
04108:  MOVWF  FC2
0410A:  MOVLW  01
0410C:  MOVWF  x6C
0410E:  MOVLB  0
04110:  CALL   15AA
04114:  BSF    FC2.1
04116:  BTFSC  FC2.1
04118:  BRA    4116
0411A:  MOVFF  FC4,76B
0411E:  MOVLB  7
04120:  MOVFF  FC3,76A
04124:  MOVFF  76A,01
04128:  MOVFF  76B,02
.................... } 
0412C:  MOVLB  0
0412E:  RETLW  00
....................  
....................  
.................... #define   ARRIBA           !input(PIN_B4) 
.................... #define   ABAJO            !input(PIN_B5) 
.................... #define   DERECHA          !input(PIN_B6) 
.................... #define   IZQUIERDA        !input(PIN_B7) 
.................... #define   VIDRIOUP         input(PIN_E1) 
.................... #define   VIDRIODN         input(PIN_E0) 
....................  
.................... #define   Alarma_on           output_bit(PIN_C0,1) 
.................... #define   Alarma_off          output_bit(PIN_C0,0) 
.................... #define   LuzBlanca_on        output_bit(PIN_D0,0) 
.................... #define   LuzBlanca_off       output_bit(PIN_D0,1) 
.................... #define   LuzUV_on            output_bit(PIN_D1,0) 
.................... #define   LuzUV_off           output_bit(PIN_D1,1) 
.................... #define   Aux_on              output_bit(PIN_D2,0) 
.................... #define   Aux_off             output_bit(PIN_D2,1) 
.................... #define   Motor_on            output_bit(PIN_C3,1) 
.................... #define   Motor_off           output_bit(PIN_C3,0) 
.................... #define   Motor2_on           output_bit(PIN_C2,1) 
.................... #define   Motor2_off          output_bit(PIN_C2,0) 
.................... #define   Toma_on             output_bit(PIN_C1,1) 
.................... #define   Toma_off            output_bit(PIN_C1,0) 
.................... #define   Display_on          output_bit(PIN_D5,1) 
.................... #define   Display_off         output_bit(PIN_D5,0) 
....................  
.................... #define OFF 0 
.................... #define ON  1 
.................... #define RX_BUFFER_SIZE  10 
.................... char Rx_Buffer[RX_BUFFER_SIZE+1]; 
.................... char Rx_Buffer2[RX_BUFFER_SIZE+1]; 
.................... char RX_Wr_Index=0; 
.................... char RX_Rd_Index=0; 
.................... char RX_Counter=0; 
....................  
.................... #define TX_BUFFER_SIZE  24 
.................... char Tx_Buffer[TX_BUFFER_SIZE+1]; 
.................... char TX_Wr_Index=0; 
.................... char TX_Counter=0; 
....................  
.................... #define 120 
.................... //#define 180 
.................... #define AperturaVidrio 0.2 //En metros 
.................... #define RS485  
....................  
.................... /* Tabla de Modulos, Primera Fila Ao Regular y el siguiente ao Bisiesto 
.................... E   F   M   A   M   J   J   A   S   O   N   D 
.................... 0   3   3   6   1   4   6   2   5   0   3   5 
.................... 0   3   4   0   2   5   0   3   6   1   4   6 
.................... */ 
.................... int8 Regular[12]={0,3,3,6,1,4,6,2,5,0,3,5}; 
.................... int8 Bisiesto[12]={0,3,4,0,2,5,0,3,6,1,4,6}; 
....................  
.................... short imprimir=0,flag_blower=0,flag_toma=0,flag_luz=0,w=0,flag_uv=0,flag_alarma2=0; 
.................... short tiempo_purga=0,tiempo_trabajo=0,flag_latencia=0,entro=0,GuardaEEPROM=0,Minutos=OFF,Segundos=OFF,Latencia=0,tiempo_uv=0,guardauv=0; 
.................... short flagClave=OFF,Encendio=OFF,UP=OFF,DOWN=OFF,RIGHT=OFF,LEFT=OFF,Alarmas=OFF,flagError=OFF; 
.................... short guardatrabajo=0,Lectura=0,tiempo_postpurga=0,ECO=0,CambioColorN=OFF,CambioColorR=OFF,CambioColorG=OFF,silencio=OFF; 
.................... int8 Menu=8,Opcion=1,negativo=10,G_l=0,G_h=0; 
.................... int8 q=0,r=0,l=0,h=0,Entero=0,Decimal1=0,Alarma=10,Alarma2=10,LuzUV=0,Vel1=50,Vel2=50; 
.................... int8 Year=18,Mes=9,Dia=13,Hora=0,Minuto=0,Segundo=0,dow=0,Dato_Exitoso=0,MenuAntt=8,instruccion=0,address=0,regl=0,regh=0,pwm1l=0,pwm1h=0,pwm2l=0,pwm2h=0; 
.................... int8 YearTx=0,MesTx=0,DiaTx=0,HoraTx=0,MinutoTx=0,dowTx=0,z=0,Dato2=0,Inicio=0,TipoClave=0,PantallaPrincipal=0,Digito=0,conteoError=0,velocidadInicial=60; 
.................... int8 sPurga=0,sPurgap=0,mPurga=0,mPurgap=0,sPPurga=0,sPPurgap=0,mPPurga=0,mPPurgap=0,sUV=0,mUV=0,sUVp=0,mUVp=0,UV2=10,Modulo=0,Opcion2=0,sSilencio=0,mSilencio=0,sSilenciop=0,mSilenciop=0; 
....................  
.................... unsigned int16 Temporal1=0,segundos_uv=0; 
....................  
.................... int16 t_latencia=0,minutos_uv=0,minutos_trabajo=0,G16=0,tClave=0,pwm1=0,pwm2=0,rpm=0,reg=0; 
.................... signed int  Tuv[4]={0,0,0,0};          // Tiempo de UV transcurrido(en Horas) 
.................... signed int  Ttrabajo[4]={0,0,0,0};        // Tiempo de trabajo transcurrido (en Horas) 
.................... signed int  Password[4]={0,0,0,0};        // Contrasena Almacenada de 4 digitos 
.................... signed int  Contrasena[4]={0,0,0,0};      // Contrasena de 4 digitos 
.................... float Inflow=0.0,Downflow=0.0,Filtro_Downflow=0.0,Filtro_Inflow=0.0,Diferencia=0.0,VInflow=0.0; 
.................... float Velocidad=0.0,x_uno=0.0,Exhaust=0.0,QExflow=0.0,tempo=0.0; 
.................... float Temporal=0.0,Temporal2=0.0,UVTime=0.0,TrabajoTime=0.0,barraDn=0.0,barraIn=0.0,pInDn=0,pInIn=0,Qexhaust=0.0,Qdownflow=0.0; 
....................  
.................... //float t=378.463968402560,f=-18275.0402762787;//Sensor 2 Posible bueno 
....................  
.................... //float p1=8.0175,p2=-52.32,p3=135.13,p4=-65.076,p5=-24.203; 
.................... //%0 280 218 063 
.................... //float p1=1.4591,p2=-2.4919,p3=6.5292,p4=13.865,p5=-18.740; 
....................  
.................... //%0 281 002 537 
.................... float p1=2.2585,p2=-6.0214,p3=16.151,p4=12.094,p5=-23.765; 
....................  
.................... float promedio[20]={0.0,0.0,0.0,0.0,0.0,0.0,0.0,0.0}; 
.................... float promedio2[20]={0.0,0.0,0.0,0.0,0.0,0.0,0.0,0.0}; 
.................... float PromPresion[8]={0.0,0.0,0.0,0.0,0.0,0.0,0.0,0.0}; 
.................... float prom[10]; 
.................... float zero_fabrica=199.0,zero_actual=0.0,Relacion=0.57; 
.................... float V1=0.0,G=2.0,Pa=71,Temp=20,TempK=0,HR=60,Psv=0,f=0,Xv=0,densidad=1,Z1=0,Pr=0; 
....................  
.................... int16 tiempos=0,tup=0,tdown=0,tright=0,tleft=0; 
.................... int8 i=0,l2=0,h2=0,Temperatura=0,tEncendido=0; 
.................... short Purga=OFF; 
.................... int8 VelMotor=0,VelMotor2=0,Prendio=10; 
....................  
.................... //Comunicacion//------------------------ 
.................... byte SlaveA0Tx[0X20]; 
.................... byte txbuf[100]; 
.................... byte dato=0;            //Contendr la informacin a enviar o recibir 
.................... byte direccion=0;       //Contendr la direccin del esclavo en el bus I2C 
.................... byte posicion=0;  
....................  
.................... typedef struct{ 
....................    float zero_actual; 
....................    float Diferencia; 
....................    int16 adc; 
....................    int8 negativo ; 
....................    float Velocidad; 
....................    int8 l; 
....................    int8 h; 
....................    float Flujo;    
....................    float Ajuste; 
....................    float promedio[20];    
.................... }SensorFlujo; 
....................  
.................... typedef struct{ 
....................    int16 adc; 
....................    float V1; 
....................    float G; 
....................    float Presion; 
....................    float RPT100; 
....................    int8 r; 
....................    int8 h;    
....................    float Ajuste;    
....................    float AjustePresion; 
....................    float PromPresion[20]; 
....................    float promediopresion; 
.................... }SensorPresion; 
....................  
.................... SensorFlujo Flujo[5]; 
.................... SensorPresion Presion[5]; 
.................... #include "Funciones.h" 
.................... void BorraBuffer(void){ 
.................... RX_Buffer[0]=0; 
.................... RX_Buffer[1]=0; 
.................... RX_Buffer[2]=0; 
.................... RX_Buffer[3]=0; 
.................... RX_Buffer[4]=0; 
.................... RX_Buffer[5]=0; 
.................... RX_Buffer[6]=0; 
.................... RX_Buffer[7]=0; 
.................... RX_Buffer[8]=0; 
.................... RX_Buffer[9]=0; 
....................  
.................... RX_Buffer2[0]=0; 
.................... RX_Buffer2[1]=0; 
.................... RX_Buffer2[2]=0; 
.................... RX_Buffer2[3]=0; 
.................... RX_Buffer2[4]=0; 
.................... RX_Buffer2[5]=0; 
.................... RX_Buffer2[6]=0; 
.................... RX_Buffer2[7]=0; 
.................... RX_Buffer2[8]=0; 
.................... RX_Buffer2[9]=0; 
....................  
.................... } 
....................  
.................... void Envio_I2C(direccion, posicion, dato){ 
....................  
....................    i2c_start();            // Comienzo comunicacin 
*
01510:  BSF    F95.7
01512:  MOVLW  05
01514:  MOVWF  00
01516:  DECFSZ 00,F
01518:  BRA    1516
0151A:  BSF    F95.6
0151C:  MOVLW  06
0151E:  MOVWF  00
01520:  DECFSZ 00,F
01522:  BRA    1520
01524:  BCF    F8C.7
01526:  BCF    F95.7
01528:  MOVLW  05
0152A:  MOVWF  00
0152C:  DECFSZ 00,F
0152E:  BRA    152C
01530:  BCF    F8C.6
01532:  BCF    F95.6
....................    i2c_write(direccion);   // Direccin del esclavo en el bus I2C 
01534:  MOVFF  762,765
01538:  RCALL  149A
....................    i2c_write(posicion);    // Posicin donde se guardara el dato transmitido 
0153A:  MOVFF  763,765
0153E:  RCALL  149A
....................    i2c_write(dato);        // Dato a transmitir 
01540:  MOVFF  764,765
01544:  RCALL  149A
....................    i2c_stop();             // Fin comunicacin 
01546:  BCF    F95.7
01548:  NOP   
0154A:  BSF    F95.6
0154C:  BTFSS  F83.6
0154E:  BRA    154C
01550:  MOVLW  05
01552:  MOVWF  00
01554:  DECFSZ 00,F
01556:  BRA    1554
01558:  BRA    155A
0155A:  NOP   
0155C:  BSF    F95.7
0155E:  MOVLW  05
01560:  MOVWF  00
01562:  DECFSZ 00,F
01564:  BRA    1562
....................  } 
01566:  GOTO   15A0 (RETURN)
....................  
.................... void Lectura_I2C (byte direccion, byte posicion, byte &dato) { 
....................  
....................    i2c_start();            // Comienzo de la comunicacin 
*
01644:  BSF    F95.7
01646:  MOVLW  05
01648:  MOVWF  00
0164A:  DECFSZ 00,F
0164C:  BRA    164A
0164E:  BSF    F95.6
01650:  MOVLW  06
01652:  MOVWF  00
01654:  DECFSZ 00,F
01656:  BRA    1654
01658:  BCF    F8C.7
0165A:  BCF    F95.7
0165C:  MOVLW  05
0165E:  MOVWF  00
01660:  DECFSZ 00,F
01662:  BRA    1660
01664:  BCF    F8C.6
01666:  BCF    F95.6
*
016E2:  BSF    F95.7
016E4:  MOVLW  05
016E6:  MOVWF  00
016E8:  DECFSZ 00,F
016EA:  BRA    16E8
016EC:  BSF    F95.6
016EE:  MOVLW  06
016F0:  MOVWF  00
016F2:  DECFSZ 00,F
016F4:  BRA    16F2
016F6:  BCF    F8C.7
016F8:  BCF    F95.7
016FA:  MOVLW  05
016FC:  MOVWF  00
016FE:  DECFSZ 00,F
01700:  BRA    16FE
01702:  BCF    F8C.6
01704:  BCF    F95.6
*
017A0:  BSF    F95.7
017A2:  MOVLW  05
017A4:  MOVWF  00
017A6:  DECFSZ 00,F
017A8:  BRA    17A6
017AA:  BSF    F95.6
017AC:  MOVLW  06
017AE:  MOVWF  00
017B0:  DECFSZ 00,F
017B2:  BRA    17B0
017B4:  BCF    F8C.7
017B6:  BCF    F95.7
017B8:  MOVLW  05
017BA:  MOVWF  00
017BC:  DECFSZ 00,F
017BE:  BRA    17BC
017C0:  BCF    F8C.6
017C2:  BCF    F95.6
....................    i2c_write(direccion);   // Direccin del esclavo en el bus I2C 
*
01668:  MOVFF  761,765
0166C:  MOVLB  0
0166E:  RCALL  149A
*
01706:  MOVFF  761,765
0170A:  MOVLB  0
0170C:  RCALL  149A
*
017C4:  MOVFF  761,765
017C8:  MOVLB  0
017CA:  RCALL  149A
....................    i2c_write(posicion);    // Posicin de donde se leer el dato en el esclavo 
*
01670:  MOVFF  762,765
01674:  RCALL  149A
*
0170E:  MOVFF  762,765
01712:  RCALL  149A
*
017CC:  MOVFF  762,765
017D0:  RCALL  149A
....................    i2c_start();            // Reinicio 
*
01676:  BSF    F95.7
01678:  MOVLW  05
0167A:  MOVWF  00
0167C:  DECFSZ 00,F
0167E:  BRA    167C
01680:  BSF    F95.6
01682:  MOVLW  06
01684:  MOVWF  00
01686:  DECFSZ 00,F
01688:  BRA    1686
0168A:  BTFSS  F83.6
0168C:  BRA    168A
0168E:  BCF    F8C.7
01690:  BCF    F95.7
01692:  MOVLW  05
01694:  MOVWF  00
01696:  DECFSZ 00,F
01698:  BRA    1696
0169A:  BCF    F8C.6
0169C:  BCF    F95.6
*
01714:  BSF    F95.7
01716:  MOVLW  05
01718:  MOVWF  00
0171A:  DECFSZ 00,F
0171C:  BRA    171A
0171E:  BSF    F95.6
01720:  MOVLW  06
01722:  MOVWF  00
01724:  DECFSZ 00,F
01726:  BRA    1724
01728:  BTFSS  F83.6
0172A:  BRA    1728
0172C:  BCF    F8C.7
0172E:  BCF    F95.7
01730:  MOVLW  05
01732:  MOVWF  00
01734:  DECFSZ 00,F
01736:  BRA    1734
01738:  BCF    F8C.6
0173A:  BCF    F95.6
*
017D2:  BSF    F95.7
017D4:  MOVLW  05
017D6:  MOVWF  00
017D8:  DECFSZ 00,F
017DA:  BRA    17D8
017DC:  BSF    F95.6
017DE:  MOVLW  06
017E0:  MOVWF  00
017E2:  DECFSZ 00,F
017E4:  BRA    17E2
017E6:  BTFSS  F83.6
017E8:  BRA    17E6
017EA:  BCF    F8C.7
017EC:  BCF    F95.7
017EE:  MOVLW  05
017F0:  MOVWF  00
017F2:  DECFSZ 00,F
017F4:  BRA    17F2
017F6:  BCF    F8C.6
017F8:  BCF    F95.6
....................    i2c_write(direccion+1); // Direccin del esclavo en modo lectura 
*
0169E:  MOVLW  01
016A0:  MOVLB  7
016A2:  ADDWF  x61,W
016A4:  MOVWF  x63
016A6:  MOVWF  x65
016A8:  MOVLB  0
016AA:  RCALL  149A
*
0173C:  MOVLW  01
0173E:  MOVLB  7
01740:  ADDWF  x61,W
01742:  MOVWF  x63
01744:  MOVWF  x65
01746:  MOVLB  0
01748:  RCALL  149A
*
017FA:  MOVLW  01
017FC:  MOVLB  7
017FE:  ADDWF  x61,W
01800:  MOVWF  x63
01802:  MOVWF  x65
01804:  MOVLB  0
01806:  RCALL  149A
....................    dato=i2c_read(0);       // Lectura del dato 
*
016AC:  CLRF   00
016AE:  RCALL  15D2
016B0:  MOVFF  01,30C
*
0174A:  CLRF   00
0174C:  RCALL  15D2
0174E:  MOVFF  01,30C
*
01808:  CLRF   00
0180A:  RCALL  15D2
0180C:  MOVFF  01,30C
....................    i2c_stop();             // Fin comunicacin 
*
016B4:  BCF    F95.7
016B6:  NOP   
016B8:  BSF    F95.6
016BA:  BTFSS  F83.6
016BC:  BRA    16BA
016BE:  MOVLW  05
016C0:  MOVWF  00
016C2:  DECFSZ 00,F
016C4:  BRA    16C2
016C6:  BRA    16C8
016C8:  NOP   
016CA:  BSF    F95.7
016CC:  MOVLW  05
016CE:  MOVWF  00
016D0:  DECFSZ 00,F
016D2:  BRA    16D0
*
01752:  BCF    F95.7
01754:  NOP   
01756:  BSF    F95.6
01758:  BTFSS  F83.6
0175A:  BRA    1758
0175C:  MOVLW  05
0175E:  MOVWF  00
01760:  DECFSZ 00,F
01762:  BRA    1760
01764:  BRA    1766
01766:  NOP   
01768:  BSF    F95.7
0176A:  MOVLW  05
0176C:  MOVWF  00
0176E:  DECFSZ 00,F
01770:  BRA    176E
*
01810:  BCF    F95.7
01812:  NOP   
01814:  BSF    F95.6
01816:  BTFSS  F83.6
01818:  BRA    1816
0181A:  MOVLW  05
0181C:  MOVWF  00
0181E:  DECFSZ 00,F
01820:  BRA    181E
01822:  BRA    1824
01824:  NOP   
01826:  BSF    F95.7
01828:  MOVLW  05
0182A:  MOVWF  00
0182C:  DECFSZ 00,F
0182E:  BRA    182C
.................... } 
....................  
.................... void Carga_Vector(void){ 
....................    SlaveA0Tx[0]=instruccion; 
*
0146E:  MOVFF  9B,288
....................    SlaveA0Tx[1]=address; 
01472:  MOVFF  9C,289
....................    SlaveA0Tx[2]=regl; 
01476:  MOVFF  9D,28A
....................    SlaveA0Tx[3]=regh; 
0147A:  MOVFF  9E,28B
....................    SlaveA0Tx[4]=pwm1l; 
0147E:  MOVFF  9F,28C
....................    SlaveA0Tx[5]=pwm1h; 
01482:  MOVFF  A0,28D
....................    SlaveA0Tx[6]=pwm2l; 
01486:  MOVFF  A1,28E
....................    SlaveA0Tx[7]=pwm2h; 
0148A:  MOVFF  A2,28F
....................    SlaveA0Tx[8]=txbuf[0]; 
0148E:  MOVFF  2A8,290
....................    SlaveA0Tx[9]=txbuf[49]; 
01492:  MOVFF  2D9,291
.................... } 
01496:  GOTO   156C (RETURN)
....................  
.................... void Lee_Vector(void){ 
....................     
.................... } 
*
00004:  GOTO   184E (RETURN)
....................  
.................... void Envio_Esclavos(void){ 
....................    Carga_Vector();    
*
0156A:  BRA    146E
....................    for(i=0;i<10;i++) 
0156C:  MOVLB  2
0156E:  CLRF   x80
01570:  MOVF   x80,W
01572:  SUBLW  09
01574:  BNC   15A6
....................    { 
....................       direccion=0xB0; 
01576:  MOVLW  B0
01578:  MOVLB  3
0157A:  MOVWF  x0D
....................       Envio_I2C(direccion,i,SlaveA0Tx[i]); 
0157C:  CLRF   03
0157E:  MOVLB  2
01580:  MOVF   x80,W
01582:  ADDLW  88
01584:  MOVWF  FE9
01586:  MOVLW  02
01588:  ADDWFC 03,W
0158A:  MOVWF  FEA
0158C:  MOVFF  FEF,761
01590:  MOVFF  30D,762
01594:  MOVFF  280,763
01598:  MOVFF  761,764
0159C:  MOVLB  0
0159E:  BRA    1510
....................    }  
015A0:  MOVLB  2
015A2:  INCF   x80,F
015A4:  BRA    1570
.................... } 
015A6:  MOVLB  0
015A8:  RETLW  00
.................... void Lectura_Esclavos(void){ 
....................    Lectura_I2C(0xB0, 0, dato);    //Lectura por I2C 
*
0163C:  MOVLW  B0
0163E:  MOVLB  7
01640:  MOVWF  x61
01642:  CLRF   x62
....................    txbuf[0]=(int8)dato; 
*
016D4:  MOVFF  30C,2A8
....................    Lectura_I2C(0xB0, 49, dato);    //Lectura por I2C 
016D8:  MOVLW  B0
016DA:  MOVLB  7
016DC:  MOVWF  x61
016DE:  MOVLW  31
016E0:  MOVWF  x62
....................    txbuf[49]=(int8)dato; 
*
01772:  MOVFF  30C,2D9
....................    if(txbuf[0]==10 && txbuf[49]==128){ 
01776:  MOVLB  2
01778:  MOVF   xA8,W
0177A:  SUBLW  0A
0177C:  BNZ   1850
0177E:  MOVF   xD9,W
01780:  SUBLW  80
01782:  BNZ   1850
....................       for(i=1;i<74;i++){ 
01784:  MOVLW  01
01786:  MOVWF  x80
01788:  MOVF   x80,W
0178A:  SUBLW  49
0178C:  BNC   1848
....................          direccion=0xB0;                        //Direccin en el bus I2c 
0178E:  MOVLW  B0
01790:  MOVLB  3
01792:  MOVWF  x0D
....................          posicion=i;                         //Posicin de memoria a leer 
01794:  MOVFF  280,30E
....................          Lectura_I2C(direccion, posicion, dato);    //Lectura por I2C 
01798:  MOVFF  30D,761
0179C:  MOVFF  30E,762
....................          txbuf[i]=(int8)dato; 
*
01830:  CLRF   03
01832:  MOVLB  2
01834:  MOVF   x80,W
01836:  ADDLW  A8
01838:  MOVWF  FE9
0183A:  MOVLW  02
0183C:  ADDWFC 03,W
0183E:  MOVWF  FEA
01840:  MOVFF  30C,FEF
....................       } 
01844:  INCF   x80,F
01846:  BRA    1788
....................       Lee_Vector();    
01848:  MOVLB  0
0184A:  GOTO   0004
0184E:  MOVLB  2
....................    } 
.................... } 
01850:  MOVLB  0
01852:  RETLW  00
....................  
.................... void readHolding(){ 
....................    instruccion=3; 
01854:  MOVLW  03
01856:  MOVWF  x9B
....................    address=1; 
01858:  MOVLW  01
0185A:  MOVWF  x9C
....................    regl=0; 
0185C:  CLRF   x9D
....................    regh=0; 
0185E:  CLRF   x9E
....................    Envio_Esclavos(); 
01860:  RCALL  156A
....................    delay_ms(200); 
01862:  MOVLW  C8
01864:  MOVLB  7
01866:  MOVWF  x6C
01868:  MOVLB  0
0186A:  RCALL  15AA
....................    Lectura_Esclavos();  
0186C:  RCALL  163C
.................... } 
0186E:  RETLW  00
....................  
....................  
.................... void writeCommand(int8 inst,int8 direccion,int16 data){ 
....................    instruccion=inst; 
01870:  MOVFF  75D,9B
....................    address=direccion; 
01874:  MOVFF  75E,9C
....................    regl=make8(data,0); 
01878:  MOVFF  75F,9D
0187C:  MOVLB  0
....................    regh=make8(data,1); 
0187E:  MOVFF  760,9E
01882:  MOVLB  0
....................    Envio_Esclavos(); 
01884:  RCALL  156A
....................    Lectura_Esclavos(); 
01886:  RCALL  163C
.................... } 
01888:  RETLW  00
....................  
.................... char bgetc(void){ 
....................    char c; 
....................    while(RX_Counter==0) 
....................       ; 
....................    c=Rx_Buffer2[RX_Rd_Index]; 
....................    if(++RX_Rd_Index>RX_BUFFER_SIZE) 
....................       RX_Rd_Index=0; 
....................    if(RX_Counter) 
....................       RX_Counter--; 
....................    return c; 
.................... } 
....................  
.................... void bputc(char c){ 
....................    char restart=0; 
....................    while(TX_Counter> (TX_BUFFER_SIZE-1)) 
....................       ; 
....................    if(TX_Counter==0) 
....................       restart=1; 
....................    TX_Buffer[TX_Wr_Index++]=c; 
....................    if(TX_Wr_Index>TX_BUFFER_SIZE) 
....................       TX_Wr_Index=0; 
....................     
....................    TX_Counter++; 
....................     
....................    if(restart==1) 
....................       enable_interrupts(int_tbe); 
.................... } 
....................  
.................... void SendDataDisplay(void){ 
.................... delay_us(10); 
*
01E60:  MOVLW  10
01E62:  MOVWF  00
01E64:  DECFSZ 00,F
01E66:  BRA    1E64
01E68:  NOP   
.................... putc(0xFF); 
01E6A:  MOVLW  FF
01E6C:  RCALL  1E58
.................... delay_us(10); 
01E6E:  MOVLW  10
01E70:  MOVWF  00
01E72:  DECFSZ 00,F
01E74:  BRA    1E72
01E76:  NOP   
.................... putc(0xFF); 
01E78:  MOVLW  FF
01E7A:  RCALL  1E58
.................... delay_us(10); 
01E7C:  MOVLW  10
01E7E:  MOVWF  00
01E80:  DECFSZ 00,F
01E82:  BRA    1E80
01E84:  NOP   
.................... putc(0xFF); 
01E86:  MOVLW  FF
01E88:  RCALL  1E58
.................... delay_us(10); 
01E8A:  MOVLW  10
01E8C:  MOVWF  00
01E8E:  DECFSZ 00,F
01E90:  BRA    1E8E
01E92:  NOP   
.................... } 
01E94:  RETLW  00
....................  
.................... short esBisiesto(int8 year) { 
....................      return ((year % 4 == 0 && year % 100 != 0) || year % 400 == 0); 
*
072C8:  MOVLB  7
072CA:  MOVF   x58,W
072CC:  ANDLW  03
072CE:  BNZ   72E2
072D0:  MOVFF  758,761
072D4:  MOVLW  64
072D6:  MOVWF  x62
072D8:  MOVLB  0
072DA:  RCALL  71D6
072DC:  MOVF   00,F
072DE:  BNZ   7310
072E0:  MOVLB  7
072E2:  CLRF   x5A
072E4:  MOVFF  758,759
072E8:  MOVLW  01
072EA:  MOVWF  x5C
072EC:  MOVLW  90
072EE:  MOVWF  x5B
072F0:  MOVLB  0
072F2:  BRA    7280
072F4:  MOVFF  00,759
072F8:  MOVLB  7
072FA:  MOVFF  03,75A
072FE:  MOVF   x59,F
07300:  BNZ   730C
07302:  MOVF   x5A,F
07304:  BTFSS  FD8.2
07306:  BRA    730C
07308:  MOVLB  0
0730A:  BRA    7310
0730C:  MOVLW  00
0730E:  BRA    7314
07310:  MOVLW  01
07312:  MOVLB  7
07314:  MOVWF  01
.................... } 
07316:  MOVLB  0
07318:  RETLW  00
....................  
.................... void LimitaDia(){ 
....................    if(MesTx>12) 
*
087E4:  MOVF   xA4,W
087E6:  SUBLW  0C
087E8:  BC    87EE
....................       MesTx=10; 
087EA:  MOVLW  0A
087EC:  MOVWF  xA4
....................    if(DiaTx>31) 
087EE:  MOVF   xA5,W
087F0:  SUBLW  1F
087F2:  BC    87F8
....................       DiaTx=16; 
087F4:  MOVLW  10
087F6:  MOVWF  xA5
....................    if(YearTx>99) 
087F8:  MOVF   xA3,W
087FA:  SUBLW  63
087FC:  BC    8802
....................       YearTx=18;    
087FE:  MOVLW  12
08800:  MOVWF  xA3
....................    if(HoraTx>24) 
08802:  MOVF   xA6,W
08804:  SUBLW  18
08806:  BC    880C
....................       HoraTx=11;       
08808:  MOVLW  0B
0880A:  MOVWF  xA6
....................    if(MinutoTx>59) 
0880C:  MOVF   xA7,W
0880E:  SUBLW  3B
08810:  BC    8816
....................       MinutoTx=30;       
08812:  MOVLW  1E
08814:  MOVWF  xA7
....................     
....................       if(MesTx==2){ 
08816:  MOVF   xA4,W
08818:  SUBLW  02
0881A:  BNZ   8840
....................          if(esBisiesto(YearTx)){ 
0881C:  MOVFF  A3,758
08820:  CALL   72C8
08824:  MOVF   01,F
08826:  BZ    8834
....................             if(DiaTx>29){ 
08828:  MOVF   xA5,W
0882A:  SUBLW  1D
0882C:  BC    8832
....................                DiaTx=29; 
0882E:  MOVLW  1D
08830:  MOVWF  xA5
....................             } 
....................          }else{ 
08832:  BRA    883E
....................             if(DiaTx>28){ 
08834:  MOVF   xA5,W
08836:  SUBLW  1C
08838:  BC    883E
....................                DiaTx=28; 
0883A:  MOVLW  1C
0883C:  MOVWF  xA5
....................             } 
....................          } 
....................       }else{ 
0883E:  BRA    886A
....................          if(MesTx<=7){ 
08840:  MOVF   xA4,W
08842:  SUBLW  07
08844:  BNC   8858
....................             if(MesTx % 2 ==0){ 
08846:  MOVF   xA4,W
08848:  ANDLW  01
0884A:  BNZ   8856
....................                if(DiaTx>30){ 
0884C:  MOVF   xA5,W
0884E:  SUBLW  1E
08850:  BC    8856
....................                   DiaTx=30;                    
08852:  MOVLW  1E
08854:  MOVWF  xA5
....................                } 
....................             } 
....................          }else{ 
08856:  BRA    886A
....................             if(MesTx % 2 ==1){ 
08858:  MOVF   xA4,W
0885A:  ANDLW  01
0885C:  SUBLW  01
0885E:  BNZ   886A
....................                if(DiaTx>30){ 
08860:  MOVF   xA5,W
08862:  SUBLW  1E
08864:  BC    886A
....................                   DiaTx=30;  
08866:  MOVLW  1E
08868:  MOVWF  xA5
....................                } 
....................             } 
....................          } 
....................       } 
.................... } 
0886A:  GOTO   BC3E (RETURN)
....................  
.................... void LeeDisplay(void){ 
....................    if(Dato_Exitoso==5){ 
*
03EFA:  MOVF   x99,W
03EFC:  SUBLW  05
03EFE:  BTFSS  FD8.2
03F00:  BRA    408E
....................          RX_Buffer[0]=RX_Buffer2[0]; 
03F02:  MOVFF  3C,31
....................          RX_Buffer[1]=RX_Buffer2[1]; 
03F06:  MOVFF  3D,32
....................          RX_Buffer[2]=RX_Buffer2[2]; 
03F0A:  MOVFF  3E,33
....................          RX_Buffer[3]=RX_Buffer2[3]; 
03F0E:  MOVFF  3F,34
....................          RX_Buffer[4]=RX_Buffer2[4]; 
03F12:  MOVFF  40,35
....................          RX_Buffer[5]=RX_Buffer2[5]; 
03F16:  MOVFF  41,36
....................          RX_Buffer[6]=RX_Buffer2[6]; 
03F1A:  MOVFF  42,37
....................          RX_Buffer[7]=RX_Buffer2[7]; 
03F1E:  MOVFF  43,38
....................          RX_Buffer[8]=RX_Buffer2[8]; 
03F22:  MOVFF  44,39
....................          RX_Buffer[9]=RX_Buffer2[9]; 
03F26:  MOVFF  45,3A
....................           
....................       if(RX_Buffer[3]==0x01){// Pregunta por la pagina en la que esta el display,01 es Contrasea de Acceso 
03F2A:  DECFSZ 34,W
03F2C:  BRA    3F3C
....................          Menu=0; 
03F2E:  CLRF   x82
....................          if(MenuAntt!=Menu) 
03F30:  MOVF   x82,W
03F32:  SUBWF  x9A,W
03F34:  BZ    3F3A
....................             MenuAntt=Menu; 
03F36:  MOVFF  82,9A
....................       }else if(RX_Buffer[3]==0x02){//02 es Menu de Tiempos 
03F3A:  BRA    408C
03F3C:  MOVF   34,W
03F3E:  SUBLW  02
03F40:  BNZ   3F52
....................          Menu=1; 
03F42:  MOVLW  01
03F44:  MOVWF  x82
....................          if(MenuAntt!=Menu) 
03F46:  MOVF   x82,W
03F48:  SUBWF  x9A,W
03F4A:  BZ    3F50
....................             MenuAntt=Menu; 
03F4C:  MOVFF  82,9A
....................       }else if(RX_Buffer[3]==0x03){//03 es Tiempo de Purga 
03F50:  BRA    408C
03F52:  MOVF   34,W
03F54:  SUBLW  03
03F56:  BNZ   3F68
....................          Menu=2; 
03F58:  MOVLW  02
03F5A:  MOVWF  x82
....................          if(MenuAntt!=Menu) 
03F5C:  MOVF   x82,W
03F5E:  SUBWF  x9A,W
03F60:  BZ    3F66
....................             MenuAntt=Menu; 
03F62:  MOVFF  82,9A
....................       }else if(RX_Buffer[3]==0x04){//04 es Tiempo de Post-Purga 
03F66:  BRA    408C
03F68:  MOVF   34,W
03F6A:  SUBLW  04
03F6C:  BNZ   3F7E
....................          Menu=3; 
03F6E:  MOVLW  03
03F70:  MOVWF  x82
....................          if(MenuAntt!=Menu) 
03F72:  MOVF   x82,W
03F74:  SUBWF  x9A,W
03F76:  BZ    3F7C
....................             MenuAntt=Menu; 
03F78:  MOVFF  82,9A
....................       }else if(RX_Buffer[3]==0x05){//05 es Tiempo de Purga Corriendo 
03F7C:  BRA    408C
03F7E:  MOVF   34,W
03F80:  SUBLW  05
03F82:  BNZ   3F94
....................          Menu=4; 
03F84:  MOVLW  04
03F86:  MOVWF  x82
....................          if(MenuAntt!=Menu) 
03F88:  MOVF   x82,W
03F8A:  SUBWF  x9A,W
03F8C:  BZ    3F92
....................             MenuAntt=Menu; 
03F8E:  MOVFF  82,9A
....................       }else if(RX_Buffer[3]==0x06){//06 es Pantalla Principal 
03F92:  BRA    408C
03F94:  MOVF   34,W
03F96:  SUBLW  06
03F98:  BNZ   3FAA
....................          Menu=5; 
03F9A:  MOVLW  05
03F9C:  MOVWF  x82
....................          if(MenuAntt!=Menu) 
03F9E:  MOVF   x82,W
03FA0:  SUBWF  x9A,W
03FA2:  BZ    3FA8
....................             MenuAntt=Menu; 
03FA4:  MOVFF  82,9A
....................       }else if(RX_Buffer[3]==0x07){//07 es Tiempo de Post-Purga Corriendo 
03FA8:  BRA    408C
03FAA:  MOVF   34,W
03FAC:  SUBLW  07
03FAE:  BNZ   3FC0
....................          Menu=6; 
03FB0:  MOVLW  06
03FB2:  MOVWF  x82
....................          if(MenuAntt!=Menu) 
03FB4:  MOVF   x82,W
03FB6:  SUBWF  x9A,W
03FB8:  BZ    3FBE
....................             MenuAntt=Menu; 
03FBA:  MOVFF  82,9A
....................       }else if(RX_Buffer[3]==0x08){//08 es Fecha y hora 
03FBE:  BRA    408C
03FC0:  MOVF   34,W
03FC2:  SUBLW  08
03FC4:  BNZ   3FD6
....................          Menu=7; 
03FC6:  MOVLW  07
03FC8:  MOVWF  x82
....................          if(MenuAntt!=Menu) 
03FCA:  MOVF   x82,W
03FCC:  SUBWF  x9A,W
03FCE:  BZ    3FD4
....................             MenuAntt=Menu; 
03FD0:  MOVFF  82,9A
....................       }else if(RX_Buffer[3]==0x09){//09 es off 
03FD4:  BRA    408C
03FD6:  MOVF   34,W
03FD8:  SUBLW  09
03FDA:  BNZ   3FEC
....................          Menu=8; 
03FDC:  MOVLW  08
03FDE:  MOVWF  x82
....................          if(MenuAntt!=Menu) 
03FE0:  MOVF   x82,W
03FE2:  SUBWF  x9A,W
03FE4:  BZ    3FEA
....................             MenuAntt=Menu; 
03FE6:  MOVFF  82,9A
....................       }else if(RX_Buffer[3]==0x0a){//0a es TiempoUV 
03FEA:  BRA    408C
03FEC:  MOVF   34,W
03FEE:  SUBLW  0A
03FF0:  BNZ   4002
....................          Menu=9; 
03FF2:  MOVLW  09
03FF4:  MOVWF  x82
....................          if(MenuAntt!=Menu) 
03FF6:  MOVF   x82,W
03FF8:  SUBWF  x9A,W
03FFA:  BZ    4000
....................             MenuAntt=Menu; 
03FFC:  MOVFF  82,9A
....................       }else if(RX_Buffer[3]==0x0f){//0f es Recibe caracteres de contrasea desde display 
04000:  BRA    408C
04002:  MOVF   34,W
04004:  SUBLW  0F
04006:  BNZ   400A
....................           
....................       }else if(RX_Buffer[3]==0x1a){//1a es Mantenimiento 
04008:  BRA    408C
0400A:  MOVF   34,W
0400C:  SUBLW  1A
0400E:  BNZ   4020
....................          Menu=10; 
04010:  MOVLW  0A
04012:  MOVWF  x82
....................          if(MenuAntt!=Menu) 
04014:  MOVF   x82,W
04016:  SUBWF  x9A,W
04018:  BZ    401E
....................             MenuAntt=Menu; 
0401A:  MOVFF  82,9A
....................       }else if(RX_Buffer[3]==0x1b){//1b es Menu de clave correcta 
0401E:  BRA    408C
04020:  MOVF   34,W
04022:  SUBLW  1B
04024:  BNZ   4036
....................          Menu=15; 
04026:  MOVLW  0F
04028:  MOVWF  x82
....................          if(MenuAntt!=Menu) 
0402A:  MOVF   x82,W
0402C:  SUBWF  x9A,W
0402E:  BZ    4034
....................             MenuAntt=Menu; 
04030:  MOVFF  82,9A
....................       }else if(RX_Buffer[3]==0x1c){//1c es Menu de clave incorrecta 
04034:  BRA    408C
04036:  MOVF   34,W
04038:  SUBLW  1C
0403A:  BNZ   404C
....................          Menu=16; 
0403C:  MOVLW  10
0403E:  MOVWF  x82
....................          if(MenuAntt!=Menu) 
04040:  MOVF   x82,W
04042:  SUBWF  x9A,W
04044:  BZ    404A
....................             MenuAntt=Menu; 
04046:  MOVFF  82,9A
....................       }else if(RX_Buffer[3]==0x1d){//1c es Menu de Silencio Alarmas 
0404A:  BRA    408C
0404C:  MOVF   34,W
0404E:  SUBLW  1D
04050:  BNZ   4062
....................          Menu=17; 
04052:  MOVLW  11
04054:  MOVWF  x82
....................          if(MenuAntt!=Menu) 
04056:  MOVF   x82,W
04058:  SUBWF  x9A,W
0405A:  BZ    4060
....................             MenuAntt=Menu; 
0405C:  MOVFF  82,9A
....................       }else if(RX_Buffer[3]==0x2c){//2c es Menu de Configuracion de Parametros 
04060:  BRA    408C
04062:  MOVF   34,W
04064:  SUBLW  2C
04066:  BNZ   4078
....................          Menu=100; 
04068:  MOVLW  64
0406A:  MOVWF  x82
....................          if(MenuAntt!=Menu) 
0406C:  MOVF   x82,W
0406E:  SUBWF  x9A,W
04070:  BZ    4076
....................             MenuAntt=Menu; 
04072:  MOVFF  82,9A
....................       }else if(RX_Buffer[3]==0xcc){//cc es Menu de Bienvenida 
04076:  BRA    408C
04078:  MOVF   34,W
0407A:  SUBLW  CC
0407C:  BNZ   408C
....................          Menu=240; 
0407E:  MOVLW  F0
04080:  MOVWF  x82
....................          if(MenuAntt!=240) 
04082:  MOVF   x9A,W
04084:  SUBLW  F0
04086:  BZ    408C
....................             MenuAntt=Menu; 
04088:  MOVFF  82,9A
....................             //reset_cpu(); 
....................       } 
....................    }else{ 
0408C:  BRA    409A
....................       for(z=0;z<RX_BUFFER_SIZE;z++){ 
0408E:  CLRF   xA9
04090:  MOVF   xA9,W
04092:  SUBLW  09
04094:  BNC   409A
....................             //Rx_Buffer[z]=0; 
....................             //Rx_Buffer2[z]=0; 
....................          } 
04096:  INCF   xA9,F
04098:  BRA    4090
....................    } 
.................... } 
0409A:  GOTO   8EFC (RETURN)
....................  
.................... Float LeerFlujo(int8 media,int8 canal){ 
*
0528E:  MOVLB  7
05290:  CLRF   x5D
05292:  CLRF   x5C
05294:  CLRF   x5B
05296:  CLRF   x5A
....................     float dif=0.0; 
....................     Flujo[canal].adc=sensores(canal); 
05298:  CLRF   x67
0529A:  MOVFF  759,766
0529E:  CLRF   x69
052A0:  MOVLW  69
052A2:  MOVWF  x68
052A4:  MOVLB  0
052A6:  CALL   40D0
052AA:  MOVFF  01,75E
052AE:  MOVLW  08
052B0:  MOVLB  7
052B2:  ADDWF  01,W
052B4:  MOVWF  01
052B6:  MOVLW  00
052B8:  ADDWFC 02,W
052BA:  MOVWF  03
052BC:  MOVF   01,W
052BE:  ADDLW  0F
052C0:  MOVWF  01
052C2:  MOVLW  03
052C4:  ADDWFC 03,F
052C6:  MOVFF  01,75E
052CA:  MOVFF  03,75F
052CE:  MOVFF  759,769
052D2:  MOVLB  0
052D4:  CALL   40F2
052D8:  MOVFF  75F,FEA
052DC:  MOVFF  75E,FE9
052E0:  MOVFF  02,FEC
052E4:  MOVF   FED,F
052E6:  MOVFF  01,FEF
....................      
....................     dif=zero_fabrica-Flujo[canal].zero_actual; 
052EA:  MOVLB  7
052EC:  CLRF   x67
052EE:  MOVFF  759,766
052F2:  CLRF   x69
052F4:  MOVLW  69
052F6:  MOVWF  x68
052F8:  MOVLB  0
052FA:  CALL   40D0
052FE:  MOVFF  02,75F
05302:  MOVFF  01,75E
05306:  MOVLW  0F
05308:  MOVLB  7
0530A:  ADDWF  01,W
0530C:  MOVWF  FE9
0530E:  MOVLW  03
05310:  ADDWFC 02,W
05312:  MOVWF  FEA
05314:  MOVFF  FEF,00
05318:  MOVFF  FEC,01
0531C:  MOVFF  FEC,02
05320:  MOVFF  FEC,03
05324:  MOVFF  FEA,75F
05328:  MOVFF  FE9,75E
0532C:  BSF    FD8.1
0532E:  MOVFF  23D,79F
05332:  MOVFF  23C,79E
05336:  MOVFF  23B,79D
0533A:  MOVFF  23A,79C
0533E:  MOVFF  03,7A3
05342:  MOVFF  02,7A2
05346:  MOVFF  01,7A1
0534A:  MOVFF  00,7A0
0534E:  MOVLB  0
05350:  CALL   1E96
05354:  MOVFF  75F,FEA
05358:  MOVFF  75E,FE9
0535C:  MOVFF  03,75D
05360:  MOVFF  02,75C
05364:  MOVFF  01,75B
05368:  MOVFF  00,75A
....................     x_uno=Flujo[canal].adc+dif; 
0536C:  MOVLB  7
0536E:  CLRF   x67
05370:  MOVFF  759,766
05374:  CLRF   x69
05376:  MOVLW  69
05378:  MOVWF  x68
0537A:  MOVLB  0
0537C:  CALL   40D0
05380:  MOVFF  01,75E
05384:  MOVLW  08
05386:  MOVLB  7
05388:  ADDWF  01,W
0538A:  MOVWF  01
0538C:  MOVLW  00
0538E:  ADDWFC 02,W
05390:  MOVWF  03
05392:  MOVF   01,W
05394:  ADDLW  0F
05396:  MOVWF  FE9
05398:  MOVLW  03
0539A:  ADDWFC 03,W
0539C:  MOVWF  FEA
0539E:  MOVFF  FEC,75F
053A2:  MOVF   FED,F
053A4:  MOVFF  FEF,75E
053A8:  MOVFF  75F,79D
053AC:  MOVFF  75E,79C
053B0:  MOVLB  0
053B2:  CALL   188A
053B6:  MOVFF  FEA,761
053BA:  MOVFF  FE9,760
053BE:  BCF    FD8.1
053C0:  MOVFF  03,79F
053C4:  MOVFF  02,79E
053C8:  MOVFF  01,79D
053CC:  MOVFF  00,79C
053D0:  MOVFF  75D,7A3
053D4:  MOVFF  75C,7A2
053D8:  MOVFF  75B,7A1
053DC:  MOVFF  75A,7A0
053E0:  CALL   1E96
053E4:  MOVFF  761,FEA
053E8:  MOVFF  760,FE9
053EC:  MOVFF  03,109
053F0:  MOVFF  02,108
053F4:  MOVFF  01,107
053F8:  MOVFF  00,106
....................     /* 
....................     if(Flujo[canal].negativo==10){ 
....................       x_uno=Flujo[canal].adc+Flujo[canal].Diferencia; 
....................     } 
....................     if(Flujo[canal].negativo==20){ 
....................       x_uno=Flujo[canal].adc-Flujo[canal].Diferencia; 
....................     } 
....................     */ 
....................     //x_cuadrado=x_uno*x_uno; 
....................     //x_cubo=x_uno*x_cuadrado; 
....................     x_uno=(x_uno/1023)*5; 
053FC:  MOVFF  109,79B
05400:  MOVFF  108,79A
05404:  MOVFF  107,799
05408:  MOVFF  106,798
0540C:  MOVLB  7
0540E:  CLRF   x9F
05410:  MOVLW  C0
05412:  MOVWF  x9E
05414:  MOVLW  7F
05416:  MOVWF  x9D
05418:  MOVLW  88
0541A:  MOVWF  x9C
0541C:  MOVLB  0
0541E:  CALL   18C0
05422:  MOVFF  00,75E
05426:  MOVFF  01,75F
0542A:  MOVFF  02,760
0542E:  MOVFF  03,761
05432:  MOVFF  03,79B
05436:  MOVFF  02,79A
0543A:  MOVFF  01,799
0543E:  MOVFF  00,798
05442:  MOVLB  7
05444:  CLRF   x9F
05446:  CLRF   x9E
05448:  MOVLW  20
0544A:  MOVWF  x9D
0544C:  MOVLW  81
0544E:  MOVWF  x9C
05450:  MOVLB  0
05452:  CALL   1A1E
05456:  MOVFF  03,109
0545A:  MOVFF  02,108
0545E:  MOVFF  01,107
05462:  MOVFF  00,106
....................     //Flujo[canal].Velocidad=(x_cubo*a)+(x_cuadrado*b)+(x_uno*c)+d;  
....................     Flujo[canal].Velocidad=(pow(x_uno,4)*p1)+(pow(x_uno,3)*p2)+(pow(x_uno,2)*p3)+(x_uno*p4)+p5;  
05466:  MOVLB  7
05468:  CLRF   x67
0546A:  MOVFF  759,766
0546E:  CLRF   x69
05470:  MOVLW  69
05472:  MOVWF  x68
05474:  MOVLB  0
05476:  CALL   40D0
0547A:  MOVFF  01,75E
0547E:  MOVLW  0B
05480:  MOVLB  7
05482:  ADDWF  01,W
05484:  MOVWF  01
05486:  MOVLW  00
05488:  ADDWFC 02,W
0548A:  MOVWF  03
0548C:  MOVF   01,W
0548E:  ADDLW  0F
05490:  MOVWF  01
05492:  MOVLW  03
05494:  ADDWFC 03,F
05496:  MOVFF  01,75E
0549A:  MOVFF  03,75F
0549E:  MOVFF  109,76F
054A2:  MOVFF  108,76E
054A6:  MOVFF  107,76D
054AA:  MOVFF  106,76C
054AE:  CLRF   x73
054B0:  CLRF   x72
054B2:  CLRF   x71
054B4:  MOVLW  81
054B6:  MOVWF  x70
054B8:  MOVLB  0
054BA:  RCALL  4F82
054BC:  MOVFF  00,760
054C0:  MOVFF  01,761
054C4:  MOVFF  02,762
054C8:  MOVFF  03,763
054CC:  MOVFF  03,79B
054D0:  MOVFF  02,79A
054D4:  MOVFF  01,799
054D8:  MOVFF  00,798
054DC:  MOVFF  141,79F
054E0:  MOVFF  140,79E
054E4:  MOVFF  13F,79D
054E8:  MOVFF  13E,79C
054EC:  CALL   1A1E
054F0:  MOVFF  00,760
054F4:  MOVFF  01,761
054F8:  MOVFF  02,762
054FC:  MOVFF  03,763
05500:  MOVFF  109,76F
05504:  MOVFF  108,76E
05508:  MOVFF  107,76D
0550C:  MOVFF  106,76C
05510:  MOVLB  7
05512:  CLRF   x73
05514:  CLRF   x72
05516:  MOVLW  40
05518:  MOVWF  x71
0551A:  MOVLW  80
0551C:  MOVWF  x70
0551E:  MOVLB  0
05520:  RCALL  4F82
05522:  MOVFF  00,764
05526:  MOVFF  01,765
0552A:  MOVFF  02,766
0552E:  MOVFF  03,767
05532:  MOVFF  03,79B
05536:  MOVFF  02,79A
0553A:  MOVFF  01,799
0553E:  MOVFF  00,798
05542:  MOVFF  145,79F
05546:  MOVFF  144,79E
0554A:  MOVFF  143,79D
0554E:  MOVFF  142,79C
05552:  CALL   1A1E
05556:  MOVFF  FEA,765
0555A:  MOVFF  FE9,764
0555E:  BCF    FD8.1
05560:  MOVFF  763,79F
05564:  MOVFF  762,79E
05568:  MOVFF  761,79D
0556C:  MOVFF  760,79C
05570:  MOVFF  03,7A3
05574:  MOVFF  02,7A2
05578:  MOVFF  01,7A1
0557C:  MOVFF  00,7A0
05580:  CALL   1E96
05584:  MOVFF  765,FEA
05588:  MOVFF  764,FE9
0558C:  MOVFF  00,760
05590:  MOVFF  01,761
05594:  MOVFF  02,762
05598:  MOVFF  03,763
0559C:  MOVFF  109,76F
055A0:  MOVFF  108,76E
055A4:  MOVFF  107,76D
055A8:  MOVFF  106,76C
055AC:  MOVLB  7
055AE:  CLRF   x73
055B0:  CLRF   x72
055B2:  CLRF   x71
055B4:  MOVLW  80
055B6:  MOVWF  x70
055B8:  MOVLB  0
055BA:  RCALL  4F82
055BC:  MOVFF  00,766
055C0:  MOVFF  01,767
055C4:  MOVFF  02,768
055C8:  MOVFF  03,769
055CC:  MOVFF  03,79B
055D0:  MOVFF  02,79A
055D4:  MOVFF  01,799
055D8:  MOVFF  00,798
055DC:  MOVFF  149,79F
055E0:  MOVFF  148,79E
055E4:  MOVFF  147,79D
055E8:  MOVFF  146,79C
055EC:  CALL   1A1E
055F0:  MOVFF  FEA,767
055F4:  MOVFF  FE9,766
055F8:  BCF    FD8.1
055FA:  MOVFF  763,79F
055FE:  MOVFF  762,79E
05602:  MOVFF  761,79D
05606:  MOVFF  760,79C
0560A:  MOVFF  03,7A3
0560E:  MOVFF  02,7A2
05612:  MOVFF  01,7A1
05616:  MOVFF  00,7A0
0561A:  CALL   1E96
0561E:  MOVFF  767,FEA
05622:  MOVFF  766,FE9
05626:  MOVFF  00,760
0562A:  MOVFF  01,761
0562E:  MOVFF  02,762
05632:  MOVFF  03,763
05636:  MOVFF  109,79B
0563A:  MOVFF  108,79A
0563E:  MOVFF  107,799
05642:  MOVFF  106,798
05646:  MOVFF  14D,79F
0564A:  MOVFF  14C,79E
0564E:  MOVFF  14B,79D
05652:  MOVFF  14A,79C
05656:  CALL   1A1E
0565A:  MOVFF  FEA,769
0565E:  MOVFF  FE9,768
05662:  BCF    FD8.1
05664:  MOVFF  763,79F
05668:  MOVFF  762,79E
0566C:  MOVFF  761,79D
05670:  MOVFF  760,79C
05674:  MOVFF  03,7A3
05678:  MOVFF  02,7A2
0567C:  MOVFF  01,7A1
05680:  MOVFF  00,7A0
05684:  CALL   1E96
05688:  MOVFF  769,FEA
0568C:  MOVFF  768,FE9
05690:  MOVFF  00,760
05694:  MOVFF  01,761
05698:  MOVFF  02,762
0569C:  MOVFF  03,763
056A0:  MOVFF  FEA,76B
056A4:  MOVFF  FE9,76A
056A8:  BCF    FD8.1
056AA:  MOVFF  03,79F
056AE:  MOVFF  02,79E
056B2:  MOVFF  01,79D
056B6:  MOVFF  00,79C
056BA:  MOVFF  151,7A3
056BE:  MOVFF  150,7A2
056C2:  MOVFF  14F,7A1
056C6:  MOVFF  14E,7A0
056CA:  CALL   1E96
056CE:  MOVFF  76B,FEA
056D2:  MOVFF  76A,FE9
056D6:  MOVFF  75F,FEA
056DA:  MOVFF  75E,FE9
056DE:  MOVFF  00,FEF
056E2:  MOVFF  01,FEC
056E6:  MOVFF  02,FEC
056EA:  MOVFF  03,FEC
....................     //Velocidad=Velocidad*correccion;//Ajuste de Temperatura 
....................     //Flujo[canal].Velocidad=Flujo[canal].Velocidad-0.08; 
....................      
....................     if(Flujo[canal].Velocidad<0.0) 
056EE:  MOVLB  7
056F0:  CLRF   x67
056F2:  MOVFF  759,766
056F6:  CLRF   x69
056F8:  MOVLW  69
056FA:  MOVWF  x68
056FC:  MOVLB  0
056FE:  CALL   40D0
05702:  MOVFF  01,75E
05706:  MOVLW  0B
05708:  MOVLB  7
0570A:  ADDWF  01,W
0570C:  MOVWF  01
0570E:  MOVLW  00
05710:  ADDWFC 02,W
05712:  MOVWF  03
05714:  MOVF   01,W
05716:  ADDLW  0F
05718:  MOVWF  FE9
0571A:  MOVLW  03
0571C:  ADDWFC 03,W
0571E:  MOVWF  FEA
05720:  MOVFF  FEF,75E
05724:  MOVFF  FEC,75F
05728:  MOVFF  FEC,760
0572C:  MOVFF  FEC,761
05730:  MOVFF  761,79B
05734:  MOVFF  760,79A
05738:  MOVFF  75F,799
0573C:  MOVFF  75E,798
05740:  CLRF   x9F
05742:  CLRF   x9E
05744:  CLRF   x9D
05746:  CLRF   x9C
05748:  MOVLB  0
0574A:  CALL   2F26
0574E:  BNC   578A
....................       Flujo[canal].Velocidad=0.0; 
05750:  MOVLB  7
05752:  CLRF   x67
05754:  MOVFF  759,766
05758:  CLRF   x69
0575A:  MOVLW  69
0575C:  MOVWF  x68
0575E:  MOVLB  0
05760:  CALL   40D0
05764:  MOVFF  01,75E
05768:  MOVLW  0B
0576A:  MOVLB  7
0576C:  ADDWF  01,W
0576E:  MOVWF  01
05770:  MOVLW  00
05772:  ADDWFC 02,W
05774:  MOVWF  03
05776:  MOVF   01,W
05778:  ADDLW  0F
0577A:  MOVWF  FE9
0577C:  MOVLW  03
0577E:  ADDWFC 03,W
05780:  MOVWF  FEA
05782:  CLRF   FEF
05784:  CLRF   FEC
05786:  CLRF   FEC
05788:  CLRF   FEC
....................       
....................      if(Flujo[canal].l>media-1) 
0578A:  MOVLB  7
0578C:  CLRF   x67
0578E:  MOVFF  759,766
05792:  CLRF   x69
05794:  MOVLW  69
05796:  MOVWF  x68
05798:  MOVLB  0
0579A:  CALL   40D0
0579E:  MOVFF  02,75F
057A2:  MOVFF  01,75E
057A6:  MOVLW  0F
057A8:  MOVLB  7
057AA:  ADDWF  01,W
057AC:  MOVWF  01
057AE:  MOVLW  00
057B0:  ADDWFC 02,W
057B2:  MOVWF  03
057B4:  MOVF   01,W
057B6:  ADDLW  0F
057B8:  MOVWF  FE9
057BA:  MOVLW  03
057BC:  ADDWFC 03,W
057BE:  MOVWF  FEA
057C0:  MOVFF  FEF,75E
057C4:  MOVLW  01
057C6:  SUBWF  x58,W
057C8:  SUBWF  x5E,W
057CA:  BZ    5800
057CC:  BNC   5800
....................        {Flujo[canal].l=0;} 
057CE:  CLRF   x67
057D0:  MOVFF  759,766
057D4:  CLRF   x69
057D6:  MOVLW  69
057D8:  MOVWF  x68
057DA:  MOVLB  0
057DC:  CALL   40D0
057E0:  MOVFF  01,75E
057E4:  MOVLW  0F
057E6:  MOVLB  7
057E8:  ADDWF  01,W
057EA:  MOVWF  01
057EC:  MOVLW  00
057EE:  ADDWFC 02,W
057F0:  MOVWF  03
057F2:  MOVF   01,W
057F4:  ADDLW  0F
057F6:  MOVWF  FE9
057F8:  MOVLW  03
057FA:  ADDWFC 03,W
057FC:  MOVWF  FEA
057FE:  CLRF   FEF
....................       
....................      Flujo[canal].promedio[Flujo[canal].l]=Flujo[canal].Velocidad; 
05800:  CLRF   x67
05802:  MOVFF  759,766
05806:  CLRF   x69
05808:  MOVLW  69
0580A:  MOVWF  x68
0580C:  MOVLB  0
0580E:  CALL   40D0
05812:  MOVFF  02,75F
05816:  MOVFF  01,75E
0581A:  MOVLW  19
0581C:  MOVLB  7
0581E:  ADDWF  x5E,F
05820:  MOVLW  00
05822:  ADDWFC x5F,F
05824:  CLRF   x67
05826:  MOVFF  759,766
0582A:  CLRF   x69
0582C:  MOVLW  69
0582E:  MOVWF  x68
05830:  MOVLB  0
05832:  CALL   40D0
05836:  MOVFF  02,761
0583A:  MOVFF  01,760
0583E:  MOVLW  0F
05840:  MOVLB  7
05842:  ADDWF  01,W
05844:  MOVWF  01
05846:  MOVLW  00
05848:  ADDWFC 02,W
0584A:  MOVWF  03
0584C:  MOVF   01,W
0584E:  ADDLW  0F
05850:  MOVWF  FE9
05852:  MOVLW  03
05854:  ADDWFC 03,W
05856:  MOVWF  FEA
05858:  CLRF   x67
0585A:  MOVFF  FEF,766
0585E:  CLRF   x69
05860:  MOVLW  04
05862:  MOVWF  x68
05864:  MOVLB  0
05866:  CALL   40D0
0586A:  MOVFF  02,03
0586E:  MOVF   01,W
05870:  MOVLB  7
05872:  ADDWF  x5E,W
05874:  MOVWF  01
05876:  MOVF   x5F,W
05878:  ADDWFC 03,F
0587A:  MOVF   01,W
0587C:  ADDLW  0F
0587E:  MOVWF  01
05880:  MOVLW  03
05882:  ADDWFC 03,F
05884:  MOVFF  01,75E
05888:  MOVFF  03,75F
0588C:  CLRF   x67
0588E:  MOVFF  759,766
05892:  CLRF   x69
05894:  MOVLW  69
05896:  MOVWF  x68
05898:  MOVLB  0
0589A:  CALL   40D0
0589E:  MOVFF  02,761
058A2:  MOVFF  01,760
058A6:  MOVLW  0B
058A8:  MOVLB  7
058AA:  ADDWF  01,W
058AC:  MOVWF  01
058AE:  MOVLW  00
058B0:  ADDWFC 02,W
058B2:  MOVWF  03
058B4:  MOVF   01,W
058B6:  ADDLW  0F
058B8:  MOVWF  FE9
058BA:  MOVLW  03
058BC:  ADDWFC 03,W
058BE:  MOVWF  FEA
058C0:  MOVFF  FEF,00
058C4:  MOVFF  FEC,01
058C8:  MOVFF  FEC,02
058CC:  MOVFF  FEC,03
058D0:  MOVFF  75F,FEA
058D4:  MOVFF  75E,FE9
058D8:  MOVFF  00,FEF
058DC:  MOVFF  01,FEC
058E0:  MOVFF  02,FEC
058E4:  MOVFF  03,FEC
....................      Flujo[canal].l++; 
058E8:  CLRF   x67
058EA:  MOVFF  759,766
058EE:  CLRF   x69
058F0:  MOVLW  69
058F2:  MOVWF  x68
058F4:  MOVLB  0
058F6:  CALL   40D0
058FA:  MOVFF  01,75E
058FE:  MOVLW  0F
05900:  MOVLB  7
05902:  ADDWF  01,W
05904:  MOVWF  01
05906:  MOVLW  00
05908:  ADDWFC 02,W
0590A:  MOVWF  03
0590C:  MOVF   01,W
0590E:  ADDLW  0F
05910:  MOVWF  FE9
05912:  MOVLW  03
05914:  ADDWFC 03,W
05916:  MOVWF  FEA
05918:  INCF   FEF,F
....................      Flujo[canal].Flujo=0; 
0591A:  CLRF   x67
0591C:  MOVFF  759,766
05920:  CLRF   x69
05922:  MOVLW  69
05924:  MOVWF  x68
05926:  MOVLB  0
05928:  CALL   40D0
0592C:  MOVFF  01,75E
05930:  MOVLW  11
05932:  MOVLB  7
05934:  ADDWF  01,W
05936:  MOVWF  01
05938:  MOVLW  00
0593A:  ADDWFC 02,W
0593C:  MOVWF  03
0593E:  MOVF   01,W
05940:  ADDLW  0F
05942:  MOVWF  FE9
05944:  MOVLW  03
05946:  ADDWFC 03,W
05948:  MOVWF  FEA
0594A:  CLRF   FEF
0594C:  CLRF   FEC
0594E:  CLRF   FEC
05950:  CLRF   FEC
....................       
....................      for(q=0;q<=(media-1);q++){ 
05952:  MOVLB  0
05954:  CLRF   x87
05956:  MOVLW  01
05958:  MOVLB  7
0595A:  SUBWF  x58,W
0595C:  MOVLB  0
0595E:  SUBWF  x87,W
05960:  BZ    5966
05962:  BTFSC  FD8.0
05964:  BRA    5A6C
....................         Flujo[canal].Flujo+=Flujo[canal].promedio[q]; 
05966:  MOVLB  7
05968:  CLRF   x67
0596A:  MOVFF  759,766
0596E:  CLRF   x69
05970:  MOVLW  69
05972:  MOVWF  x68
05974:  MOVLB  0
05976:  CALL   40D0
0597A:  MOVFF  01,75E
0597E:  MOVLW  11
05980:  MOVLB  7
05982:  ADDWF  01,W
05984:  MOVWF  01
05986:  MOVLW  00
05988:  ADDWFC 02,W
0598A:  MOVWF  03
0598C:  MOVF   01,W
0598E:  ADDLW  0F
05990:  MOVWF  01
05992:  MOVLW  03
05994:  ADDWFC 03,F
05996:  MOVFF  01,75E
0599A:  MOVFF  03,75F
0599E:  MOVFF  03,FEA
059A2:  MOVFF  01,FE9
059A6:  MOVFF  FEF,760
059AA:  MOVFF  FEC,761
059AE:  MOVFF  FEC,762
059B2:  MOVFF  FEC,763
059B6:  CLRF   x67
059B8:  MOVFF  759,766
059BC:  CLRF   x69
059BE:  MOVLW  69
059C0:  MOVWF  x68
059C2:  MOVLB  0
059C4:  CALL   40D0
059C8:  MOVFF  02,765
059CC:  MOVFF  01,764
059D0:  MOVLW  19
059D2:  MOVLB  7
059D4:  ADDWF  x64,F
059D6:  MOVLW  00
059D8:  ADDWFC x65,F
059DA:  CLRF   x67
059DC:  MOVFF  87,766
059E0:  CLRF   x69
059E2:  MOVLW  04
059E4:  MOVWF  x68
059E6:  MOVLB  0
059E8:  CALL   40D0
059EC:  MOVFF  02,03
059F0:  MOVF   01,W
059F2:  MOVLB  7
059F4:  ADDWF  x64,W
059F6:  MOVWF  01
059F8:  MOVF   x65,W
059FA:  ADDWFC 03,F
059FC:  MOVF   01,W
059FE:  ADDLW  0F
05A00:  MOVWF  FE9
05A02:  MOVLW  03
05A04:  ADDWFC 03,W
05A06:  MOVWF  FEA
05A08:  MOVFF  FEF,00
05A0C:  MOVFF  FEC,01
05A10:  MOVFF  FEC,02
05A14:  MOVFF  FEC,03
05A18:  MOVFF  FEA,765
05A1C:  MOVFF  FE9,764
05A20:  BCF    FD8.1
05A22:  MOVFF  763,79F
05A26:  MOVFF  762,79E
05A2A:  MOVFF  761,79D
05A2E:  MOVFF  760,79C
05A32:  MOVFF  03,7A3
05A36:  MOVFF  02,7A2
05A3A:  MOVFF  01,7A1
05A3E:  MOVFF  00,7A0
05A42:  MOVLB  0
05A44:  CALL   1E96
05A48:  MOVFF  765,FEA
05A4C:  MOVFF  764,FE9
05A50:  MOVFF  75F,FEA
05A54:  MOVFF  75E,FE9
05A58:  MOVFF  00,FEF
05A5C:  MOVFF  01,FEC
05A60:  MOVFF  02,FEC
05A64:  MOVFF  03,FEC
....................      }  
05A68:  INCF   x87,F
05A6A:  BRA    5956
....................      Flujo[canal].Flujo=(Flujo[canal].Flujo/media)*Flujo[canal].Ajuste;  
05A6C:  MOVLB  7
05A6E:  CLRF   x67
05A70:  MOVFF  759,766
05A74:  CLRF   x69
05A76:  MOVLW  69
05A78:  MOVWF  x68
05A7A:  MOVLB  0
05A7C:  CALL   40D0
05A80:  MOVFF  01,75E
05A84:  MOVLW  11
05A86:  MOVLB  7
05A88:  ADDWF  01,W
05A8A:  MOVWF  01
05A8C:  MOVLW  00
05A8E:  ADDWFC 02,W
05A90:  MOVWF  03
05A92:  MOVF   01,W
05A94:  ADDLW  0F
05A96:  MOVWF  01
05A98:  MOVLW  03
05A9A:  ADDWFC 03,F
05A9C:  MOVFF  01,75E
05AA0:  MOVFF  03,75F
05AA4:  CLRF   x67
05AA6:  MOVFF  759,766
05AAA:  CLRF   x69
05AAC:  MOVLW  69
05AAE:  MOVWF  x68
05AB0:  MOVLB  0
05AB2:  CALL   40D0
05AB6:  MOVFF  01,760
05ABA:  MOVLW  11
05ABC:  MOVLB  7
05ABE:  ADDWF  01,W
05AC0:  MOVWF  01
05AC2:  MOVLW  00
05AC4:  ADDWFC 02,W
05AC6:  MOVWF  03
05AC8:  MOVF   01,W
05ACA:  ADDLW  0F
05ACC:  MOVWF  FE9
05ACE:  MOVLW  03
05AD0:  ADDWFC 03,W
05AD2:  MOVWF  FEA
05AD4:  MOVFF  FEF,760
05AD8:  MOVFF  FEC,761
05ADC:  MOVFF  FEC,762
05AE0:  MOVFF  FEC,763
05AE4:  CLRF   x9D
05AE6:  MOVFF  758,79C
05AEA:  MOVLB  0
05AEC:  CALL   188A
05AF0:  MOVFF  763,79B
05AF4:  MOVFF  762,79A
05AF8:  MOVFF  761,799
05AFC:  MOVFF  760,798
05B00:  MOVFF  03,79F
05B04:  MOVFF  02,79E
05B08:  MOVFF  01,79D
05B0C:  MOVFF  00,79C
05B10:  CALL   18C0
05B14:  MOVFF  00,760
05B18:  MOVFF  01,761
05B1C:  MOVFF  02,762
05B20:  MOVFF  03,763
05B24:  MOVLB  7
05B26:  CLRF   x67
05B28:  MOVFF  759,766
05B2C:  CLRF   x69
05B2E:  MOVLW  69
05B30:  MOVWF  x68
05B32:  MOVLB  0
05B34:  CALL   40D0
05B38:  MOVFF  02,765
05B3C:  MOVFF  01,764
05B40:  MOVLW  15
05B42:  MOVLB  7
05B44:  ADDWF  01,W
05B46:  MOVWF  01
05B48:  MOVLW  00
05B4A:  ADDWFC 02,W
05B4C:  MOVWF  03
05B4E:  MOVF   01,W
05B50:  ADDLW  0F
05B52:  MOVWF  FE9
05B54:  MOVLW  03
05B56:  ADDWFC 03,W
05B58:  MOVWF  FEA
05B5A:  MOVFF  FEF,00
05B5E:  MOVFF  FEC,01
05B62:  MOVFF  FEC,02
05B66:  MOVFF  FEC,03
05B6A:  MOVFF  763,79B
05B6E:  MOVFF  762,79A
05B72:  MOVFF  761,799
05B76:  MOVFF  760,798
05B7A:  MOVFF  03,79F
05B7E:  MOVFF  02,79E
05B82:  MOVFF  01,79D
05B86:  MOVFF  00,79C
05B8A:  MOVLB  0
05B8C:  CALL   1A1E
05B90:  MOVFF  75F,FEA
05B94:  MOVFF  75E,FE9
05B98:  MOVFF  00,FEF
05B9C:  MOVFF  01,FEC
05BA0:  MOVFF  02,FEC
05BA4:  MOVFF  03,FEC
....................       
....................      Flujo[canal].Flujo=Flujo[canal].Flujo/(densidad*0.00384846*3600);//0.0052810296=Area con tubo de 8.2cm 
05BA8:  MOVLB  7
05BAA:  CLRF   x67
05BAC:  MOVFF  759,766
05BB0:  CLRF   x69
05BB2:  MOVLW  69
05BB4:  MOVWF  x68
05BB6:  MOVLB  0
05BB8:  CALL   40D0
05BBC:  MOVFF  01,75E
05BC0:  MOVLW  11
05BC2:  MOVLB  7
05BC4:  ADDWF  01,W
05BC6:  MOVWF  01
05BC8:  MOVLW  00
05BCA:  ADDWFC 02,W
05BCC:  MOVWF  03
05BCE:  MOVF   01,W
05BD0:  ADDLW  0F
05BD2:  MOVWF  01
05BD4:  MOVLW  03
05BD6:  ADDWFC 03,F
05BD8:  MOVFF  01,75E
05BDC:  MOVFF  03,75F
05BE0:  CLRF   x67
05BE2:  MOVFF  759,766
05BE6:  CLRF   x69
05BE8:  MOVLW  69
05BEA:  MOVWF  x68
05BEC:  MOVLB  0
05BEE:  CALL   40D0
05BF2:  MOVFF  01,760
05BF6:  MOVLW  11
05BF8:  MOVLB  7
05BFA:  ADDWF  01,W
05BFC:  MOVWF  01
05BFE:  MOVLW  00
05C00:  ADDWFC 02,W
05C02:  MOVWF  03
05C04:  MOVF   01,W
05C06:  ADDLW  0F
05C08:  MOVWF  FE9
05C0A:  MOVLW  03
05C0C:  ADDWFC 03,W
05C0E:  MOVWF  FEA
05C10:  MOVFF  FEF,760
05C14:  MOVFF  FEC,761
05C18:  MOVFF  FEC,762
05C1C:  MOVFF  FEC,763
05C20:  MOVFF  26D,79B
05C24:  MOVFF  26C,79A
05C28:  MOVFF  26B,799
05C2C:  MOVFF  26A,798
05C30:  MOVLW  72
05C32:  MOVWF  x9F
05C34:  MOVLW  36
05C36:  MOVWF  x9E
05C38:  MOVLW  7C
05C3A:  MOVWF  x9D
05C3C:  MOVLW  76
05C3E:  MOVWF  x9C
05C40:  MOVLB  0
05C42:  CALL   1A1E
05C46:  MOVFF  00,764
05C4A:  MOVFF  01,765
05C4E:  MOVFF  02,766
05C52:  MOVFF  03,767
05C56:  MOVFF  03,79B
05C5A:  MOVFF  02,79A
05C5E:  MOVFF  01,799
05C62:  MOVFF  00,798
05C66:  MOVLB  7
05C68:  CLRF   x9F
05C6A:  CLRF   x9E
05C6C:  MOVLW  61
05C6E:  MOVWF  x9D
05C70:  MOVLW  8A
05C72:  MOVWF  x9C
05C74:  MOVLB  0
05C76:  CALL   1A1E
05C7A:  MOVFF  763,79B
05C7E:  MOVFF  762,79A
05C82:  MOVFF  761,799
05C86:  MOVFF  760,798
05C8A:  MOVFF  03,79F
05C8E:  MOVFF  02,79E
05C92:  MOVFF  01,79D
05C96:  MOVFF  00,79C
05C9A:  CALL   18C0
05C9E:  MOVFF  75F,FEA
05CA2:  MOVFF  75E,FE9
05CA6:  MOVFF  00,FEF
05CAA:  MOVFF  01,FEC
05CAE:  MOVFF  02,FEC
05CB2:  MOVFF  03,FEC
....................      return Flujo[canal].Flujo; 
05CB6:  MOVLB  7
05CB8:  CLRF   x67
05CBA:  MOVFF  759,766
05CBE:  CLRF   x69
05CC0:  MOVLW  69
05CC2:  MOVWF  x68
05CC4:  MOVLB  0
05CC6:  CALL   40D0
05CCA:  MOVFF  02,75F
05CCE:  MOVFF  01,75E
05CD2:  MOVLW  11
05CD4:  MOVLB  7
05CD6:  ADDWF  01,W
05CD8:  MOVWF  01
05CDA:  MOVLW  00
05CDC:  ADDWFC 02,W
05CDE:  MOVWF  03
05CE0:  MOVF   01,W
05CE2:  ADDLW  0F
05CE4:  MOVWF  FE9
05CE6:  MOVLW  03
05CE8:  ADDWFC 03,W
05CEA:  MOVWF  FEA
05CEC:  MOVFF  FEF,00
05CF0:  MOVFF  FEC,01
05CF4:  MOVFF  FEC,02
05CF8:  MOVFF  FEC,03
.................... } 
05CFC:  MOVLB  0
05CFE:  GOTO   8FD6 (RETURN)
....................  
.................... float D6FW101(int8 media,canal){ 
....................    static float a1=-0.054947,b1=0.56321,c1=-0.45502; 
....................    float flow=0.0,promedio=0.0,adc=0.0,Qdn=0,flowV=0.0;//Areas en m2 
....................    int8 pos=0; 
....................     
....................    promedio=0.0; 
....................    Qdn=0.0; 
....................    adc=sensores(canal); 
....................    adc=(adc/1023)*5.0; 
....................    flow=(adc*adc*a1)+(adc*b1)+c1; 
....................    flow=flow-0.04; 
....................    if(flow<0.0) 
....................       flow=0.0; 
....................        
....................    //Qdn=Adn*flow;    
....................    //flowV=Qdn/AdnV; 
....................    flowV=flow; 
....................     
....................    if(pos>media-1) 
....................       pos=0; 
....................     
....................    prom[pos]=flowV; 
....................    pos++; 
....................     
....................    for(i=0;i<=(media-1);i++){ 
....................       promedio+=prom[h]; 
....................    }  
....................    promedio=promedio/media; 
....................    return promedio*Flujo[canal].Ajuste; 
....................    //return flowV; 
....................  
.................... } 
....................  
.................... float Leer_Sensor_Presion(int8 media,int8 canal){ 
....................    Presion[canal].promediopresion=0.0; 
05D02:  MOVLB  7
05D04:  CLRF   x67
05D06:  MOVFF  759,766
05D0A:  CLRF   x69
05D0C:  MOVLW  70
05D0E:  MOVWF  x68
05D10:  MOVLB  0
05D12:  CALL   40D0
05D16:  MOVFF  01,75A
05D1A:  MOVLW  6C
05D1C:  MOVLB  7
05D1E:  ADDWF  01,W
05D20:  MOVWF  01
05D22:  MOVLW  00
05D24:  ADDWFC 02,W
05D26:  MOVWF  03
05D28:  MOVF   01,W
05D2A:  ADDLW  1C
05D2C:  MOVWF  FE9
05D2E:  MOVLW  05
05D30:  ADDWFC 03,W
05D32:  MOVWF  FEA
05D34:  CLRF   FEF
05D36:  CLRF   FEC
05D38:  CLRF   FEC
05D3A:  CLRF   FEC
....................     
....................    Presion[canal].adc=sensores(canal); 
05D3C:  CLRF   x67
05D3E:  MOVFF  759,766
05D42:  CLRF   x69
05D44:  MOVLW  70
05D46:  MOVWF  x68
05D48:  MOVLB  0
05D4A:  CALL   40D0
05D4E:  MOVFF  01,75A
05D52:  MOVLW  1C
05D54:  MOVLB  7
05D56:  ADDWF  01,W
05D58:  MOVWF  01
05D5A:  MOVLW  05
05D5C:  ADDWFC 02,W
05D5E:  MOVWF  03
05D60:  MOVFF  01,75A
05D64:  MOVWF  x5B
05D66:  MOVFF  759,769
05D6A:  MOVLB  0
05D6C:  CALL   40F2
05D70:  MOVFF  75B,FEA
05D74:  MOVFF  75A,FE9
05D78:  MOVFF  02,FEC
05D7C:  MOVF   FED,F
05D7E:  MOVFF  01,FEF
....................    Presion[canal].V1=Presion[canal].adc;  
05D82:  MOVLB  7
05D84:  CLRF   x67
05D86:  MOVFF  759,766
05D8A:  CLRF   x69
05D8C:  MOVLW  70
05D8E:  MOVWF  x68
05D90:  MOVLB  0
05D92:  CALL   40D0
05D96:  MOVFF  01,75A
05D9A:  MOVLW  02
05D9C:  MOVLB  7
05D9E:  ADDWF  01,W
05DA0:  MOVWF  01
05DA2:  MOVLW  00
05DA4:  ADDWFC 02,W
05DA6:  MOVWF  03
05DA8:  MOVF   01,W
05DAA:  ADDLW  1C
05DAC:  MOVWF  01
05DAE:  MOVLW  05
05DB0:  ADDWFC 03,F
05DB2:  MOVFF  01,75A
05DB6:  MOVFF  03,75B
05DBA:  CLRF   x67
05DBC:  MOVFF  759,766
05DC0:  CLRF   x69
05DC2:  MOVLW  70
05DC4:  MOVWF  x68
05DC6:  MOVLB  0
05DC8:  CALL   40D0
05DCC:  MOVFF  02,75D
05DD0:  MOVFF  01,75C
05DD4:  MOVLW  1C
05DD6:  MOVLB  7
05DD8:  ADDWF  01,W
05DDA:  MOVWF  FE9
05DDC:  MOVLW  05
05DDE:  ADDWFC 02,W
05DE0:  MOVWF  FEA
05DE2:  MOVFF  FEC,03
05DE6:  MOVF   FED,F
05DE8:  MOVFF  FEF,79C
05DEC:  MOVFF  03,79D
05DF0:  MOVLB  0
05DF2:  CALL   188A
05DF6:  MOVFF  75B,FEA
05DFA:  MOVFF  75A,FE9
05DFE:  MOVFF  00,FEF
05E02:  MOVFF  01,FEC
05E06:  MOVFF  02,FEC
05E0A:  MOVFF  03,FEC
....................    Presion[canal].Presion=(Presion[canal].V1/Presion[canal].G)-1.0;// Presion=(Voltaje/Ganancia)-1 
05E0E:  MOVLB  7
05E10:  CLRF   x67
05E12:  MOVFF  759,766
05E16:  CLRF   x69
05E18:  MOVLW  70
05E1A:  MOVWF  x68
05E1C:  MOVLB  0
05E1E:  CALL   40D0
05E22:  MOVFF  01,75A
05E26:  MOVLW  0A
05E28:  MOVLB  7
05E2A:  ADDWF  01,W
05E2C:  MOVWF  01
05E2E:  MOVLW  00
05E30:  ADDWFC 02,W
05E32:  MOVWF  03
05E34:  MOVF   01,W
05E36:  ADDLW  1C
05E38:  MOVWF  01
05E3A:  MOVLW  05
05E3C:  ADDWFC 03,F
05E3E:  MOVFF  01,75A
05E42:  MOVFF  03,75B
05E46:  CLRF   x67
05E48:  MOVFF  759,766
05E4C:  CLRF   x69
05E4E:  MOVLW  70
05E50:  MOVWF  x68
05E52:  MOVLB  0
05E54:  CALL   40D0
05E58:  MOVFF  01,75C
05E5C:  MOVLW  02
05E5E:  MOVLB  7
05E60:  ADDWF  01,W
05E62:  MOVWF  01
05E64:  MOVLW  00
05E66:  ADDWFC 02,W
05E68:  MOVWF  03
05E6A:  MOVF   01,W
05E6C:  ADDLW  1C
05E6E:  MOVWF  FE9
05E70:  MOVLW  05
05E72:  ADDWFC 03,W
05E74:  MOVWF  FEA
05E76:  MOVFF  FEF,75C
05E7A:  MOVFF  FEC,75D
05E7E:  MOVFF  FEC,75E
05E82:  MOVFF  FEC,75F
05E86:  CLRF   x67
05E88:  MOVFF  759,766
05E8C:  CLRF   x69
05E8E:  MOVLW  70
05E90:  MOVWF  x68
05E92:  MOVLB  0
05E94:  CALL   40D0
05E98:  MOVFF  02,761
05E9C:  MOVFF  01,760
05EA0:  MOVLW  06
05EA2:  MOVLB  7
05EA4:  ADDWF  01,W
05EA6:  MOVWF  01
05EA8:  MOVLW  00
05EAA:  ADDWFC 02,W
05EAC:  MOVWF  03
05EAE:  MOVF   01,W
05EB0:  ADDLW  1C
05EB2:  MOVWF  FE9
05EB4:  MOVLW  05
05EB6:  ADDWFC 03,W
05EB8:  MOVWF  FEA
05EBA:  MOVFF  FEF,00
05EBE:  MOVFF  FEC,01
05EC2:  MOVFF  FEC,02
05EC6:  MOVFF  FEC,03
05ECA:  MOVFF  75F,79B
05ECE:  MOVFF  75E,79A
05ED2:  MOVFF  75D,799
05ED6:  MOVFF  75C,798
05EDA:  MOVFF  03,79F
05EDE:  MOVFF  02,79E
05EE2:  MOVFF  01,79D
05EE6:  MOVFF  00,79C
05EEA:  MOVLB  0
05EEC:  CALL   18C0
05EF0:  MOVFF  00,75C
05EF4:  MOVFF  01,75D
05EF8:  MOVFF  02,75E
05EFC:  MOVFF  03,75F
05F00:  MOVFF  FEA,761
05F04:  MOVFF  FE9,760
05F08:  BSF    FD8.1
05F0A:  MOVFF  03,79F
05F0E:  MOVFF  02,79E
05F12:  MOVFF  01,79D
05F16:  MOVFF  00,79C
05F1A:  MOVLB  7
05F1C:  CLRF   xA3
05F1E:  CLRF   xA2
05F20:  CLRF   xA1
05F22:  MOVLW  7F
05F24:  MOVWF  xA0
05F26:  MOVLB  0
05F28:  CALL   1E96
05F2C:  MOVFF  761,FEA
05F30:  MOVFF  760,FE9
05F34:  MOVFF  75B,FEA
05F38:  MOVFF  75A,FE9
05F3C:  MOVFF  00,FEF
05F40:  MOVFF  01,FEC
05F44:  MOVFF  02,FEC
05F48:  MOVFF  03,FEC
....................    //V1 = (x_uno*5.0)/1023.0;   //Lectura de Divisor de Voltaje de PT100 con resistencia de 1k (+-10%) 
....................    //if(canal==4){ 
....................    //   Presion[canal].Presion=(Presion[canal].V1/Gdn)-1.0;// Presion=(Voltaje/Ganancia)-1 
....................    //}else{ 
....................    //} 
....................   
....................    if(canal==4){//Ajuste para sensor MPXV5004GV 
05F4C:  MOVLB  7
05F4E:  MOVF   x59,W
05F50:  SUBLW  04
05F52:  BTFSS  FD8.2
05F54:  BRA    6108
....................       if(Presion[canal].Presion>0) 
05F56:  CLRF   x67
05F58:  MOVFF  759,766
05F5C:  CLRF   x69
05F5E:  MOVLW  70
05F60:  MOVWF  x68
05F62:  MOVLB  0
05F64:  CALL   40D0
05F68:  MOVFF  01,75A
05F6C:  MOVLW  0A
05F6E:  MOVLB  7
05F70:  ADDWF  01,W
05F72:  MOVWF  01
05F74:  MOVLW  00
05F76:  ADDWFC 02,W
05F78:  MOVWF  03
05F7A:  MOVF   01,W
05F7C:  ADDLW  1C
05F7E:  MOVWF  FE9
05F80:  MOVLW  05
05F82:  ADDWFC 03,W
05F84:  MOVWF  FEA
05F86:  MOVFF  FEF,75A
05F8A:  MOVFF  FEC,75B
05F8E:  MOVFF  FEC,75C
05F92:  MOVFF  FEC,75D
05F96:  CLRF   x9B
05F98:  CLRF   x9A
05F9A:  CLRF   x99
05F9C:  CLRF   x98
05F9E:  MOVFF  75D,79F
05FA2:  MOVFF  75C,79E
05FA6:  MOVFF  75B,79D
05FAA:  MOVFF  75A,79C
05FAE:  MOVLB  0
05FB0:  CALL   2F26
05FB4:  BNC   5FF0
....................          Presion[canal].Presion=0.0; 
05FB6:  MOVLB  7
05FB8:  CLRF   x67
05FBA:  MOVFF  759,766
05FBE:  CLRF   x69
05FC0:  MOVLW  70
05FC2:  MOVWF  x68
05FC4:  MOVLB  0
05FC6:  CALL   40D0
05FCA:  MOVFF  01,75A
05FCE:  MOVLW  0A
05FD0:  MOVLB  7
05FD2:  ADDWF  01,W
05FD4:  MOVWF  01
05FD6:  MOVLW  00
05FD8:  ADDWFC 02,W
05FDA:  MOVWF  03
05FDC:  MOVF   01,W
05FDE:  ADDLW  1C
05FE0:  MOVWF  FE9
05FE2:  MOVLW  05
05FE4:  ADDWFC 03,W
05FE6:  MOVWF  FEA
05FE8:  CLRF   FEF
05FEA:  CLRF   FEC
05FEC:  CLRF   FEC
05FEE:  CLRF   FEC
....................      
....................       if(Presion[canal].Presion<0.0){ 
05FF0:  MOVLB  7
05FF2:  CLRF   x67
05FF4:  MOVFF  759,766
05FF8:  CLRF   x69
05FFA:  MOVLW  70
05FFC:  MOVWF  x68
05FFE:  MOVLB  0
06000:  CALL   40D0
06004:  MOVFF  01,75A
06008:  MOVLW  0A
0600A:  MOVLB  7
0600C:  ADDWF  01,W
0600E:  MOVWF  01
06010:  MOVLW  00
06012:  ADDWFC 02,W
06014:  MOVWF  03
06016:  MOVF   01,W
06018:  ADDLW  1C
0601A:  MOVWF  FE9
0601C:  MOVLW  05
0601E:  ADDWFC 03,W
06020:  MOVWF  FEA
06022:  MOVFF  FEF,75A
06026:  MOVFF  FEC,75B
0602A:  MOVFF  FEC,75C
0602E:  MOVFF  FEC,75D
06032:  MOVFF  75D,79B
06036:  MOVFF  75C,79A
0603A:  MOVFF  75B,799
0603E:  MOVFF  75A,798
06042:  CLRF   x9F
06044:  CLRF   x9E
06046:  CLRF   x9D
06048:  CLRF   x9C
0604A:  MOVLB  0
0604C:  CALL   2F26
06050:  BNC   6104
....................          Presion[canal].Presion=Presion[canal].Presion*-1; 
06052:  MOVLB  7
06054:  CLRF   x67
06056:  MOVFF  759,766
0605A:  CLRF   x69
0605C:  MOVLW  70
0605E:  MOVWF  x68
06060:  MOVLB  0
06062:  CALL   40D0
06066:  MOVFF  01,75A
0606A:  MOVLW  0A
0606C:  MOVLB  7
0606E:  ADDWF  01,W
06070:  MOVWF  01
06072:  MOVLW  00
06074:  ADDWFC 02,W
06076:  MOVWF  03
06078:  MOVF   01,W
0607A:  ADDLW  1C
0607C:  MOVWF  01
0607E:  MOVLW  05
06080:  ADDWFC 03,F
06082:  MOVFF  01,75A
06086:  MOVFF  03,75B
0608A:  CLRF   x67
0608C:  MOVFF  759,766
06090:  CLRF   x69
06092:  MOVLW  70
06094:  MOVWF  x68
06096:  MOVLB  0
06098:  CALL   40D0
0609C:  MOVFF  01,75C
060A0:  MOVLW  0A
060A2:  MOVLB  7
060A4:  ADDWF  01,W
060A6:  MOVWF  01
060A8:  MOVLW  00
060AA:  ADDWFC 02,W
060AC:  MOVWF  03
060AE:  MOVF   01,W
060B0:  ADDLW  1C
060B2:  MOVWF  FE9
060B4:  MOVLW  05
060B6:  ADDWFC 03,W
060B8:  MOVWF  FEA
060BA:  MOVFF  FEF,75C
060BE:  MOVFF  FEC,75D
060C2:  MOVFF  FEC,75E
060C6:  MOVFF  FEC,75F
060CA:  MOVFF  75F,79B
060CE:  MOVFF  75E,79A
060D2:  MOVFF  75D,799
060D6:  MOVFF  75C,798
060DA:  CLRF   x9F
060DC:  CLRF   x9E
060DE:  MOVLW  80
060E0:  MOVWF  x9D
060E2:  MOVLW  7F
060E4:  MOVWF  x9C
060E6:  MOVLB  0
060E8:  CALL   1A1E
060EC:  MOVFF  75B,FEA
060F0:  MOVFF  75A,FE9
060F4:  MOVFF  00,FEF
060F8:  MOVFF  01,FEC
060FC:  MOVFF  02,FEC
06100:  MOVFF  03,FEC
....................       } 
....................    }else{ 
06104:  BRA    61A4
06106:  MOVLB  7
....................       if(Presion[canal].Presion<0.0){ 
06108:  CLRF   x67
0610A:  MOVFF  759,766
0610E:  CLRF   x69
06110:  MOVLW  70
06112:  MOVWF  x68
06114:  MOVLB  0
06116:  CALL   40D0
0611A:  MOVFF  01,75A
0611E:  MOVLW  0A
06120:  MOVLB  7
06122:  ADDWF  01,W
06124:  MOVWF  01
06126:  MOVLW  00
06128:  ADDWFC 02,W
0612A:  MOVWF  03
0612C:  MOVF   01,W
0612E:  ADDLW  1C
06130:  MOVWF  FE9
06132:  MOVLW  05
06134:  ADDWFC 03,W
06136:  MOVWF  FEA
06138:  MOVFF  FEF,75A
0613C:  MOVFF  FEC,75B
06140:  MOVFF  FEC,75C
06144:  MOVFF  FEC,75D
06148:  MOVFF  75D,79B
0614C:  MOVFF  75C,79A
06150:  MOVFF  75B,799
06154:  MOVFF  75A,798
06158:  CLRF   x9F
0615A:  CLRF   x9E
0615C:  CLRF   x9D
0615E:  CLRF   x9C
06160:  MOVLB  0
06162:  CALL   2F26
06166:  BNC   61A4
....................          Presion[canal].Presion=0.0; 
06168:  MOVLB  7
0616A:  CLRF   x67
0616C:  MOVFF  759,766
06170:  CLRF   x69
06172:  MOVLW  70
06174:  MOVWF  x68
06176:  MOVLB  0
06178:  CALL   40D0
0617C:  MOVFF  01,75A
06180:  MOVLW  0A
06182:  MOVLB  7
06184:  ADDWF  01,W
06186:  MOVWF  01
06188:  MOVLW  00
0618A:  ADDWFC 02,W
0618C:  MOVWF  03
0618E:  MOVF   01,W
06190:  ADDLW  1C
06192:  MOVWF  FE9
06194:  MOVLW  05
06196:  ADDWFC 03,W
06198:  MOVWF  FEA
0619A:  CLRF   FEF
0619C:  CLRF   FEC
0619E:  CLRF   FEC
061A0:  CLRF   FEC
061A2:  MOVLB  0
....................       }  
....................    } 
....................  
....................    if(Presion[canal].r>media-1) 
061A4:  MOVLB  7
061A6:  CLRF   x67
061A8:  MOVFF  759,766
061AC:  CLRF   x69
061AE:  MOVLW  70
061B0:  MOVWF  x68
061B2:  MOVLB  0
061B4:  CALL   40D0
061B8:  MOVFF  02,75B
061BC:  MOVFF  01,75A
061C0:  MOVLW  12
061C2:  MOVLB  7
061C4:  ADDWF  01,W
061C6:  MOVWF  01
061C8:  MOVLW  00
061CA:  ADDWFC 02,W
061CC:  MOVWF  03
061CE:  MOVF   01,W
061D0:  ADDLW  1C
061D2:  MOVWF  FE9
061D4:  MOVLW  05
061D6:  ADDWFC 03,W
061D8:  MOVWF  FEA
061DA:  MOVFF  FEF,75A
061DE:  MOVLW  01
061E0:  SUBWF  x58,W
061E2:  SUBWF  x5A,W
061E4:  BZ    621A
061E6:  BNC   621A
....................    {Presion[canal].r=0;} 
061E8:  CLRF   x67
061EA:  MOVFF  759,766
061EE:  CLRF   x69
061F0:  MOVLW  70
061F2:  MOVWF  x68
061F4:  MOVLB  0
061F6:  CALL   40D0
061FA:  MOVFF  01,75A
061FE:  MOVLW  12
06200:  MOVLB  7
06202:  ADDWF  01,W
06204:  MOVWF  01
06206:  MOVLW  00
06208:  ADDWFC 02,W
0620A:  MOVWF  03
0620C:  MOVF   01,W
0620E:  ADDLW  1C
06210:  MOVWF  FE9
06212:  MOVLW  05
06214:  ADDWFC 03,W
06216:  MOVWF  FEA
06218:  CLRF   FEF
....................    Presion[canal].PromPresion[Presion[canal].r]=Presion[canal].Presion*4.02;Presion[canal].r++; 
0621A:  CLRF   x67
0621C:  MOVFF  759,766
06220:  CLRF   x69
06222:  MOVLW  70
06224:  MOVWF  x68
06226:  MOVLB  0
06228:  CALL   40D0
0622C:  MOVFF  02,75B
06230:  MOVFF  01,75A
06234:  MOVLW  1C
06236:  MOVLB  7
06238:  ADDWF  x5A,F
0623A:  MOVLW  00
0623C:  ADDWFC x5B,F
0623E:  CLRF   x67
06240:  MOVFF  759,766
06244:  CLRF   x69
06246:  MOVLW  70
06248:  MOVWF  x68
0624A:  MOVLB  0
0624C:  CALL   40D0
06250:  MOVFF  02,75D
06254:  MOVFF  01,75C
06258:  MOVLW  12
0625A:  MOVLB  7
0625C:  ADDWF  01,W
0625E:  MOVWF  01
06260:  MOVLW  00
06262:  ADDWFC 02,W
06264:  MOVWF  03
06266:  MOVF   01,W
06268:  ADDLW  1C
0626A:  MOVWF  FE9
0626C:  MOVLW  05
0626E:  ADDWFC 03,W
06270:  MOVWF  FEA
06272:  CLRF   x67
06274:  MOVFF  FEF,766
06278:  CLRF   x69
0627A:  MOVLW  04
0627C:  MOVWF  x68
0627E:  MOVLB  0
06280:  CALL   40D0
06284:  MOVFF  02,03
06288:  MOVF   01,W
0628A:  MOVLB  7
0628C:  ADDWF  x5A,W
0628E:  MOVWF  01
06290:  MOVF   x5B,W
06292:  ADDWFC 03,F
06294:  MOVF   01,W
06296:  ADDLW  1C
06298:  MOVWF  01
0629A:  MOVLW  05
0629C:  ADDWFC 03,F
0629E:  MOVFF  01,75A
062A2:  MOVFF  03,75B
062A6:  CLRF   x67
062A8:  MOVFF  759,766
062AC:  CLRF   x69
062AE:  MOVLW  70
062B0:  MOVWF  x68
062B2:  MOVLB  0
062B4:  CALL   40D0
062B8:  MOVFF  01,75C
062BC:  MOVLW  0A
062BE:  MOVLB  7
062C0:  ADDWF  01,W
062C2:  MOVWF  01
062C4:  MOVLW  00
062C6:  ADDWFC 02,W
062C8:  MOVWF  03
062CA:  MOVF   01,W
062CC:  ADDLW  1C
062CE:  MOVWF  FE9
062D0:  MOVLW  05
062D2:  ADDWFC 03,W
062D4:  MOVWF  FEA
062D6:  MOVFF  FEF,75C
062DA:  MOVFF  FEC,75D
062DE:  MOVFF  FEC,75E
062E2:  MOVFF  FEC,75F
062E6:  MOVFF  75F,79B
062EA:  MOVFF  75E,79A
062EE:  MOVFF  75D,799
062F2:  MOVFF  75C,798
062F6:  MOVLW  D7
062F8:  MOVWF  x9F
062FA:  MOVLW  A3
062FC:  MOVWF  x9E
062FE:  CLRF   x9D
06300:  MOVLW  81
06302:  MOVWF  x9C
06304:  MOVLB  0
06306:  CALL   1A1E
0630A:  MOVFF  75B,FEA
0630E:  MOVFF  75A,FE9
06312:  MOVFF  00,FEF
06316:  MOVFF  01,FEC
0631A:  MOVFF  02,FEC
0631E:  MOVFF  03,FEC
06322:  MOVLB  7
06324:  CLRF   x67
06326:  MOVFF  759,766
0632A:  CLRF   x69
0632C:  MOVLW  70
0632E:  MOVWF  x68
06330:  MOVLB  0
06332:  CALL   40D0
06336:  MOVFF  01,75A
0633A:  MOVLW  12
0633C:  MOVLB  7
0633E:  ADDWF  01,W
06340:  MOVWF  01
06342:  MOVLW  00
06344:  ADDWFC 02,W
06346:  MOVWF  03
06348:  MOVF   01,W
0634A:  ADDLW  1C
0634C:  MOVWF  FE9
0634E:  MOVLW  05
06350:  ADDWFC 03,W
06352:  MOVWF  FEA
06354:  INCF   FEF,F
....................           
....................    for(q=0;q<=(media-1);q++) 
06356:  MOVLB  0
06358:  CLRF   x87
0635A:  MOVLW  01
0635C:  MOVLB  7
0635E:  SUBWF  x58,W
06360:  MOVLB  0
06362:  SUBWF  x87,W
06364:  BZ    636A
06366:  BTFSC  FD8.0
06368:  BRA    6470
....................    { 
....................       Presion[canal].promediopresion+=Presion[canal].PromPresion[q]; 
0636A:  MOVLB  7
0636C:  CLRF   x67
0636E:  MOVFF  759,766
06372:  CLRF   x69
06374:  MOVLW  70
06376:  MOVWF  x68
06378:  MOVLB  0
0637A:  CALL   40D0
0637E:  MOVFF  01,75A
06382:  MOVLW  6C
06384:  MOVLB  7
06386:  ADDWF  01,W
06388:  MOVWF  01
0638A:  MOVLW  00
0638C:  ADDWFC 02,W
0638E:  MOVWF  03
06390:  MOVF   01,W
06392:  ADDLW  1C
06394:  MOVWF  01
06396:  MOVLW  05
06398:  ADDWFC 03,F
0639A:  MOVFF  01,75A
0639E:  MOVFF  03,75B
063A2:  MOVFF  03,FEA
063A6:  MOVFF  01,FE9
063AA:  MOVFF  FEF,75C
063AE:  MOVFF  FEC,75D
063B2:  MOVFF  FEC,75E
063B6:  MOVFF  FEC,75F
063BA:  CLRF   x67
063BC:  MOVFF  759,766
063C0:  CLRF   x69
063C2:  MOVLW  70
063C4:  MOVWF  x68
063C6:  MOVLB  0
063C8:  CALL   40D0
063CC:  MOVFF  02,761
063D0:  MOVFF  01,760
063D4:  MOVLW  1C
063D6:  MOVLB  7
063D8:  ADDWF  x60,F
063DA:  MOVLW  00
063DC:  ADDWFC x61,F
063DE:  CLRF   x67
063E0:  MOVFF  87,766
063E4:  CLRF   x69
063E6:  MOVLW  04
063E8:  MOVWF  x68
063EA:  MOVLB  0
063EC:  CALL   40D0
063F0:  MOVFF  02,03
063F4:  MOVF   01,W
063F6:  MOVLB  7
063F8:  ADDWF  x60,W
063FA:  MOVWF  01
063FC:  MOVF   x61,W
063FE:  ADDWFC 03,F
06400:  MOVF   01,W
06402:  ADDLW  1C
06404:  MOVWF  FE9
06406:  MOVLW  05
06408:  ADDWFC 03,W
0640A:  MOVWF  FEA
0640C:  MOVFF  FEF,00
06410:  MOVFF  FEC,01
06414:  MOVFF  FEC,02
06418:  MOVFF  FEC,03
0641C:  MOVFF  FEA,761
06420:  MOVFF  FE9,760
06424:  BCF    FD8.1
06426:  MOVFF  75F,79F
0642A:  MOVFF  75E,79E
0642E:  MOVFF  75D,79D
06432:  MOVFF  75C,79C
06436:  MOVFF  03,7A3
0643A:  MOVFF  02,7A2
0643E:  MOVFF  01,7A1
06442:  MOVFF  00,7A0
06446:  MOVLB  0
06448:  CALL   1E96
0644C:  MOVFF  761,FEA
06450:  MOVFF  760,FE9
06454:  MOVFF  75B,FEA
06458:  MOVFF  75A,FE9
0645C:  MOVFF  00,FEF
06460:  MOVFF  01,FEC
06464:  MOVFF  02,FEC
06468:  MOVFF  03,FEC
....................    }  
0646C:  INCF   x87,F
0646E:  BRA    635A
....................    Presion[canal].promediopresion=Presion[canal].promediopresion/media;    
06470:  MOVLB  7
06472:  CLRF   x67
06474:  MOVFF  759,766
06478:  CLRF   x69
0647A:  MOVLW  70
0647C:  MOVWF  x68
0647E:  MOVLB  0
06480:  CALL   40D0
06484:  MOVFF  01,75A
06488:  MOVLW  6C
0648A:  MOVLB  7
0648C:  ADDWF  01,W
0648E:  MOVWF  01
06490:  MOVLW  00
06492:  ADDWFC 02,W
06494:  MOVWF  03
06496:  MOVF   01,W
06498:  ADDLW  1C
0649A:  MOVWF  01
0649C:  MOVLW  05
0649E:  ADDWFC 03,F
064A0:  MOVFF  01,75A
064A4:  MOVFF  03,75B
064A8:  CLRF   x67
064AA:  MOVFF  759,766
064AE:  CLRF   x69
064B0:  MOVLW  70
064B2:  MOVWF  x68
064B4:  MOVLB  0
064B6:  CALL   40D0
064BA:  MOVFF  01,75C
064BE:  MOVLW  6C
064C0:  MOVLB  7
064C2:  ADDWF  01,W
064C4:  MOVWF  01
064C6:  MOVLW  00
064C8:  ADDWFC 02,W
064CA:  MOVWF  03
064CC:  MOVF   01,W
064CE:  ADDLW  1C
064D0:  MOVWF  FE9
064D2:  MOVLW  05
064D4:  ADDWFC 03,W
064D6:  MOVWF  FEA
064D8:  MOVFF  FEF,75C
064DC:  MOVFF  FEC,75D
064E0:  MOVFF  FEC,75E
064E4:  MOVFF  FEC,75F
064E8:  CLRF   x9D
064EA:  MOVFF  758,79C
064EE:  MOVLB  0
064F0:  CALL   188A
064F4:  MOVFF  75F,79B
064F8:  MOVFF  75E,79A
064FC:  MOVFF  75D,799
06500:  MOVFF  75C,798
06504:  MOVFF  03,79F
06508:  MOVFF  02,79E
0650C:  MOVFF  01,79D
06510:  MOVFF  00,79C
06514:  CALL   18C0
06518:  MOVFF  75B,FEA
0651C:  MOVFF  75A,FE9
06520:  MOVFF  00,FEF
06524:  MOVFF  01,FEC
06528:  MOVFF  02,FEC
0652C:  MOVFF  03,FEC
....................     
....................    //return Presion[canal].promediopresion; 
....................    return Presion[canal].promediopresion*Presion[canal].AjustePresion; 
06530:  MOVLB  7
06532:  CLRF   x67
06534:  MOVFF  759,766
06538:  CLRF   x69
0653A:  MOVLW  70
0653C:  MOVWF  x68
0653E:  MOVLB  0
06540:  CALL   40D0
06544:  MOVFF  01,75A
06548:  MOVLW  6C
0654A:  MOVLB  7
0654C:  ADDWF  01,W
0654E:  MOVWF  01
06550:  MOVLW  00
06552:  ADDWFC 02,W
06554:  MOVWF  03
06556:  MOVF   01,W
06558:  ADDLW  1C
0655A:  MOVWF  FE9
0655C:  MOVLW  05
0655E:  ADDWFC 03,W
06560:  MOVWF  FEA
06562:  MOVFF  FEF,75A
06566:  MOVFF  FEC,75B
0656A:  MOVFF  FEC,75C
0656E:  MOVFF  FEC,75D
06572:  CLRF   x67
06574:  MOVFF  759,766
06578:  CLRF   x69
0657A:  MOVLW  70
0657C:  MOVWF  x68
0657E:  MOVLB  0
06580:  CALL   40D0
06584:  MOVFF  02,75F
06588:  MOVFF  01,75E
0658C:  MOVLW  18
0658E:  MOVLB  7
06590:  ADDWF  01,W
06592:  MOVWF  01
06594:  MOVLW  00
06596:  ADDWFC 02,W
06598:  MOVWF  03
0659A:  MOVF   01,W
0659C:  ADDLW  1C
0659E:  MOVWF  FE9
065A0:  MOVLW  05
065A2:  ADDWFC 03,W
065A4:  MOVWF  FEA
065A6:  MOVFF  FEF,00
065AA:  MOVFF  FEC,01
065AE:  MOVFF  FEC,02
065B2:  MOVFF  FEC,03
065B6:  MOVFF  75D,79B
065BA:  MOVFF  75C,79A
065BE:  MOVFF  75B,799
065C2:  MOVFF  75A,798
065C6:  MOVFF  03,79F
065CA:  MOVFF  02,79E
065CE:  MOVFF  01,79D
065D2:  MOVFF  00,79C
065D6:  MOVLB  0
065D8:  CALL   1A1E
....................     
....................    //if(canal==4){//return Presion[canal].promediopresion*Presion[canal].Ajuste; 
....................    //   return Presion[canal].promediopresion*Ajustedn; 
....................    //}else{ 
....................        
....................    //} 
.................... } 
065DC:  RETLW  00
....................  
.................... float leeTemperatura(int8 media){ 
065DE:  MOVLB  7
065E0:  CLRF   x5C
065E2:  CLRF   x5B
065E4:  CLRF   x5A
065E6:  CLRF   x59
065E8:  CLRF   x60
065EA:  CLRF   x5F
065EC:  CLRF   x5E
065EE:  CLRF   x5D
065F0:  CLRF   x64
065F2:  CLRF   x63
065F4:  CLRF   x62
065F6:  CLRF   x61
065F8:  CLRF   x68
065FA:  CLRF   x67
065FC:  CLRF   x66
065FE:  CLRF   x65
....................    float ADC=0,V=0,T=0,Tempera=0; 
....................    ADC=sensores(0); 
06600:  CLRF   x69
06602:  MOVLB  0
06604:  CALL   40F2
06608:  MOVFF  02,79D
0660C:  MOVFF  01,79C
06610:  CALL   188A
06614:  MOVFF  03,75C
06618:  MOVFF  02,75B
0661C:  MOVFF  01,75A
06620:  MOVFF  00,759
....................    V=5*ADC/1023; 
06624:  MOVLB  7
06626:  CLRF   x9B
06628:  CLRF   x9A
0662A:  MOVLW  20
0662C:  MOVWF  x99
0662E:  MOVLW  81
06630:  MOVWF  x98
06632:  MOVFF  75C,79F
06636:  MOVFF  75B,79E
0663A:  MOVFF  75A,79D
0663E:  MOVFF  759,79C
06642:  MOVLB  0
06644:  CALL   1A1E
06648:  MOVFF  00,769
0664C:  MOVFF  01,76A
06650:  MOVFF  02,76B
06654:  MOVFF  03,76C
06658:  MOVFF  03,79B
0665C:  MOVFF  02,79A
06660:  MOVFF  01,799
06664:  MOVFF  00,798
06668:  MOVLB  7
0666A:  CLRF   x9F
0666C:  MOVLW  C0
0666E:  MOVWF  x9E
06670:  MOVLW  7F
06672:  MOVWF  x9D
06674:  MOVLW  88
06676:  MOVWF  x9C
06678:  MOVLB  0
0667A:  CALL   18C0
0667E:  MOVFF  03,760
06682:  MOVFF  02,75F
06686:  MOVFF  01,75E
0668A:  MOVFF  00,75D
....................    T=V/0.01; 
0668E:  MOVFF  760,79B
06692:  MOVFF  75F,79A
06696:  MOVFF  75E,799
0669A:  MOVFF  75D,798
0669E:  MOVLW  0A
066A0:  MOVLB  7
066A2:  MOVWF  x9F
066A4:  MOVLW  D7
066A6:  MOVWF  x9E
066A8:  MOVLW  23
066AA:  MOVWF  x9D
066AC:  MOVLW  78
066AE:  MOVWF  x9C
066B0:  MOVLB  0
066B2:  CALL   18C0
066B6:  MOVFF  03,764
066BA:  MOVFF  02,763
066BE:  MOVFF  01,762
066C2:  MOVFF  00,761
....................    if(l2>media) 
066C6:  MOVLB  2
066C8:  MOVF   x81,W
066CA:  MOVLB  7
066CC:  SUBWF  x58,W
066CE:  BC    66D4
....................       l2=0; 
066D0:  MOVLB  2
066D2:  CLRF   x81
....................        
....................    promedio2[l2]=T;l2++; 
066D4:  MOVLB  2
066D6:  MOVF   x81,W
066D8:  MULLW  04
066DA:  MOVF   FF3,W
066DC:  CLRF   03
066DE:  ADDLW  A2
066E0:  MOVWF  FE9
066E2:  MOVLW  01
066E4:  ADDWFC 03,W
066E6:  MOVWF  FEA
066E8:  MOVFF  761,FEF
066EC:  MOVFF  762,FEC
066F0:  MOVFF  763,FEC
066F4:  MOVFF  764,FEC
066F8:  INCF   x81,F
....................    Tempera=0; 
066FA:  MOVLB  7
066FC:  CLRF   x68
066FE:  CLRF   x67
06700:  CLRF   x66
06702:  CLRF   x65
....................       
....................      for(h2=0;h2<=(media-1);h2++){ 
06704:  MOVLB  2
06706:  CLRF   x82
06708:  MOVLW  01
0670A:  MOVLB  7
0670C:  SUBWF  x58,W
0670E:  MOVLB  2
06710:  SUBWF  x82,W
06712:  BZ    6716
06714:  BC    6786
....................         Tempera+=promedio2[h2]; 
06716:  MOVF   x82,W
06718:  MULLW  04
0671A:  MOVF   FF3,W
0671C:  CLRF   03
0671E:  ADDLW  A2
06720:  MOVWF  FE9
06722:  MOVLW  01
06724:  ADDWFC 03,W
06726:  MOVWF  FEA
06728:  MOVFF  FEF,00
0672C:  MOVFF  FEC,01
06730:  MOVFF  FEC,02
06734:  MOVFF  FEC,03
06738:  MOVFF  FEA,76A
0673C:  MOVFF  FE9,769
06740:  BCF    FD8.1
06742:  MOVFF  768,79F
06746:  MOVFF  767,79E
0674A:  MOVFF  766,79D
0674E:  MOVFF  765,79C
06752:  MOVFF  03,7A3
06756:  MOVFF  02,7A2
0675A:  MOVFF  01,7A1
0675E:  MOVFF  00,7A0
06762:  MOVLB  0
06764:  CALL   1E96
06768:  MOVFF  76A,FEA
0676C:  MOVFF  769,FE9
06770:  MOVFF  03,768
06774:  MOVFF  02,767
06778:  MOVFF  01,766
0677C:  MOVFF  00,765
....................      }       
06780:  MOVLB  2
06782:  INCF   x82,F
06784:  BRA    6708
....................    return Tempera/media; 
06786:  MOVLB  7
06788:  CLRF   x9D
0678A:  MOVFF  758,79C
0678E:  MOVLB  0
06790:  CALL   188A
06794:  MOVFF  768,79B
06798:  MOVFF  767,79A
0679C:  MOVFF  766,799
067A0:  MOVFF  765,798
067A4:  MOVFF  03,79F
067A8:  MOVFF  02,79E
067AC:  MOVFF  01,79D
067B0:  MOVFF  00,79C
067B4:  CALL   18C0
.................... } 
067B8:  GOTO   9080 (RETURN)
....................  
.................... void LeeEEPROM(void){ 
....................    Password[0]=read_eeprom(0); 
*
0210E:  MOVFF  FF2,758
02112:  BCF    FF2.6
02114:  BCF    FF2.7
02116:  CLRF   FAA
02118:  CLRF   FA9
0211A:  BCF    FA6.6
0211C:  BCF    FA6.7
0211E:  BSF    FA6.0
02120:  MOVF   FA8,W
02122:  MOVLB  7
02124:  BTFSC  x58.6
02126:  BSF    FF2.6
02128:  BTFSC  x58.7
0212A:  BSF    FF2.7
0212C:  MOVLB  0
0212E:  MOVWF  xE2
....................    delay_ms(10); 
02130:  MOVLW  0A
02132:  MOVLB  7
02134:  MOVWF  x6C
02136:  MOVLB  0
02138:  CALL   15AA
....................    Password[1]=read_eeprom(1); 
0213C:  MOVFF  FF2,758
02140:  BCF    FF2.6
02142:  BCF    FF2.7
02144:  CLRF   FAA
02146:  MOVLW  01
02148:  MOVWF  FA9
0214A:  BCF    FA6.6
0214C:  BCF    FA6.7
0214E:  BSF    FA6.0
02150:  MOVF   FA8,W
02152:  MOVLB  7
02154:  BTFSC  x58.6
02156:  BSF    FF2.6
02158:  BTFSC  x58.7
0215A:  BSF    FF2.7
0215C:  MOVLB  0
0215E:  MOVWF  xE3
....................    delay_ms(10); 
02160:  MOVLW  0A
02162:  MOVLB  7
02164:  MOVWF  x6C
02166:  MOVLB  0
02168:  CALL   15AA
....................    Password[2]=read_eeprom(2); 
0216C:  MOVFF  FF2,758
02170:  BCF    FF2.6
02172:  BCF    FF2.7
02174:  CLRF   FAA
02176:  MOVLW  02
02178:  MOVWF  FA9
0217A:  BCF    FA6.6
0217C:  BCF    FA6.7
0217E:  BSF    FA6.0
02180:  MOVF   FA8,W
02182:  MOVLB  7
02184:  BTFSC  x58.6
02186:  BSF    FF2.6
02188:  BTFSC  x58.7
0218A:  BSF    FF2.7
0218C:  MOVLB  0
0218E:  MOVWF  xE4
....................    delay_ms(10); 
02190:  MOVLW  0A
02192:  MOVLB  7
02194:  MOVWF  x6C
02196:  MOVLB  0
02198:  CALL   15AA
....................    Password[3]=read_eeprom(3); 
0219C:  MOVFF  FF2,758
021A0:  BCF    FF2.6
021A2:  BCF    FF2.7
021A4:  CLRF   FAA
021A6:  MOVLW  03
021A8:  MOVWF  FA9
021AA:  BCF    FA6.6
021AC:  BCF    FA6.7
021AE:  BSF    FA6.0
021B0:  MOVF   FA8,W
021B2:  MOVLB  7
021B4:  BTFSC  x58.6
021B6:  BSF    FF2.6
021B8:  BTFSC  x58.7
021BA:  BSF    FF2.7
021BC:  MOVLB  0
021BE:  MOVWF  xE5
....................    delay_ms(10); 
021C0:  MOVLW  0A
021C2:  MOVLB  7
021C4:  MOVWF  x6C
021C6:  MOVLB  0
021C8:  CALL   15AA
....................    mPurgap=read_eeprom(4); 
021CC:  MOVFF  FF2,758
021D0:  BCF    FF2.6
021D2:  BCF    FF2.7
021D4:  CLRF   FAA
021D6:  MOVLW  04
021D8:  MOVWF  FA9
021DA:  BCF    FA6.6
021DC:  BCF    FA6.7
021DE:  BSF    FA6.0
021E0:  MOVF   FA8,W
021E2:  MOVLB  7
021E4:  BTFSC  x58.6
021E6:  BSF    FF2.6
021E8:  BTFSC  x58.7
021EA:  BSF    FF2.7
021EC:  MOVLB  0
021EE:  MOVWF  xB4
....................    delay_ms(10); 
021F0:  MOVLW  0A
021F2:  MOVLB  7
021F4:  MOVWF  x6C
021F6:  MOVLB  0
021F8:  CALL   15AA
....................    sPurgap=read_eeprom(5); 
021FC:  MOVFF  FF2,758
02200:  BCF    FF2.6
02202:  BCF    FF2.7
02204:  CLRF   FAA
02206:  MOVLW  05
02208:  MOVWF  FA9
0220A:  BCF    FA6.6
0220C:  BCF    FA6.7
0220E:  BSF    FA6.0
02210:  MOVF   FA8,W
02212:  MOVLB  7
02214:  BTFSC  x58.6
02216:  BSF    FF2.6
02218:  BTFSC  x58.7
0221A:  BSF    FF2.7
0221C:  MOVLB  0
0221E:  MOVWF  xB2
....................    delay_ms(10); 
02220:  MOVLW  0A
02222:  MOVLB  7
02224:  MOVWF  x6C
02226:  MOVLB  0
02228:  CALL   15AA
....................    mPPurgap=read_eeprom(6); 
0222C:  MOVFF  FF2,758
02230:  BCF    FF2.6
02232:  BCF    FF2.7
02234:  CLRF   FAA
02236:  MOVLW  06
02238:  MOVWF  FA9
0223A:  BCF    FA6.6
0223C:  BCF    FA6.7
0223E:  BSF    FA6.0
02240:  MOVF   FA8,W
02242:  MOVLB  7
02244:  BTFSC  x58.6
02246:  BSF    FF2.6
02248:  BTFSC  x58.7
0224A:  BSF    FF2.7
0224C:  MOVLB  0
0224E:  MOVWF  xB8
....................    delay_ms(10); 
02250:  MOVLW  0A
02252:  MOVLB  7
02254:  MOVWF  x6C
02256:  MOVLB  0
02258:  CALL   15AA
....................    sPPurgap=read_eeprom(7); 
0225C:  MOVFF  FF2,758
02260:  BCF    FF2.6
02262:  BCF    FF2.7
02264:  CLRF   FAA
02266:  MOVLW  07
02268:  MOVWF  FA9
0226A:  BCF    FA6.6
0226C:  BCF    FA6.7
0226E:  BSF    FA6.0
02270:  MOVF   FA8,W
02272:  MOVLB  7
02274:  BTFSC  x58.6
02276:  BSF    FF2.6
02278:  BTFSC  x58.7
0227A:  BSF    FF2.7
0227C:  MOVLB  0
0227E:  MOVWF  xB6
....................    delay_ms(10); 
02280:  MOVLW  0A
02282:  MOVLB  7
02284:  MOVWF  x6C
02286:  MOVLB  0
02288:  CALL   15AA
....................    mUVp=read_eeprom(8); 
0228C:  MOVFF  FF2,758
02290:  BCF    FF2.6
02292:  BCF    FF2.7
02294:  CLRF   FAA
02296:  MOVLW  08
02298:  MOVWF  FA9
0229A:  BCF    FA6.6
0229C:  BCF    FA6.7
0229E:  BSF    FA6.0
022A0:  MOVF   FA8,W
022A2:  MOVLB  7
022A4:  BTFSC  x58.6
022A6:  BSF    FF2.6
022A8:  BTFSC  x58.7
022AA:  BSF    FF2.7
022AC:  MOVLB  0
022AE:  MOVWF  xBC
....................    delay_ms(10); 
022B0:  MOVLW  0A
022B2:  MOVLB  7
022B4:  MOVWF  x6C
022B6:  MOVLB  0
022B8:  CALL   15AA
....................    sUVp=read_eeprom(9); 
022BC:  MOVFF  FF2,758
022C0:  BCF    FF2.6
022C2:  BCF    FF2.7
022C4:  CLRF   FAA
022C6:  MOVLW  09
022C8:  MOVWF  FA9
022CA:  BCF    FA6.6
022CC:  BCF    FA6.7
022CE:  BSF    FA6.0
022D0:  MOVF   FA8,W
022D2:  MOVLB  7
022D4:  BTFSC  x58.6
022D6:  BSF    FF2.6
022D8:  BTFSC  x58.7
022DA:  BSF    FF2.7
022DC:  MOVLB  0
022DE:  MOVWF  xBB
....................    delay_ms(10); 
022E0:  MOVLW  0A
022E2:  MOVLB  7
022E4:  MOVWF  x6C
022E6:  MOVLB  0
022E8:  CALL   15AA
....................     
....................    Tuv[0]=read_eeprom(12); 
022EC:  MOVFF  FF2,758
022F0:  BCF    FF2.6
022F2:  BCF    FF2.7
022F4:  CLRF   FAA
022F6:  MOVLW  0C
022F8:  MOVWF  FA9
022FA:  BCF    FA6.6
022FC:  BCF    FA6.7
022FE:  BSF    FA6.0
02300:  MOVF   FA8,W
02302:  MOVLB  7
02304:  BTFSC  x58.6
02306:  BSF    FF2.6
02308:  BTFSC  x58.7
0230A:  BSF    FF2.7
0230C:  MOVLB  0
0230E:  MOVWF  xDA
....................    delay_ms(10); 
02310:  MOVLW  0A
02312:  MOVLB  7
02314:  MOVWF  x6C
02316:  MOVLB  0
02318:  CALL   15AA
....................    Tuv[1]=read_eeprom(13); 
0231C:  MOVFF  FF2,758
02320:  BCF    FF2.6
02322:  BCF    FF2.7
02324:  CLRF   FAA
02326:  MOVLW  0D
02328:  MOVWF  FA9
0232A:  BCF    FA6.6
0232C:  BCF    FA6.7
0232E:  BSF    FA6.0
02330:  MOVF   FA8,W
02332:  MOVLB  7
02334:  BTFSC  x58.6
02336:  BSF    FF2.6
02338:  BTFSC  x58.7
0233A:  BSF    FF2.7
0233C:  MOVLB  0
0233E:  MOVWF  xDB
....................    delay_ms(10); 
02340:  MOVLW  0A
02342:  MOVLB  7
02344:  MOVWF  x6C
02346:  MOVLB  0
02348:  CALL   15AA
....................    Tuv[2]=read_eeprom(14); 
0234C:  MOVFF  FF2,758
02350:  BCF    FF2.6
02352:  BCF    FF2.7
02354:  CLRF   FAA
02356:  MOVLW  0E
02358:  MOVWF  FA9
0235A:  BCF    FA6.6
0235C:  BCF    FA6.7
0235E:  BSF    FA6.0
02360:  MOVF   FA8,W
02362:  MOVLB  7
02364:  BTFSC  x58.6
02366:  BSF    FF2.6
02368:  BTFSC  x58.7
0236A:  BSF    FF2.7
0236C:  MOVLB  0
0236E:  MOVWF  xDC
....................    delay_ms(10); 
02370:  MOVLW  0A
02372:  MOVLB  7
02374:  MOVWF  x6C
02376:  MOVLB  0
02378:  CALL   15AA
....................    Tuv[3]=read_eeprom(15); 
0237C:  MOVFF  FF2,758
02380:  BCF    FF2.6
02382:  BCF    FF2.7
02384:  CLRF   FAA
02386:  MOVLW  0F
02388:  MOVWF  FA9
0238A:  BCF    FA6.6
0238C:  BCF    FA6.7
0238E:  BSF    FA6.0
02390:  MOVF   FA8,W
02392:  MOVLB  7
02394:  BTFSC  x58.6
02396:  BSF    FF2.6
02398:  BTFSC  x58.7
0239A:  BSF    FF2.7
0239C:  MOVLB  0
0239E:  MOVWF  xDD
....................    delay_ms(10); 
023A0:  MOVLW  0A
023A2:  MOVLB  7
023A4:  MOVWF  x6C
023A6:  MOVLB  0
023A8:  CALL   15AA
....................    Ttrabajo[0]=read_eeprom(16); 
023AC:  MOVFF  FF2,758
023B0:  BCF    FF2.6
023B2:  BCF    FF2.7
023B4:  CLRF   FAA
023B6:  MOVLW  10
023B8:  MOVWF  FA9
023BA:  BCF    FA6.6
023BC:  BCF    FA6.7
023BE:  BSF    FA6.0
023C0:  MOVF   FA8,W
023C2:  MOVLB  7
023C4:  BTFSC  x58.6
023C6:  BSF    FF2.6
023C8:  BTFSC  x58.7
023CA:  BSF    FF2.7
023CC:  MOVLB  0
023CE:  MOVWF  xDE
....................    delay_ms(10); 
023D0:  MOVLW  0A
023D2:  MOVLB  7
023D4:  MOVWF  x6C
023D6:  MOVLB  0
023D8:  CALL   15AA
....................    Ttrabajo[1]=read_eeprom(17); 
023DC:  MOVFF  FF2,758
023E0:  BCF    FF2.6
023E2:  BCF    FF2.7
023E4:  CLRF   FAA
023E6:  MOVLW  11
023E8:  MOVWF  FA9
023EA:  BCF    FA6.6
023EC:  BCF    FA6.7
023EE:  BSF    FA6.0
023F0:  MOVF   FA8,W
023F2:  MOVLB  7
023F4:  BTFSC  x58.6
023F6:  BSF    FF2.6
023F8:  BTFSC  x58.7
023FA:  BSF    FF2.7
023FC:  MOVLB  0
023FE:  MOVWF  xDF
....................    delay_ms(10); 
02400:  MOVLW  0A
02402:  MOVLB  7
02404:  MOVWF  x6C
02406:  MOVLB  0
02408:  CALL   15AA
....................    Ttrabajo[2]=read_eeprom(18); 
0240C:  MOVFF  FF2,758
02410:  BCF    FF2.6
02412:  BCF    FF2.7
02414:  CLRF   FAA
02416:  MOVLW  12
02418:  MOVWF  FA9
0241A:  BCF    FA6.6
0241C:  BCF    FA6.7
0241E:  BSF    FA6.0
02420:  MOVF   FA8,W
02422:  MOVLB  7
02424:  BTFSC  x58.6
02426:  BSF    FF2.6
02428:  BTFSC  x58.7
0242A:  BSF    FF2.7
0242C:  MOVLB  0
0242E:  MOVWF  xE0
....................    delay_ms(10); 
02430:  MOVLW  0A
02432:  MOVLB  7
02434:  MOVWF  x6C
02436:  MOVLB  0
02438:  CALL   15AA
....................    Ttrabajo[3]=read_eeprom(19); 
0243C:  MOVFF  FF2,758
02440:  BCF    FF2.6
02442:  BCF    FF2.7
02444:  CLRF   FAA
02446:  MOVLW  13
02448:  MOVWF  FA9
0244A:  BCF    FA6.6
0244C:  BCF    FA6.7
0244E:  BSF    FA6.0
02450:  MOVF   FA8,W
02452:  MOVLB  7
02454:  BTFSC  x58.6
02456:  BSF    FF2.6
02458:  BTFSC  x58.7
0245A:  BSF    FF2.7
0245C:  MOVLB  0
0245E:  MOVWF  xE1
....................    delay_ms(10); 
02460:  MOVLW  0A
02462:  MOVLB  7
02464:  MOVWF  x6C
02466:  MOVLB  0
02468:  CALL   15AA
....................    //flag_alarma=read_eeprom(20); 
....................    //delay_ms(10); 
....................    /* 
....................    delay_ms(10); 
....................    Entero=read_eeprom(25); 
....................    delay_ms(10); 
....................    Temporal=read_eeprom(26); 
....................    delay_ms(10); 
....................    Temporal=Temporal/100.0; 
....................    Flujo[1].Ajuste=Entero+Temporal; 
....................     
....................     
....................    Entero=read_eeprom(27); 
....................    delay_ms(10); 
....................    Temporal=read_eeprom(28); 
....................    delay_ms(10); 
....................    Temporal=Temporal/100.0; 
....................    Flujo[2].Ajuste=Entero+Temporal; 
....................    */ 
....................    delay_ms(10); 
0246C:  MOVLW  0A
0246E:  MOVLB  7
02470:  MOVWF  x6C
02472:  MOVLB  0
02474:  CALL   15AA
....................    velocidadInicial=read_eeprom(25);//Decimal1=read_eeprom(26); 
02478:  MOVFF  FF2,758
0247C:  BCF    FF2.6
0247E:  BCF    FF2.7
02480:  CLRF   FAA
02482:  MOVLW  19
02484:  MOVWF  FA9
02486:  BCF    FA6.6
02488:  BCF    FA6.7
0248A:  BSF    FA6.0
0248C:  MOVF   FA8,W
0248E:  MOVLB  7
02490:  BTFSC  x58.6
02492:  BSF    FF2.6
02494:  BTFSC  x58.7
02496:  BSF    FF2.7
02498:  MOVLB  0
0249A:  MOVWF  xB0
....................    delay_ms(10); 
0249C:  MOVLW  0A
0249E:  MOVLB  7
024A0:  MOVWF  x6C
024A2:  MOVLB  0
024A4:  CALL   15AA
....................     
....................    delay_ms(10); 
024A8:  MOVLW  0A
024AA:  MOVLB  7
024AC:  MOVWF  x6C
024AE:  MOVLB  0
024B0:  CALL   15AA
....................    Entero=read_eeprom(29);//Decimal1=read_eeprom(26); 
024B4:  MOVFF  FF2,758
024B8:  BCF    FF2.6
024BA:  BCF    FF2.7
024BC:  CLRF   FAA
024BE:  MOVLW  1D
024C0:  MOVWF  FA9
024C2:  BCF    FA6.6
024C4:  BCF    FA6.7
024C6:  BSF    FA6.0
024C8:  MOVF   FA8,W
024CA:  MOVLB  7
024CC:  BTFSC  x58.6
024CE:  BSF    FF2.6
024D0:  BTFSC  x58.7
024D2:  BSF    FF2.7
024D4:  MOVLB  0
024D6:  MOVWF  x8B
....................    delay_ms(10); 
024D8:  MOVLW  0A
024DA:  MOVLB  7
024DC:  MOVWF  x6C
024DE:  MOVLB  0
024E0:  CALL   15AA
....................    Temporal=read_eeprom(30); 
024E4:  MOVFF  FF2,758
024E8:  BCF    FF2.6
024EA:  BCF    FF2.7
024EC:  CLRF   FAA
024EE:  MOVLW  1E
024F0:  MOVWF  FA9
024F2:  BCF    FA6.6
024F4:  BCF    FA6.7
024F6:  BSF    FA6.0
024F8:  MOVF   FA8,W
024FA:  MOVLB  7
024FC:  BTFSC  x58.6
024FE:  BSF    FF2.6
02500:  BTFSC  x58.7
02502:  BSF    FF2.7
02504:  CLRF   x9D
02506:  MOVWF  x9C
02508:  MOVLB  0
0250A:  CALL   188A
0250E:  MOVFF  03,119
02512:  MOVFF  02,118
02516:  MOVFF  01,117
0251A:  MOVFF  00,116
....................    delay_ms(10); 
0251E:  MOVLW  0A
02520:  MOVLB  7
02522:  MOVWF  x6C
02524:  MOVLB  0
02526:  CALL   15AA
....................    Temporal=Temporal/10.0; 
0252A:  MOVFF  119,79B
0252E:  MOVFF  118,79A
02532:  MOVFF  117,799
02536:  MOVFF  116,798
0253A:  MOVLB  7
0253C:  CLRF   x9F
0253E:  CLRF   x9E
02540:  MOVLW  20
02542:  MOVWF  x9D
02544:  MOVLW  82
02546:  MOVWF  x9C
02548:  MOVLB  0
0254A:  CALL   18C0
0254E:  MOVFF  03,119
02552:  MOVFF  02,118
02556:  MOVFF  01,117
0255A:  MOVFF  00,116
....................    Presion[4].Ajuste=Entero+Temporal; 
0255E:  MOVLB  7
02560:  CLRF   x9D
02562:  MOVFF  8B,79C
02566:  MOVLB  0
02568:  CALL   188A
0256C:  BCF    FD8.1
0256E:  MOVFF  03,79F
02572:  MOVFF  02,79E
02576:  MOVFF  01,79D
0257A:  MOVFF  00,79C
0257E:  MOVFF  119,7A3
02582:  MOVFF  118,7A2
02586:  MOVFF  117,7A1
0258A:  MOVFF  116,7A0
0258E:  RCALL  1E96
02590:  MOVFF  03,6F3
02594:  MOVFF  02,6F2
02598:  MOVFF  01,6F1
0259C:  MOVFF  00,6F0
....................     
....................    Entero=read_eeprom(31);//Decimal1=read_eeprom(26); 
025A0:  MOVFF  FF2,758
025A4:  BCF    FF2.6
025A6:  BCF    FF2.7
025A8:  CLRF   FAA
025AA:  MOVLW  1F
025AC:  MOVWF  FA9
025AE:  BCF    FA6.6
025B0:  BCF    FA6.7
025B2:  BSF    FA6.0
025B4:  MOVF   FA8,W
025B6:  MOVLB  7
025B8:  BTFSC  x58.6
025BA:  BSF    FF2.6
025BC:  BTFSC  x58.7
025BE:  BSF    FF2.7
025C0:  MOVLB  0
025C2:  MOVWF  x8B
....................    delay_ms(10); 
025C4:  MOVLW  0A
025C6:  MOVLB  7
025C8:  MOVWF  x6C
025CA:  MOVLB  0
025CC:  CALL   15AA
....................    Temporal=read_eeprom(32); 
025D0:  MOVFF  FF2,758
025D4:  BCF    FF2.6
025D6:  BCF    FF2.7
025D8:  CLRF   FAA
025DA:  MOVLW  20
025DC:  MOVWF  FA9
025DE:  BCF    FA6.6
025E0:  BCF    FA6.7
025E2:  BSF    FA6.0
025E4:  MOVF   FA8,W
025E6:  MOVLB  7
025E8:  BTFSC  x58.6
025EA:  BSF    FF2.6
025EC:  BTFSC  x58.7
025EE:  BSF    FF2.7
025F0:  CLRF   x9D
025F2:  MOVWF  x9C
025F4:  MOVLB  0
025F6:  CALL   188A
025FA:  MOVFF  03,119
025FE:  MOVFF  02,118
02602:  MOVFF  01,117
02606:  MOVFF  00,116
....................    delay_ms(10); 
0260A:  MOVLW  0A
0260C:  MOVLB  7
0260E:  MOVWF  x6C
02610:  MOVLB  0
02612:  CALL   15AA
....................    Temporal=Temporal/10.0; 
02616:  MOVFF  119,79B
0261A:  MOVFF  118,79A
0261E:  MOVFF  117,799
02622:  MOVFF  116,798
02626:  MOVLB  7
02628:  CLRF   x9F
0262A:  CLRF   x9E
0262C:  MOVLW  20
0262E:  MOVWF  x9D
02630:  MOVLW  82
02632:  MOVWF  x9C
02634:  MOVLB  0
02636:  CALL   18C0
0263A:  MOVFF  03,119
0263E:  MOVFF  02,118
02642:  MOVFF  01,117
02646:  MOVFF  00,116
....................    Presion[3].Ajuste=Entero+Temporal; 
0264A:  MOVLB  7
0264C:  CLRF   x9D
0264E:  MOVFF  8B,79C
02652:  MOVLB  0
02654:  CALL   188A
02658:  BCF    FD8.1
0265A:  MOVFF  03,79F
0265E:  MOVFF  02,79E
02662:  MOVFF  01,79D
02666:  MOVFF  00,79C
0266A:  MOVFF  119,7A3
0266E:  MOVFF  118,7A2
02672:  MOVFF  117,7A1
02676:  MOVFF  116,7A0
0267A:  RCALL  1E96
0267C:  MOVFF  03,683
02680:  MOVFF  02,682
02684:  MOVFF  01,681
02688:  MOVFF  00,680
....................     
....................    Flujo[1].zero_actual=make16(read_eeprom(34),read_eeprom(33)); 
0268C:  MOVFF  FF2,758
02690:  BCF    FF2.6
02692:  BCF    FF2.7
02694:  CLRF   FAA
02696:  MOVLW  22
02698:  MOVWF  FA9
0269A:  BCF    FA6.6
0269C:  BCF    FA6.7
0269E:  BSF    FA6.0
026A0:  MOVF   FA8,W
026A2:  MOVLB  7
026A4:  BTFSC  x58.6
026A6:  BSF    FF2.6
026A8:  BTFSC  x58.7
026AA:  BSF    FF2.7
026AC:  MOVWF  x59
026AE:  MOVFF  FF2,75A
026B2:  BCF    FF2.6
026B4:  BCF    FF2.7
026B6:  CLRF   FAA
026B8:  MOVLW  21
026BA:  MOVWF  FA9
026BC:  BCF    FA6.6
026BE:  BCF    FA6.7
026C0:  BSF    FA6.0
026C2:  MOVF   FA8,W
026C4:  BTFSC  x5A.6
026C6:  BSF    FF2.6
026C8:  BTFSC  x5A.7
026CA:  BSF    FF2.7
026CC:  MOVWF  x5B
026CE:  MOVFF  759,03
026D2:  MOVF   x5B,W
026D4:  MOVWF  x9C
026D6:  MOVFF  03,79D
026DA:  MOVLB  0
026DC:  CALL   188A
026E0:  MOVFF  03,37B
026E4:  MOVFF  02,37A
026E8:  MOVFF  01,379
026EC:  MOVFF  00,378
....................    delay_ms(10); 
026F0:  MOVLW  0A
026F2:  MOVLB  7
026F4:  MOVWF  x6C
026F6:  MOVLB  0
026F8:  CALL   15AA
....................    Flujo[2].zero_actual=make16(read_eeprom(36),read_eeprom(35)); 
026FC:  MOVFF  FF2,758
02700:  BCF    FF2.6
02702:  BCF    FF2.7
02704:  CLRF   FAA
02706:  MOVLW  24
02708:  MOVWF  FA9
0270A:  BCF    FA6.6
0270C:  BCF    FA6.7
0270E:  BSF    FA6.0
02710:  MOVF   FA8,W
02712:  MOVLB  7
02714:  BTFSC  x58.6
02716:  BSF    FF2.6
02718:  BTFSC  x58.7
0271A:  BSF    FF2.7
0271C:  MOVWF  x59
0271E:  MOVFF  FF2,75A
02722:  BCF    FF2.6
02724:  BCF    FF2.7
02726:  CLRF   FAA
02728:  MOVLW  23
0272A:  MOVWF  FA9
0272C:  BCF    FA6.6
0272E:  BCF    FA6.7
02730:  BSF    FA6.0
02732:  MOVF   FA8,W
02734:  BTFSC  x5A.6
02736:  BSF    FF2.6
02738:  BTFSC  x5A.7
0273A:  BSF    FF2.7
0273C:  MOVWF  x5B
0273E:  MOVFF  759,03
02742:  MOVF   x5B,W
02744:  MOVWF  x9C
02746:  MOVFF  03,79D
0274A:  MOVLB  0
0274C:  CALL   188A
02750:  MOVFF  03,3E4
02754:  MOVFF  02,3E3
02758:  MOVFF  01,3E2
0275C:  MOVFF  00,3E1
....................    delay_ms(10); 
02760:  MOVLW  0A
02762:  MOVLB  7
02764:  MOVWF  x6C
02766:  MOVLB  0
02768:  CALL   15AA
....................     
....................    minutos_trabajo=make16(read_eeprom(38),read_eeprom(37)); 
0276C:  MOVFF  FF2,758
02770:  BCF    FF2.6
02772:  BCF    FF2.7
02774:  CLRF   FAA
02776:  MOVLW  26
02778:  MOVWF  FA9
0277A:  BCF    FA6.6
0277C:  BCF    FA6.7
0277E:  BSF    FA6.0
02780:  MOVF   FA8,W
02782:  MOVLB  7
02784:  BTFSC  x58.6
02786:  BSF    FF2.6
02788:  BTFSC  x58.7
0278A:  BSF    FF2.7
0278C:  MOVWF  x59
0278E:  MOVFF  FF2,75A
02792:  BCF    FF2.6
02794:  BCF    FF2.7
02796:  CLRF   FAA
02798:  MOVLW  25
0279A:  MOVWF  FA9
0279C:  BCF    FA6.6
0279E:  BCF    FA6.7
027A0:  BSF    FA6.0
027A2:  MOVF   FA8,W
027A4:  BTFSC  x5A.6
027A6:  BSF    FF2.6
027A8:  BTFSC  x5A.7
027AA:  BSF    FF2.7
027AC:  MOVWF  x5B
027AE:  MOVFF  759,CD
027B2:  MOVFF  75B,CC
....................    delay_ms(10); 
027B6:  MOVLW  0A
027B8:  MOVWF  x6C
027BA:  MOVLB  0
027BC:  CALL   15AA
....................    minutos_uv=read_eeprom(39); 
027C0:  MOVFF  FF2,758
027C4:  BCF    FF2.6
027C6:  BCF    FF2.7
027C8:  CLRF   FAA
027CA:  MOVLW  27
027CC:  MOVWF  FA9
027CE:  BCF    FA6.6
027D0:  BCF    FA6.7
027D2:  BSF    FA6.0
027D4:  MOVF   FA8,W
027D6:  MOVLB  7
027D8:  BTFSC  x58.6
027DA:  BSF    FF2.6
027DC:  BTFSC  x58.7
027DE:  BSF    FF2.7
027E0:  MOVLB  0
027E2:  CLRF   xCB
027E4:  MOVWF  xCA
....................    delay_ms(10); 
027E6:  MOVLW  0A
027E8:  MOVLB  7
027EA:  MOVWF  x6C
027EC:  MOVLB  0
027EE:  CALL   15AA
....................    Vel1=read_eeprom(40); 
027F2:  MOVFF  FF2,758
027F6:  BCF    FF2.6
027F8:  BCF    FF2.7
027FA:  CLRF   FAA
027FC:  MOVLW  28
027FE:  MOVWF  FA9
02800:  BCF    FA6.6
02802:  BCF    FA6.7
02804:  BSF    FA6.0
02806:  MOVF   FA8,W
02808:  MOVLB  7
0280A:  BTFSC  x58.6
0280C:  BSF    FF2.6
0280E:  BTFSC  x58.7
02810:  BSF    FF2.7
02812:  MOVLB  0
02814:  MOVWF  x90
....................    delay_ms(10); 
02816:  MOVLW  0A
02818:  MOVLB  7
0281A:  MOVWF  x6C
0281C:  MOVLB  0
0281E:  CALL   15AA
....................    Vel2=read_eeprom(41); 
02822:  MOVFF  FF2,758
02826:  BCF    FF2.6
02828:  BCF    FF2.7
0282A:  CLRF   FAA
0282C:  MOVLW  29
0282E:  MOVWF  FA9
02830:  BCF    FA6.6
02832:  BCF    FA6.7
02834:  BSF    FA6.0
02836:  MOVF   FA8,W
02838:  MOVLB  7
0283A:  BTFSC  x58.6
0283C:  BSF    FF2.6
0283E:  BTFSC  x58.7
02840:  BSF    FF2.7
02842:  MOVLB  0
02844:  MOVWF  x91
....................    delay_ms(10); 
02846:  MOVLW  0A
02848:  MOVLB  7
0284A:  MOVWF  x6C
0284C:  MOVLB  0
0284E:  CALL   15AA
....................     
....................    Flujo[1].Diferencia=make16(read_eeprom(43),read_eeprom(42)); 
02852:  MOVFF  FF2,758
02856:  BCF    FF2.6
02858:  BCF    FF2.7
0285A:  CLRF   FAA
0285C:  MOVLW  2B
0285E:  MOVWF  FA9
02860:  BCF    FA6.6
02862:  BCF    FA6.7
02864:  BSF    FA6.0
02866:  MOVF   FA8,W
02868:  MOVLB  7
0286A:  BTFSC  x58.6
0286C:  BSF    FF2.6
0286E:  BTFSC  x58.7
02870:  BSF    FF2.7
02872:  MOVWF  x59
02874:  MOVFF  FF2,75A
02878:  BCF    FF2.6
0287A:  BCF    FF2.7
0287C:  CLRF   FAA
0287E:  MOVLW  2A
02880:  MOVWF  FA9
02882:  BCF    FA6.6
02884:  BCF    FA6.7
02886:  BSF    FA6.0
02888:  MOVF   FA8,W
0288A:  BTFSC  x5A.6
0288C:  BSF    FF2.6
0288E:  BTFSC  x5A.7
02890:  BSF    FF2.7
02892:  MOVWF  x5B
02894:  MOVFF  759,03
02898:  MOVF   x5B,W
0289A:  MOVWF  x9C
0289C:  MOVFF  03,79D
028A0:  MOVLB  0
028A2:  CALL   188A
028A6:  MOVFF  03,37F
028AA:  MOVFF  02,37E
028AE:  MOVFF  01,37D
028B2:  MOVFF  00,37C
....................    delay_ms(10); 
028B6:  MOVLW  0A
028B8:  MOVLB  7
028BA:  MOVWF  x6C
028BC:  MOVLB  0
028BE:  CALL   15AA
....................    Flujo[2].Diferencia=make16(read_eeprom(45),read_eeprom(44)); 
028C2:  MOVFF  FF2,758
028C6:  BCF    FF2.6
028C8:  BCF    FF2.7
028CA:  CLRF   FAA
028CC:  MOVLW  2D
028CE:  MOVWF  FA9
028D0:  BCF    FA6.6
028D2:  BCF    FA6.7
028D4:  BSF    FA6.0
028D6:  MOVF   FA8,W
028D8:  MOVLB  7
028DA:  BTFSC  x58.6
028DC:  BSF    FF2.6
028DE:  BTFSC  x58.7
028E0:  BSF    FF2.7
028E2:  MOVWF  x59
028E4:  MOVFF  FF2,75A
028E8:  BCF    FF2.6
028EA:  BCF    FF2.7
028EC:  CLRF   FAA
028EE:  MOVLW  2C
028F0:  MOVWF  FA9
028F2:  BCF    FA6.6
028F4:  BCF    FA6.7
028F6:  BSF    FA6.0
028F8:  MOVF   FA8,W
028FA:  BTFSC  x5A.6
028FC:  BSF    FF2.6
028FE:  BTFSC  x5A.7
02900:  BSF    FF2.7
02902:  MOVWF  x5B
02904:  MOVFF  759,03
02908:  MOVF   x5B,W
0290A:  MOVWF  x9C
0290C:  MOVFF  03,79D
02910:  MOVLB  0
02912:  CALL   188A
02916:  MOVFF  03,3E8
0291A:  MOVFF  02,3E7
0291E:  MOVFF  01,3E6
02922:  MOVFF  00,3E5
....................    delay_ms(10); 
02926:  MOVLW  0A
02928:  MOVLB  7
0292A:  MOVWF  x6C
0292C:  MOVLB  0
0292E:  CALL   15AA
....................    Presion[4].G=make16(read_eeprom(47),read_eeprom(46)); 
02932:  MOVFF  FF2,758
02936:  BCF    FF2.6
02938:  BCF    FF2.7
0293A:  CLRF   FAA
0293C:  MOVLW  2F
0293E:  MOVWF  FA9
02940:  BCF    FA6.6
02942:  BCF    FA6.7
02944:  BSF    FA6.0
02946:  MOVF   FA8,W
02948:  MOVLB  7
0294A:  BTFSC  x58.6
0294C:  BSF    FF2.6
0294E:  BTFSC  x58.7
02950:  BSF    FF2.7
02952:  MOVWF  x59
02954:  MOVFF  FF2,75A
02958:  BCF    FF2.6
0295A:  BCF    FF2.7
0295C:  CLRF   FAA
0295E:  MOVLW  2E
02960:  MOVWF  FA9
02962:  BCF    FA6.6
02964:  BCF    FA6.7
02966:  BSF    FA6.0
02968:  MOVF   FA8,W
0296A:  BTFSC  x5A.6
0296C:  BSF    FF2.6
0296E:  BTFSC  x5A.7
02970:  BSF    FF2.7
02972:  MOVWF  x5B
02974:  MOVFF  759,03
02978:  MOVF   x5B,W
0297A:  MOVWF  x9C
0297C:  MOVFF  03,79D
02980:  MOVLB  0
02982:  CALL   188A
02986:  MOVFF  03,6E5
0298A:  MOVFF  02,6E4
0298E:  MOVFF  01,6E3
02992:  MOVFF  00,6E2
....................    //Gdn=make16(read_eeprom(47),read_eeprom(46)); 
....................    delay_ms(10); 
02996:  MOVLW  0A
02998:  MOVLB  7
0299A:  MOVWF  x6C
0299C:  MOVLB  0
0299E:  CALL   15AA
....................    Presion[3].G=make16(read_eeprom(49),read_eeprom(48)); 
029A2:  MOVFF  FF2,758
029A6:  BCF    FF2.6
029A8:  BCF    FF2.7
029AA:  CLRF   FAA
029AC:  MOVLW  31
029AE:  MOVWF  FA9
029B0:  BCF    FA6.6
029B2:  BCF    FA6.7
029B4:  BSF    FA6.0
029B6:  MOVF   FA8,W
029B8:  MOVLB  7
029BA:  BTFSC  x58.6
029BC:  BSF    FF2.6
029BE:  BTFSC  x58.7
029C0:  BSF    FF2.7
029C2:  MOVWF  x59
029C4:  MOVFF  FF2,75A
029C8:  BCF    FF2.6
029CA:  BCF    FF2.7
029CC:  CLRF   FAA
029CE:  MOVLW  30
029D0:  MOVWF  FA9
029D2:  BCF    FA6.6
029D4:  BCF    FA6.7
029D6:  BSF    FA6.0
029D8:  MOVF   FA8,W
029DA:  BTFSC  x5A.6
029DC:  BSF    FF2.6
029DE:  BTFSC  x5A.7
029E0:  BSF    FF2.7
029E2:  MOVWF  x5B
029E4:  MOVFF  759,03
029E8:  MOVF   x5B,W
029EA:  MOVWF  x9C
029EC:  MOVFF  03,79D
029F0:  MOVLB  0
029F2:  CALL   188A
029F6:  MOVFF  03,675
029FA:  MOVFF  02,674
029FE:  MOVFF  01,673
02A02:  MOVFF  00,672
....................    delay_ms(10); 
02A06:  MOVLW  0A
02A08:  MOVLB  7
02A0A:  MOVWF  x6C
02A0C:  MOVLB  0
02A0E:  CALL   15AA
....................    Flujo[1].negativo=read_eeprom(50); 
02A12:  MOVFF  FF2,758
02A16:  BCF    FF2.6
02A18:  BCF    FF2.7
02A1A:  CLRF   FAA
02A1C:  MOVLW  32
02A1E:  MOVWF  FA9
02A20:  BCF    FA6.6
02A22:  BCF    FA6.7
02A24:  BSF    FA6.0
02A26:  MOVF   FA8,W
02A28:  MOVLB  7
02A2A:  BTFSC  x58.6
02A2C:  BSF    FF2.6
02A2E:  BTFSC  x58.7
02A30:  BSF    FF2.7
02A32:  MOVLB  3
02A34:  MOVWF  x82
....................    delay_ms(10); 
02A36:  MOVLW  0A
02A38:  MOVLB  7
02A3A:  MOVWF  x6C
02A3C:  MOVLB  0
02A3E:  CALL   15AA
....................    Flujo[2].negativo=read_eeprom(51); 
02A42:  MOVFF  FF2,758
02A46:  BCF    FF2.6
02A48:  BCF    FF2.7
02A4A:  CLRF   FAA
02A4C:  MOVLW  33
02A4E:  MOVWF  FA9
02A50:  BCF    FA6.6
02A52:  BCF    FA6.7
02A54:  BSF    FA6.0
02A56:  MOVF   FA8,W
02A58:  MOVLB  7
02A5A:  BTFSC  x58.6
02A5C:  BSF    FF2.6
02A5E:  BTFSC  x58.7
02A60:  BSF    FF2.7
02A62:  MOVLB  3
02A64:  MOVWF  xEB
....................    delay_ms(10); 
02A66:  MOVLW  0A
02A68:  MOVLB  7
02A6A:  MOVWF  x6C
02A6C:  MOVLB  0
02A6E:  CALL   15AA
....................  
....................    Entero=read_eeprom(52); 
02A72:  MOVFF  FF2,758
02A76:  BCF    FF2.6
02A78:  BCF    FF2.7
02A7A:  CLRF   FAA
02A7C:  MOVLW  34
02A7E:  MOVWF  FA9
02A80:  BCF    FA6.6
02A82:  BCF    FA6.7
02A84:  BSF    FA6.0
02A86:  MOVF   FA8,W
02A88:  MOVLB  7
02A8A:  BTFSC  x58.6
02A8C:  BSF    FF2.6
02A8E:  BTFSC  x58.7
02A90:  BSF    FF2.7
02A92:  MOVLB  0
02A94:  MOVWF  x8B
....................    delay_ms(10); 
02A96:  MOVLW  0A
02A98:  MOVLB  7
02A9A:  MOVWF  x6C
02A9C:  MOVLB  0
02A9E:  CALL   15AA
....................    Temporal=read_eeprom(53); 
02AA2:  MOVFF  FF2,758
02AA6:  BCF    FF2.6
02AA8:  BCF    FF2.7
02AAA:  CLRF   FAA
02AAC:  MOVLW  35
02AAE:  MOVWF  FA9
02AB0:  BCF    FA6.6
02AB2:  BCF    FA6.7
02AB4:  BSF    FA6.0
02AB6:  MOVF   FA8,W
02AB8:  MOVLB  7
02ABA:  BTFSC  x58.6
02ABC:  BSF    FF2.6
02ABE:  BTFSC  x58.7
02AC0:  BSF    FF2.7
02AC2:  CLRF   x9D
02AC4:  MOVWF  x9C
02AC6:  MOVLB  0
02AC8:  CALL   188A
02ACC:  MOVFF  03,119
02AD0:  MOVFF  02,118
02AD4:  MOVFF  01,117
02AD8:  MOVFF  00,116
....................    delay_ms(10); 
02ADC:  MOVLW  0A
02ADE:  MOVLB  7
02AE0:  MOVWF  x6C
02AE2:  MOVLB  0
02AE4:  CALL   15AA
....................    Temporal=Temporal/100.0; 
02AE8:  MOVFF  119,79B
02AEC:  MOVFF  118,79A
02AF0:  MOVFF  117,799
02AF4:  MOVFF  116,798
02AF8:  MOVLB  7
02AFA:  CLRF   x9F
02AFC:  CLRF   x9E
02AFE:  MOVLW  48
02B00:  MOVWF  x9D
02B02:  MOVLW  85
02B04:  MOVWF  x9C
02B06:  MOVLB  0
02B08:  CALL   18C0
02B0C:  MOVFF  03,119
02B10:  MOVFF  02,118
02B14:  MOVFF  01,117
02B18:  MOVFF  00,116
....................    Relacion=Entero+Temporal; 
02B1C:  MOVLB  7
02B1E:  CLRF   x9D
02B20:  MOVFF  8B,79C
02B24:  MOVLB  0
02B26:  CALL   188A
02B2A:  BCF    FD8.1
02B2C:  MOVFF  03,79F
02B30:  MOVFF  02,79E
02B34:  MOVFF  01,79D
02B38:  MOVFF  00,79C
02B3C:  MOVFF  119,7A3
02B40:  MOVFF  118,7A2
02B44:  MOVFF  117,7A1
02B48:  MOVFF  116,7A0
02B4C:  CALL   1E96
02B50:  MOVFF  03,245
02B54:  MOVFF  02,244
02B58:  MOVFF  01,243
02B5C:  MOVFF  00,242
....................     
....................    Entero=read_eeprom(54); 
02B60:  MOVFF  FF2,758
02B64:  BCF    FF2.6
02B66:  BCF    FF2.7
02B68:  CLRF   FAA
02B6A:  MOVLW  36
02B6C:  MOVWF  FA9
02B6E:  BCF    FA6.6
02B70:  BCF    FA6.7
02B72:  BSF    FA6.0
02B74:  MOVF   FA8,W
02B76:  MOVLB  7
02B78:  BTFSC  x58.6
02B7A:  BSF    FF2.6
02B7C:  BTFSC  x58.7
02B7E:  BSF    FF2.7
02B80:  MOVLB  0
02B82:  MOVWF  x8B
....................    delay_ms(10); 
02B84:  MOVLW  0A
02B86:  MOVLB  7
02B88:  MOVWF  x6C
02B8A:  MOVLB  0
02B8C:  CALL   15AA
....................    Temporal=read_eeprom(55); 
02B90:  MOVFF  FF2,758
02B94:  BCF    FF2.6
02B96:  BCF    FF2.7
02B98:  CLRF   FAA
02B9A:  MOVLW  37
02B9C:  MOVWF  FA9
02B9E:  BCF    FA6.6
02BA0:  BCF    FA6.7
02BA2:  BSF    FA6.0
02BA4:  MOVF   FA8,W
02BA6:  MOVLB  7
02BA8:  BTFSC  x58.6
02BAA:  BSF    FF2.6
02BAC:  BTFSC  x58.7
02BAE:  BSF    FF2.7
02BB0:  CLRF   x9D
02BB2:  MOVWF  x9C
02BB4:  MOVLB  0
02BB6:  CALL   188A
02BBA:  MOVFF  03,119
02BBE:  MOVFF  02,118
02BC2:  MOVFF  01,117
02BC6:  MOVFF  00,116
....................    delay_ms(10); 
02BCA:  MOVLW  0A
02BCC:  MOVLB  7
02BCE:  MOVWF  x6C
02BD0:  MOVLB  0
02BD2:  CALL   15AA
....................    Temporal=Temporal/100.0; 
02BD6:  MOVFF  119,79B
02BDA:  MOVFF  118,79A
02BDE:  MOVFF  117,799
02BE2:  MOVFF  116,798
02BE6:  MOVLB  7
02BE8:  CLRF   x9F
02BEA:  CLRF   x9E
02BEC:  MOVLW  48
02BEE:  MOVWF  x9D
02BF0:  MOVLW  85
02BF2:  MOVWF  x9C
02BF4:  MOVLB  0
02BF6:  CALL   18C0
02BFA:  MOVFF  03,119
02BFE:  MOVFF  02,118
02C02:  MOVFF  01,117
02C06:  MOVFF  00,116
....................    pInDn=Entero+Temporal; 
02C0A:  MOVLB  7
02C0C:  CLRF   x9D
02C0E:  MOVFF  8B,79C
02C12:  MOVLB  0
02C14:  CALL   188A
02C18:  BCF    FD8.1
02C1A:  MOVFF  03,79F
02C1E:  MOVFF  02,79E
02C22:  MOVFF  01,79D
02C26:  MOVFF  00,79C
02C2A:  MOVFF  119,7A3
02C2E:  MOVFF  118,7A2
02C32:  MOVFF  117,7A1
02C36:  MOVFF  116,7A0
02C3A:  CALL   1E96
02C3E:  MOVFF  03,131
02C42:  MOVFF  02,130
02C46:  MOVFF  01,12F
02C4A:  MOVFF  00,12E
....................     
....................    Entero=read_eeprom(56); 
02C4E:  MOVFF  FF2,758
02C52:  BCF    FF2.6
02C54:  BCF    FF2.7
02C56:  CLRF   FAA
02C58:  MOVLW  38
02C5A:  MOVWF  FA9
02C5C:  BCF    FA6.6
02C5E:  BCF    FA6.7
02C60:  BSF    FA6.0
02C62:  MOVF   FA8,W
02C64:  MOVLB  7
02C66:  BTFSC  x58.6
02C68:  BSF    FF2.6
02C6A:  BTFSC  x58.7
02C6C:  BSF    FF2.7
02C6E:  MOVLB  0
02C70:  MOVWF  x8B
....................    delay_ms(10); 
02C72:  MOVLW  0A
02C74:  MOVLB  7
02C76:  MOVWF  x6C
02C78:  MOVLB  0
02C7A:  CALL   15AA
....................    Temporal=read_eeprom(57); 
02C7E:  MOVFF  FF2,758
02C82:  BCF    FF2.6
02C84:  BCF    FF2.7
02C86:  CLRF   FAA
02C88:  MOVLW  39
02C8A:  MOVWF  FA9
02C8C:  BCF    FA6.6
02C8E:  BCF    FA6.7
02C90:  BSF    FA6.0
02C92:  MOVF   FA8,W
02C94:  MOVLB  7
02C96:  BTFSC  x58.6
02C98:  BSF    FF2.6
02C9A:  BTFSC  x58.7
02C9C:  BSF    FF2.7
02C9E:  CLRF   x9D
02CA0:  MOVWF  x9C
02CA2:  MOVLB  0
02CA4:  CALL   188A
02CA8:  MOVFF  03,119
02CAC:  MOVFF  02,118
02CB0:  MOVFF  01,117
02CB4:  MOVFF  00,116
....................    delay_ms(10); 
02CB8:  MOVLW  0A
02CBA:  MOVLB  7
02CBC:  MOVWF  x6C
02CBE:  MOVLB  0
02CC0:  CALL   15AA
....................    Temporal=Temporal/100.0; 
02CC4:  MOVFF  119,79B
02CC8:  MOVFF  118,79A
02CCC:  MOVFF  117,799
02CD0:  MOVFF  116,798
02CD4:  MOVLB  7
02CD6:  CLRF   x9F
02CD8:  CLRF   x9E
02CDA:  MOVLW  48
02CDC:  MOVWF  x9D
02CDE:  MOVLW  85
02CE0:  MOVWF  x9C
02CE2:  MOVLB  0
02CE4:  CALL   18C0
02CE8:  MOVFF  03,119
02CEC:  MOVFF  02,118
02CF0:  MOVFF  01,117
02CF4:  MOVFF  00,116
....................    pInIn=Entero+Temporal; 
02CF8:  MOVLB  7
02CFA:  CLRF   x9D
02CFC:  MOVFF  8B,79C
02D00:  MOVLB  0
02D02:  CALL   188A
02D06:  BCF    FD8.1
02D08:  MOVFF  03,79F
02D0C:  MOVFF  02,79E
02D10:  MOVFF  01,79D
02D14:  MOVFF  00,79C
02D18:  MOVFF  119,7A3
02D1C:  MOVFF  118,7A2
02D20:  MOVFF  117,7A1
02D24:  MOVFF  116,7A0
02D28:  CALL   1E96
02D2C:  MOVFF  03,135
02D30:  MOVFF  02,134
02D34:  MOVFF  01,133
02D38:  MOVFF  00,132
....................     
....................    Pr=read_eeprom(58); 
02D3C:  MOVFF  FF2,758
02D40:  BCF    FF2.6
02D42:  BCF    FF2.7
02D44:  CLRF   FAA
02D46:  MOVLW  3A
02D48:  MOVWF  FA9
02D4A:  BCF    FA6.6
02D4C:  BCF    FA6.7
02D4E:  BSF    FA6.0
02D50:  MOVF   FA8,W
02D52:  MOVLB  7
02D54:  BTFSC  x58.6
02D56:  BSF    FF2.6
02D58:  BTFSC  x58.7
02D5A:  BSF    FF2.7
02D5C:  CLRF   x9D
02D5E:  MOVWF  x9C
02D60:  MOVLB  0
02D62:  CALL   188A
02D66:  MOVFF  03,275
02D6A:  MOVFF  02,274
02D6E:  MOVFF  01,273
02D72:  MOVFF  00,272
....................    delay_ms(10); 
02D76:  MOVLW  0A
02D78:  MOVLB  7
02D7A:  MOVWF  x6C
02D7C:  MOVLB  0
02D7E:  CALL   15AA
....................    HR=read_eeprom(59); 
02D82:  MOVFF  FF2,758
02D86:  BCF    FF2.6
02D88:  BCF    FF2.7
02D8A:  CLRF   FAA
02D8C:  MOVLW  3B
02D8E:  MOVWF  FA9
02D90:  BCF    FA6.6
02D92:  BCF    FA6.7
02D94:  BSF    FA6.0
02D96:  MOVF   FA8,W
02D98:  MOVLB  7
02D9A:  BTFSC  x58.6
02D9C:  BSF    FF2.6
02D9E:  BTFSC  x58.7
02DA0:  BSF    FF2.7
02DA2:  CLRF   x9D
02DA4:  MOVWF  x9C
02DA6:  MOVLB  0
02DA8:  CALL   188A
02DAC:  MOVFF  03,25D
02DB0:  MOVFF  02,25C
02DB4:  MOVFF  01,25B
02DB8:  MOVFF  00,25A
....................    delay_ms(10); 
02DBC:  MOVLW  0A
02DBE:  MOVLB  7
02DC0:  MOVWF  x6C
02DC2:  MOVLB  0
02DC4:  CALL   15AA
....................     
....................    mSilenciop=read_eeprom(60); 
02DC8:  MOVFF  FF2,758
02DCC:  BCF    FF2.6
02DCE:  BCF    FF2.7
02DD0:  CLRF   FAA
02DD2:  MOVLW  3C
02DD4:  MOVWF  FA9
02DD6:  BCF    FA6.6
02DD8:  BCF    FA6.7
02DDA:  BSF    FA6.0
02DDC:  MOVF   FA8,W
02DDE:  MOVLB  7
02DE0:  BTFSC  x58.6
02DE2:  BSF    FF2.6
02DE4:  BTFSC  x58.7
02DE6:  BSF    FF2.7
02DE8:  MOVLB  0
02DEA:  MOVWF  xC3
....................    delay_ms(10); 
02DEC:  MOVLW  0A
02DEE:  MOVLB  7
02DF0:  MOVWF  x6C
02DF2:  MOVLB  0
02DF4:  CALL   15AA
....................    sSilenciop=read_eeprom(61); 
02DF8:  MOVFF  FF2,758
02DFC:  BCF    FF2.6
02DFE:  BCF    FF2.7
02E00:  CLRF   FAA
02E02:  MOVLW  3D
02E04:  MOVWF  FA9
02E06:  BCF    FA6.6
02E08:  BCF    FA6.7
02E0A:  BSF    FA6.0
02E0C:  MOVF   FA8,W
02E0E:  MOVLB  7
02E10:  BTFSC  x58.6
02E12:  BSF    FF2.6
02E14:  BTFSC  x58.7
02E16:  BSF    FF2.7
02E18:  MOVLB  0
02E1A:  MOVWF  xC2
....................    delay_ms(10); 
02E1C:  MOVLW  0A
02E1E:  MOVLB  7
02E20:  MOVWF  x6C
02E22:  MOVLB  0
02E24:  CALL   15AA
....................     
....................    delay_ms(10); 
02E28:  MOVLW  0A
02E2A:  MOVLB  7
02E2C:  MOVWF  x6C
02E2E:  MOVLB  0
02E30:  CALL   15AA
....................    Entero=read_eeprom(62);//Decimal1=read_eeprom(26); 
02E34:  MOVFF  FF2,758
02E38:  BCF    FF2.6
02E3A:  BCF    FF2.7
02E3C:  CLRF   FAA
02E3E:  MOVLW  3E
02E40:  MOVWF  FA9
02E42:  BCF    FA6.6
02E44:  BCF    FA6.7
02E46:  BSF    FA6.0
02E48:  MOVF   FA8,W
02E4A:  MOVLB  7
02E4C:  BTFSC  x58.6
02E4E:  BSF    FF2.6
02E50:  BTFSC  x58.7
02E52:  BSF    FF2.7
02E54:  MOVLB  0
02E56:  MOVWF  x8B
....................    delay_ms(10); 
02E58:  MOVLW  0A
02E5A:  MOVLB  7
02E5C:  MOVWF  x6C
02E5E:  MOVLB  0
02E60:  CALL   15AA
....................    Temporal=read_eeprom(63); 
02E64:  MOVFF  FF2,758
02E68:  BCF    FF2.6
02E6A:  BCF    FF2.7
02E6C:  CLRF   FAA
02E6E:  MOVLW  3F
02E70:  MOVWF  FA9
02E72:  BCF    FA6.6
02E74:  BCF    FA6.7
02E76:  BSF    FA6.0
02E78:  MOVF   FA8,W
02E7A:  MOVLB  7
02E7C:  BTFSC  x58.6
02E7E:  BSF    FF2.6
02E80:  BTFSC  x58.7
02E82:  BSF    FF2.7
02E84:  CLRF   x9D
02E86:  MOVWF  x9C
02E88:  MOVLB  0
02E8A:  CALL   188A
02E8E:  MOVFF  03,119
02E92:  MOVFF  02,118
02E96:  MOVFF  01,117
02E9A:  MOVFF  00,116
....................    delay_ms(10); 
02E9E:  MOVLW  0A
02EA0:  MOVLB  7
02EA2:  MOVWF  x6C
02EA4:  MOVLB  0
02EA6:  CALL   15AA
....................    Temporal=Temporal/10.0; 
02EAA:  MOVFF  119,79B
02EAE:  MOVFF  118,79A
02EB2:  MOVFF  117,799
02EB6:  MOVFF  116,798
02EBA:  MOVLB  7
02EBC:  CLRF   x9F
02EBE:  CLRF   x9E
02EC0:  MOVLW  20
02EC2:  MOVWF  x9D
02EC4:  MOVLW  82
02EC6:  MOVWF  x9C
02EC8:  MOVLB  0
02ECA:  CALL   18C0
02ECE:  MOVFF  03,119
02ED2:  MOVFF  02,118
02ED6:  MOVFF  01,117
02EDA:  MOVFF  00,116
....................    Presion[4].AjustePresion=Entero+Temporal; 
02EDE:  MOVLB  7
02EE0:  CLRF   x9D
02EE2:  MOVFF  8B,79C
02EE6:  MOVLB  0
02EE8:  CALL   188A
02EEC:  BCF    FD8.1
02EEE:  MOVFF  03,79F
02EF2:  MOVFF  02,79E
02EF6:  MOVFF  01,79D
02EFA:  MOVFF  00,79C
02EFE:  MOVFF  119,7A3
02F02:  MOVFF  118,7A2
02F06:  MOVFF  117,7A1
02F0A:  MOVFF  116,7A0
02F0E:  CALL   1E96
02F12:  MOVFF  03,6F7
02F16:  MOVFF  02,6F6
02F1A:  MOVFF  01,6F5
02F1E:  MOVFF  00,6F4
.................... } 
02F22:  GOTO   8EC0 (RETURN)
....................  
.................... void LimitaValores(void){ 
....................    if(Password[0]>9 || Password[0]<0){ 
*
02FA0:  BTFSC  xE2.7
02FA2:  BRA    2FAA
02FA4:  MOVF   xE2,W
02FA6:  SUBLW  09
02FA8:  BNC   2FB0
02FAA:  BTFSC  xE2.7
02FAC:  BRA    2FB0
02FAE:  BRA    2FDE
....................       Password[0]=0;write_eeprom(0,0); 
02FB0:  CLRF   xE2
02FB2:  CLRF   FAA
02FB4:  CLRF   FA9
02FB6:  CLRF   FA8
02FB8:  BCF    FA6.6
02FBA:  BCF    FA6.7
02FBC:  BSF    FA6.2
02FBE:  MOVF   FF2,W
02FC0:  MOVWF  00
02FC2:  BCF    FF2.6
02FC4:  BCF    FF2.7
02FC6:  MOVLB  F
02FC8:  MOVLW  55
02FCA:  MOVWF  FA7
02FCC:  MOVLW  AA
02FCE:  MOVWF  FA7
02FD0:  BSF    FA6.1
02FD2:  BTFSC  FA6.1
02FD4:  BRA    2FD2
02FD6:  BCF    FA6.2
02FD8:  MOVF   00,W
02FDA:  IORWF  FF2,F
02FDC:  MOVLB  0
....................    } 
....................    if(Password[1]>9 || Password[1]<0){ 
02FDE:  BTFSC  xE3.7
02FE0:  BRA    2FE8
02FE2:  MOVF   xE3,W
02FE4:  SUBLW  09
02FE6:  BNC   2FEE
02FE8:  BTFSC  xE3.7
02FEA:  BRA    2FEE
02FEC:  BRA    301E
....................       Password[1]=0;write_eeprom(1,0); 
02FEE:  CLRF   xE3
02FF0:  CLRF   FAA
02FF2:  MOVLW  01
02FF4:  MOVWF  FA9
02FF6:  CLRF   FA8
02FF8:  BCF    FA6.6
02FFA:  BCF    FA6.7
02FFC:  BSF    FA6.2
02FFE:  MOVF   FF2,W
03000:  MOVWF  00
03002:  BCF    FF2.6
03004:  BCF    FF2.7
03006:  MOVLB  F
03008:  MOVLW  55
0300A:  MOVWF  FA7
0300C:  MOVLW  AA
0300E:  MOVWF  FA7
03010:  BSF    FA6.1
03012:  BTFSC  FA6.1
03014:  BRA    3012
03016:  BCF    FA6.2
03018:  MOVF   00,W
0301A:  IORWF  FF2,F
0301C:  MOVLB  0
....................    } 
....................    if(Password[2]>9 || Password[2]<0){ 
0301E:  BTFSC  xE4.7
03020:  BRA    3028
03022:  MOVF   xE4,W
03024:  SUBLW  09
03026:  BNC   302E
03028:  BTFSC  xE4.7
0302A:  BRA    302E
0302C:  BRA    305E
....................       Password[2]=0;write_eeprom(2,0); 
0302E:  CLRF   xE4
03030:  CLRF   FAA
03032:  MOVLW  02
03034:  MOVWF  FA9
03036:  CLRF   FA8
03038:  BCF    FA6.6
0303A:  BCF    FA6.7
0303C:  BSF    FA6.2
0303E:  MOVF   FF2,W
03040:  MOVWF  00
03042:  BCF    FF2.6
03044:  BCF    FF2.7
03046:  MOVLB  F
03048:  MOVLW  55
0304A:  MOVWF  FA7
0304C:  MOVLW  AA
0304E:  MOVWF  FA7
03050:  BSF    FA6.1
03052:  BTFSC  FA6.1
03054:  BRA    3052
03056:  BCF    FA6.2
03058:  MOVF   00,W
0305A:  IORWF  FF2,F
0305C:  MOVLB  0
....................    } 
....................    if(Password[3]>9 || Password[3]<0){ 
0305E:  BTFSC  xE5.7
03060:  BRA    3068
03062:  MOVF   xE5,W
03064:  SUBLW  09
03066:  BNC   306E
03068:  BTFSC  xE5.7
0306A:  BRA    306E
0306C:  BRA    309E
....................       Password[3]=0;write_eeprom(3,0); 
0306E:  CLRF   xE5
03070:  CLRF   FAA
03072:  MOVLW  03
03074:  MOVWF  FA9
03076:  CLRF   FA8
03078:  BCF    FA6.6
0307A:  BCF    FA6.7
0307C:  BSF    FA6.2
0307E:  MOVF   FF2,W
03080:  MOVWF  00
03082:  BCF    FF2.6
03084:  BCF    FF2.7
03086:  MOVLB  F
03088:  MOVLW  55
0308A:  MOVWF  FA7
0308C:  MOVLW  AA
0308E:  MOVWF  FA7
03090:  BSF    FA6.1
03092:  BTFSC  FA6.1
03094:  BRA    3092
03096:  BCF    FA6.2
03098:  MOVF   00,W
0309A:  IORWF  FF2,F
0309C:  MOVLB  0
....................    } 
....................    if(mPurgap>99){ 
0309E:  MOVF   xB4,W
030A0:  SUBLW  63
030A2:  BC    30D8
....................       mPurgaP=1;write_eeprom(4,1); 
030A4:  MOVLW  01
030A6:  MOVWF  xB4
030A8:  CLRF   FAA
030AA:  MOVLW  04
030AC:  MOVWF  FA9
030AE:  MOVLW  01
030B0:  MOVWF  FA8
030B2:  BCF    FA6.6
030B4:  BCF    FA6.7
030B6:  BSF    FA6.2
030B8:  MOVF   FF2,W
030BA:  MOVWF  00
030BC:  BCF    FF2.6
030BE:  BCF    FF2.7
030C0:  MOVLB  F
030C2:  MOVLW  55
030C4:  MOVWF  FA7
030C6:  MOVLW  AA
030C8:  MOVWF  FA7
030CA:  BSF    FA6.1
030CC:  BTFSC  FA6.1
030CE:  BRA    30CC
030D0:  BCF    FA6.2
030D2:  MOVF   00,W
030D4:  IORWF  FF2,F
030D6:  MOVLB  0
....................    } 
....................    if(sPurgap>59){ 
030D8:  MOVF   xB2,W
030DA:  SUBLW  3B
030DC:  BC    310E
....................       sPurgaP=0;write_eeprom(5,0); 
030DE:  CLRF   xB2
030E0:  CLRF   FAA
030E2:  MOVLW  05
030E4:  MOVWF  FA9
030E6:  CLRF   FA8
030E8:  BCF    FA6.6
030EA:  BCF    FA6.7
030EC:  BSF    FA6.2
030EE:  MOVF   FF2,W
030F0:  MOVWF  00
030F2:  BCF    FF2.6
030F4:  BCF    FF2.7
030F6:  MOVLB  F
030F8:  MOVLW  55
030FA:  MOVWF  FA7
030FC:  MOVLW  AA
030FE:  MOVWF  FA7
03100:  BSF    FA6.1
03102:  BTFSC  FA6.1
03104:  BRA    3102
03106:  BCF    FA6.2
03108:  MOVF   00,W
0310A:  IORWF  FF2,F
0310C:  MOVLB  0
....................    } 
....................    if(mPPurgap>99){ 
0310E:  MOVF   xB8,W
03110:  SUBLW  63
03112:  BC    3148
....................       mPPurgaP=1;write_eeprom(6,1); 
03114:  MOVLW  01
03116:  MOVWF  xB8
03118:  CLRF   FAA
0311A:  MOVLW  06
0311C:  MOVWF  FA9
0311E:  MOVLW  01
03120:  MOVWF  FA8
03122:  BCF    FA6.6
03124:  BCF    FA6.7
03126:  BSF    FA6.2
03128:  MOVF   FF2,W
0312A:  MOVWF  00
0312C:  BCF    FF2.6
0312E:  BCF    FF2.7
03130:  MOVLB  F
03132:  MOVLW  55
03134:  MOVWF  FA7
03136:  MOVLW  AA
03138:  MOVWF  FA7
0313A:  BSF    FA6.1
0313C:  BTFSC  FA6.1
0313E:  BRA    313C
03140:  BCF    FA6.2
03142:  MOVF   00,W
03144:  IORWF  FF2,F
03146:  MOVLB  0
....................    } 
....................    if(sPPurgap>59){ 
03148:  MOVF   xB6,W
0314A:  SUBLW  3B
0314C:  BC    317E
....................       sPPurgaP=0;write_eeprom(7,0); 
0314E:  CLRF   xB6
03150:  CLRF   FAA
03152:  MOVLW  07
03154:  MOVWF  FA9
03156:  CLRF   FA8
03158:  BCF    FA6.6
0315A:  BCF    FA6.7
0315C:  BSF    FA6.2
0315E:  MOVF   FF2,W
03160:  MOVWF  00
03162:  BCF    FF2.6
03164:  BCF    FF2.7
03166:  MOVLB  F
03168:  MOVLW  55
0316A:  MOVWF  FA7
0316C:  MOVLW  AA
0316E:  MOVWF  FA7
03170:  BSF    FA6.1
03172:  BTFSC  FA6.1
03174:  BRA    3172
03176:  BCF    FA6.2
03178:  MOVF   00,W
0317A:  IORWF  FF2,F
0317C:  MOVLB  0
....................    } 
....................    if(mUVp>99){ 
0317E:  MOVF   xBC,W
03180:  SUBLW  63
03182:  BC    31B8
....................       mUVP=1;write_eeprom(8,1); 
03184:  MOVLW  01
03186:  MOVWF  xBC
03188:  CLRF   FAA
0318A:  MOVLW  08
0318C:  MOVWF  FA9
0318E:  MOVLW  01
03190:  MOVWF  FA8
03192:  BCF    FA6.6
03194:  BCF    FA6.7
03196:  BSF    FA6.2
03198:  MOVF   FF2,W
0319A:  MOVWF  00
0319C:  BCF    FF2.6
0319E:  BCF    FF2.7
031A0:  MOVLB  F
031A2:  MOVLW  55
031A4:  MOVWF  FA7
031A6:  MOVLW  AA
031A8:  MOVWF  FA7
031AA:  BSF    FA6.1
031AC:  BTFSC  FA6.1
031AE:  BRA    31AC
031B0:  BCF    FA6.2
031B2:  MOVF   00,W
031B4:  IORWF  FF2,F
031B6:  MOVLB  0
....................    } 
....................    if(sUVp>59){ 
031B8:  MOVF   xBB,W
031BA:  SUBLW  3B
031BC:  BC    31EE
....................       sUVP=0;write_eeprom(9,0); 
031BE:  CLRF   xBB
031C0:  CLRF   FAA
031C2:  MOVLW  09
031C4:  MOVWF  FA9
031C6:  CLRF   FA8
031C8:  BCF    FA6.6
031CA:  BCF    FA6.7
031CC:  BSF    FA6.2
031CE:  MOVF   FF2,W
031D0:  MOVWF  00
031D2:  BCF    FF2.6
031D4:  BCF    FF2.7
031D6:  MOVLB  F
031D8:  MOVLW  55
031DA:  MOVWF  FA7
031DC:  MOVLW  AA
031DE:  MOVWF  FA7
031E0:  BSF    FA6.1
031E2:  BTFSC  FA6.1
031E4:  BRA    31E2
031E6:  BCF    FA6.2
031E8:  MOVF   00,W
031EA:  IORWF  FF2,F
031EC:  MOVLB  0
....................    } 
....................    if(Tuv[0]>9 || Tuv[0]<0){ 
031EE:  BTFSC  xDA.7
031F0:  BRA    31F8
031F2:  MOVF   xDA,W
031F4:  SUBLW  09
031F6:  BNC   31FE
031F8:  BTFSC  xDA.7
031FA:  BRA    31FE
031FC:  BRA    322E
....................       Tuv[0]=0;write_eeprom(12,0); 
031FE:  CLRF   xDA
03200:  CLRF   FAA
03202:  MOVLW  0C
03204:  MOVWF  FA9
03206:  CLRF   FA8
03208:  BCF    FA6.6
0320A:  BCF    FA6.7
0320C:  BSF    FA6.2
0320E:  MOVF   FF2,W
03210:  MOVWF  00
03212:  BCF    FF2.6
03214:  BCF    FF2.7
03216:  MOVLB  F
03218:  MOVLW  55
0321A:  MOVWF  FA7
0321C:  MOVLW  AA
0321E:  MOVWF  FA7
03220:  BSF    FA6.1
03222:  BTFSC  FA6.1
03224:  BRA    3222
03226:  BCF    FA6.2
03228:  MOVF   00,W
0322A:  IORWF  FF2,F
0322C:  MOVLB  0
....................    } 
....................    if(Tuv[1]>9 || Tuv[1]<0){ 
0322E:  BTFSC  xDB.7
03230:  BRA    3238
03232:  MOVF   xDB,W
03234:  SUBLW  09
03236:  BNC   323E
03238:  BTFSC  xDB.7
0323A:  BRA    323E
0323C:  BRA    326E
....................       Tuv[1]=0;write_eeprom(13,0); 
0323E:  CLRF   xDB
03240:  CLRF   FAA
03242:  MOVLW  0D
03244:  MOVWF  FA9
03246:  CLRF   FA8
03248:  BCF    FA6.6
0324A:  BCF    FA6.7
0324C:  BSF    FA6.2
0324E:  MOVF   FF2,W
03250:  MOVWF  00
03252:  BCF    FF2.6
03254:  BCF    FF2.7
03256:  MOVLB  F
03258:  MOVLW  55
0325A:  MOVWF  FA7
0325C:  MOVLW  AA
0325E:  MOVWF  FA7
03260:  BSF    FA6.1
03262:  BTFSC  FA6.1
03264:  BRA    3262
03266:  BCF    FA6.2
03268:  MOVF   00,W
0326A:  IORWF  FF2,F
0326C:  MOVLB  0
....................    } 
....................    if(Tuv[2]>9 || Tuv[2]<0){ 
0326E:  BTFSC  xDC.7
03270:  BRA    3278
03272:  MOVF   xDC,W
03274:  SUBLW  09
03276:  BNC   327E
03278:  BTFSC  xDC.7
0327A:  BRA    327E
0327C:  BRA    32AE
....................       Tuv[2]=0;write_eeprom(14,0); 
0327E:  CLRF   xDC
03280:  CLRF   FAA
03282:  MOVLW  0E
03284:  MOVWF  FA9
03286:  CLRF   FA8
03288:  BCF    FA6.6
0328A:  BCF    FA6.7
0328C:  BSF    FA6.2
0328E:  MOVF   FF2,W
03290:  MOVWF  00
03292:  BCF    FF2.6
03294:  BCF    FF2.7
03296:  MOVLB  F
03298:  MOVLW  55
0329A:  MOVWF  FA7
0329C:  MOVLW  AA
0329E:  MOVWF  FA7
032A0:  BSF    FA6.1
032A2:  BTFSC  FA6.1
032A4:  BRA    32A2
032A6:  BCF    FA6.2
032A8:  MOVF   00,W
032AA:  IORWF  FF2,F
032AC:  MOVLB  0
....................    } 
....................    if(Tuv[3]>9 || Tuv[3]<0){ 
032AE:  BTFSC  xDD.7
032B0:  BRA    32B8
032B2:  MOVF   xDD,W
032B4:  SUBLW  09
032B6:  BNC   32BE
032B8:  BTFSC  xDD.7
032BA:  BRA    32BE
032BC:  BRA    32EE
....................       Tuv[3]=0;write_eeprom(15,0); 
032BE:  CLRF   xDD
032C0:  CLRF   FAA
032C2:  MOVLW  0F
032C4:  MOVWF  FA9
032C6:  CLRF   FA8
032C8:  BCF    FA6.6
032CA:  BCF    FA6.7
032CC:  BSF    FA6.2
032CE:  MOVF   FF2,W
032D0:  MOVWF  00
032D2:  BCF    FF2.6
032D4:  BCF    FF2.7
032D6:  MOVLB  F
032D8:  MOVLW  55
032DA:  MOVWF  FA7
032DC:  MOVLW  AA
032DE:  MOVWF  FA7
032E0:  BSF    FA6.1
032E2:  BTFSC  FA6.1
032E4:  BRA    32E2
032E6:  BCF    FA6.2
032E8:  MOVF   00,W
032EA:  IORWF  FF2,F
032EC:  MOVLB  0
....................    } 
....................    if(Ttrabajo[0]>9 || Ttrabajo[0]<0){ 
032EE:  BTFSC  xDE.7
032F0:  BRA    32F8
032F2:  MOVF   xDE,W
032F4:  SUBLW  09
032F6:  BNC   32FE
032F8:  BTFSC  xDE.7
032FA:  BRA    32FE
032FC:  BRA    332E
....................       Ttrabajo[0]=0;write_eeprom(16,0); 
032FE:  CLRF   xDE
03300:  CLRF   FAA
03302:  MOVLW  10
03304:  MOVWF  FA9
03306:  CLRF   FA8
03308:  BCF    FA6.6
0330A:  BCF    FA6.7
0330C:  BSF    FA6.2
0330E:  MOVF   FF2,W
03310:  MOVWF  00
03312:  BCF    FF2.6
03314:  BCF    FF2.7
03316:  MOVLB  F
03318:  MOVLW  55
0331A:  MOVWF  FA7
0331C:  MOVLW  AA
0331E:  MOVWF  FA7
03320:  BSF    FA6.1
03322:  BTFSC  FA6.1
03324:  BRA    3322
03326:  BCF    FA6.2
03328:  MOVF   00,W
0332A:  IORWF  FF2,F
0332C:  MOVLB  0
....................    } 
....................    if(Ttrabajo[1]>9 || Ttrabajo[1]<0){ 
0332E:  BTFSC  xDF.7
03330:  BRA    3338
03332:  MOVF   xDF,W
03334:  SUBLW  09
03336:  BNC   333E
03338:  BTFSC  xDF.7
0333A:  BRA    333E
0333C:  BRA    336E
....................       Ttrabajo[1]=0;write_eeprom(17,0); 
0333E:  CLRF   xDF
03340:  CLRF   FAA
03342:  MOVLW  11
03344:  MOVWF  FA9
03346:  CLRF   FA8
03348:  BCF    FA6.6
0334A:  BCF    FA6.7
0334C:  BSF    FA6.2
0334E:  MOVF   FF2,W
03350:  MOVWF  00
03352:  BCF    FF2.6
03354:  BCF    FF2.7
03356:  MOVLB  F
03358:  MOVLW  55
0335A:  MOVWF  FA7
0335C:  MOVLW  AA
0335E:  MOVWF  FA7
03360:  BSF    FA6.1
03362:  BTFSC  FA6.1
03364:  BRA    3362
03366:  BCF    FA6.2
03368:  MOVF   00,W
0336A:  IORWF  FF2,F
0336C:  MOVLB  0
....................    } 
....................    if(Ttrabajo[2]>9 || Ttrabajo[2]<0){ 
0336E:  BTFSC  xE0.7
03370:  BRA    3378
03372:  MOVF   xE0,W
03374:  SUBLW  09
03376:  BNC   337E
03378:  BTFSC  xE0.7
0337A:  BRA    337E
0337C:  BRA    33AE
....................       Ttrabajo[2]=0;write_eeprom(18,0); 
0337E:  CLRF   xE0
03380:  CLRF   FAA
03382:  MOVLW  12
03384:  MOVWF  FA9
03386:  CLRF   FA8
03388:  BCF    FA6.6
0338A:  BCF    FA6.7
0338C:  BSF    FA6.2
0338E:  MOVF   FF2,W
03390:  MOVWF  00
03392:  BCF    FF2.6
03394:  BCF    FF2.7
03396:  MOVLB  F
03398:  MOVLW  55
0339A:  MOVWF  FA7
0339C:  MOVLW  AA
0339E:  MOVWF  FA7
033A0:  BSF    FA6.1
033A2:  BTFSC  FA6.1
033A4:  BRA    33A2
033A6:  BCF    FA6.2
033A8:  MOVF   00,W
033AA:  IORWF  FF2,F
033AC:  MOVLB  0
....................    } 
....................    if(Ttrabajo[3]>9 || Ttrabajo[3]<0){ 
033AE:  BTFSC  xE1.7
033B0:  BRA    33B8
033B2:  MOVF   xE1,W
033B4:  SUBLW  09
033B6:  BNC   33BE
033B8:  BTFSC  xE1.7
033BA:  BRA    33BE
033BC:  BRA    33EE
....................       Ttrabajo[3]=0;write_eeprom(19,0); 
033BE:  CLRF   xE1
033C0:  CLRF   FAA
033C2:  MOVLW  13
033C4:  MOVWF  FA9
033C6:  CLRF   FA8
033C8:  BCF    FA6.6
033CA:  BCF    FA6.7
033CC:  BSF    FA6.2
033CE:  MOVF   FF2,W
033D0:  MOVWF  00
033D2:  BCF    FF2.6
033D4:  BCF    FF2.7
033D6:  MOVLB  F
033D8:  MOVLW  55
033DA:  MOVWF  FA7
033DC:  MOVLW  AA
033DE:  MOVWF  FA7
033E0:  BSF    FA6.1
033E2:  BTFSC  FA6.1
033E4:  BRA    33E2
033E6:  BCF    FA6.2
033E8:  MOVF   00,W
033EA:  IORWF  FF2,F
033EC:  MOVLB  0
....................    } 
....................    /* 
....................    if(Flujo[1].Ajuste>10.0 || Flujo[1].Ajuste==0.0){ 
....................       Flujo[1].Ajuste=1.0;write_eeprom(25,1);write_eeprom(26,0); 
....................    } 
....................    if(Flujo[2].Ajuste>10.0 || Flujo[2].Ajuste==0.0){ 
....................       Flujo[2].Ajuste=1.;write_eeprom(27,1);write_eeprom(28,0); 
....................    } 
....................    */ 
....................    if(velocidadInicial>95 || velocidadInicial<20){ 
033EE:  MOVF   xB0,W
033F0:  SUBLW  5F
033F2:  BNC   33FA
033F4:  MOVF   xB0,W
033F6:  SUBLW  13
033F8:  BNC   342C
....................       velocidadInicial=50;write_eeprom(25,50); 
033FA:  MOVLW  32
033FC:  MOVWF  xB0
033FE:  CLRF   FAA
03400:  MOVLW  19
03402:  MOVWF  FA9
03404:  MOVLW  32
03406:  MOVWF  FA8
03408:  BCF    FA6.6
0340A:  BCF    FA6.7
0340C:  BSF    FA6.2
0340E:  MOVF   FF2,W
03410:  MOVWF  00
03412:  BCF    FF2.6
03414:  BCF    FF2.7
03416:  MOVLB  F
03418:  MOVLW  55
0341A:  MOVWF  FA7
0341C:  MOVLW  AA
0341E:  MOVWF  FA7
03420:  BSF    FA6.1
03422:  BTFSC  FA6.1
03424:  BRA    3422
03426:  BCF    FA6.2
03428:  MOVF   00,W
0342A:  IORWF  FF2,F
....................    } 
....................    if(Presion[3].Ajuste>3.0 || Presion[3].Ajuste==0.0){ 
0342C:  MOVLB  7
0342E:  CLRF   x9B
03430:  CLRF   x9A
03432:  MOVLW  40
03434:  MOVWF  x99
03436:  MOVLW  80
03438:  MOVWF  x98
0343A:  MOVFF  683,79F
0343E:  MOVFF  682,79E
03442:  MOVFF  681,79D
03446:  MOVFF  680,79C
0344A:  MOVLB  0
0344C:  RCALL  2F26
0344E:  BC    3470
03450:  MOVFF  683,79B
03454:  MOVFF  682,79A
03458:  MOVFF  681,799
0345C:  MOVFF  680,798
03460:  MOVLB  7
03462:  CLRF   x9F
03464:  CLRF   x9E
03466:  CLRF   x9D
03468:  CLRF   x9C
0346A:  MOVLB  0
0346C:  RCALL  2F26
0346E:  BNZ   34D4
....................       Presion[3].Ajuste=1.0;write_eeprom(31,1);write_eeprom(32,0); 
03470:  MOVLB  6
03472:  CLRF   x83
03474:  CLRF   x82
03476:  CLRF   x81
03478:  MOVLW  7F
0347A:  MOVWF  x80
0347C:  CLRF   FAA
0347E:  MOVLW  1F
03480:  MOVWF  FA9
03482:  MOVLW  01
03484:  MOVWF  FA8
03486:  BCF    FA6.6
03488:  BCF    FA6.7
0348A:  BSF    FA6.2
0348C:  MOVF   FF2,W
0348E:  MOVWF  00
03490:  BCF    FF2.6
03492:  BCF    FF2.7
03494:  MOVLB  F
03496:  MOVLW  55
03498:  MOVWF  FA7
0349A:  MOVLW  AA
0349C:  MOVWF  FA7
0349E:  BSF    FA6.1
034A0:  BTFSC  FA6.1
034A2:  BRA    34A0
034A4:  BCF    FA6.2
034A6:  MOVF   00,W
034A8:  IORWF  FF2,F
034AA:  CLRF   FAA
034AC:  MOVLW  20
034AE:  MOVWF  FA9
034B0:  CLRF   FA8
034B2:  BCF    FA6.6
034B4:  BCF    FA6.7
034B6:  BSF    FA6.2
034B8:  MOVF   FF2,W
034BA:  MOVWF  00
034BC:  BCF    FF2.6
034BE:  BCF    FF2.7
034C0:  MOVLW  55
034C2:  MOVWF  FA7
034C4:  MOVLW  AA
034C6:  MOVWF  FA7
034C8:  BSF    FA6.1
034CA:  BTFSC  FA6.1
034CC:  BRA    34CA
034CE:  BCF    FA6.2
034D0:  MOVF   00,W
034D2:  IORWF  FF2,F
....................    } 
....................    if(Presion[4].Ajuste>2.0 || Presion[4].Ajuste==0.0){ 
034D4:  MOVLB  7
034D6:  CLRF   x9B
034D8:  CLRF   x9A
034DA:  CLRF   x99
034DC:  MOVLW  80
034DE:  MOVWF  x98
034E0:  MOVFF  6F3,79F
034E4:  MOVFF  6F2,79E
034E8:  MOVFF  6F1,79D
034EC:  MOVFF  6F0,79C
034F0:  MOVLB  0
034F2:  RCALL  2F26
034F4:  BC    3516
034F6:  MOVFF  6F3,79B
034FA:  MOVFF  6F2,79A
034FE:  MOVFF  6F1,799
03502:  MOVFF  6F0,798
03506:  MOVLB  7
03508:  CLRF   x9F
0350A:  CLRF   x9E
0350C:  CLRF   x9D
0350E:  CLRF   x9C
03510:  MOVLB  0
03512:  RCALL  2F26
03514:  BNZ   357A
....................       Presion[4].Ajuste=1.0;write_eeprom(29,1);write_eeprom(30,0); 
03516:  MOVLB  6
03518:  CLRF   xF3
0351A:  CLRF   xF2
0351C:  CLRF   xF1
0351E:  MOVLW  7F
03520:  MOVWF  xF0
03522:  CLRF   FAA
03524:  MOVLW  1D
03526:  MOVWF  FA9
03528:  MOVLW  01
0352A:  MOVWF  FA8
0352C:  BCF    FA6.6
0352E:  BCF    FA6.7
03530:  BSF    FA6.2
03532:  MOVF   FF2,W
03534:  MOVWF  00
03536:  BCF    FF2.6
03538:  BCF    FF2.7
0353A:  MOVLB  F
0353C:  MOVLW  55
0353E:  MOVWF  FA7
03540:  MOVLW  AA
03542:  MOVWF  FA7
03544:  BSF    FA6.1
03546:  BTFSC  FA6.1
03548:  BRA    3546
0354A:  BCF    FA6.2
0354C:  MOVF   00,W
0354E:  IORWF  FF2,F
03550:  CLRF   FAA
03552:  MOVLW  1E
03554:  MOVWF  FA9
03556:  CLRF   FA8
03558:  BCF    FA6.6
0355A:  BCF    FA6.7
0355C:  BSF    FA6.2
0355E:  MOVF   FF2,W
03560:  MOVWF  00
03562:  BCF    FF2.6
03564:  BCF    FF2.7
03566:  MOVLW  55
03568:  MOVWF  FA7
0356A:  MOVLW  AA
0356C:  MOVWF  FA7
0356E:  BSF    FA6.1
03570:  BTFSC  FA6.1
03572:  BRA    3570
03574:  BCF    FA6.2
03576:  MOVF   00,W
03578:  IORWF  FF2,F
....................    } 
....................    if(Flujo[1].zero_actual>280 ||Flujo[1].zero_actual<180 ){ 
0357A:  MOVLB  7
0357C:  CLRF   x9B
0357E:  CLRF   x9A
03580:  MOVLW  0C
03582:  MOVWF  x99
03584:  MOVLW  87
03586:  MOVWF  x98
03588:  MOVFF  37B,79F
0358C:  MOVFF  37A,79E
03590:  MOVFF  379,79D
03594:  MOVFF  378,79C
03598:  MOVLB  0
0359A:  RCALL  2F26
0359C:  BC    35C2
0359E:  MOVFF  37B,79B
035A2:  MOVFF  37A,79A
035A6:  MOVFF  379,799
035AA:  MOVFF  378,798
035AE:  MOVLB  7
035B0:  CLRF   x9F
035B2:  CLRF   x9E
035B4:  MOVLW  34
035B6:  MOVWF  x9D
035B8:  MOVLW  86
035BA:  MOVWF  x9C
035BC:  MOVLB  0
035BE:  RCALL  2F26
035C0:  BNC   3628
....................       Flujo[1].zero_actual=203;write_eeprom(33,203);write_eeprom(34,0); 
035C2:  MOVLB  3
035C4:  CLRF   x7B
035C6:  CLRF   x7A
035C8:  MOVLW  4B
035CA:  MOVWF  x79
035CC:  MOVLW  86
035CE:  MOVWF  x78
035D0:  CLRF   FAA
035D2:  MOVLW  21
035D4:  MOVWF  FA9
035D6:  MOVLW  CB
035D8:  MOVWF  FA8
035DA:  BCF    FA6.6
035DC:  BCF    FA6.7
035DE:  BSF    FA6.2
035E0:  MOVF   FF2,W
035E2:  MOVWF  00
035E4:  BCF    FF2.6
035E6:  BCF    FF2.7
035E8:  MOVLB  F
035EA:  MOVLW  55
035EC:  MOVWF  FA7
035EE:  MOVLW  AA
035F0:  MOVWF  FA7
035F2:  BSF    FA6.1
035F4:  BTFSC  FA6.1
035F6:  BRA    35F4
035F8:  BCF    FA6.2
035FA:  MOVF   00,W
035FC:  IORWF  FF2,F
035FE:  CLRF   FAA
03600:  MOVLW  22
03602:  MOVWF  FA9
03604:  CLRF   FA8
03606:  BCF    FA6.6
03608:  BCF    FA6.7
0360A:  BSF    FA6.2
0360C:  MOVF   FF2,W
0360E:  MOVWF  00
03610:  BCF    FF2.6
03612:  BCF    FF2.7
03614:  MOVLW  55
03616:  MOVWF  FA7
03618:  MOVLW  AA
0361A:  MOVWF  FA7
0361C:  BSF    FA6.1
0361E:  BTFSC  FA6.1
03620:  BRA    361E
03622:  BCF    FA6.2
03624:  MOVF   00,W
03626:  IORWF  FF2,F
....................    } 
....................    if(Flujo[2].zero_actual>280 ||Flujo[2].zero_actual<180){ 
03628:  MOVLB  7
0362A:  CLRF   x9B
0362C:  CLRF   x9A
0362E:  MOVLW  0C
03630:  MOVWF  x99
03632:  MOVLW  87
03634:  MOVWF  x98
03636:  MOVFF  3E4,79F
0363A:  MOVFF  3E3,79E
0363E:  MOVFF  3E2,79D
03642:  MOVFF  3E1,79C
03646:  MOVLB  0
03648:  RCALL  2F26
0364A:  BC    3670
0364C:  MOVFF  3E4,79B
03650:  MOVFF  3E3,79A
03654:  MOVFF  3E2,799
03658:  MOVFF  3E1,798
0365C:  MOVLB  7
0365E:  CLRF   x9F
03660:  CLRF   x9E
03662:  MOVLW  34
03664:  MOVWF  x9D
03666:  MOVLW  86
03668:  MOVWF  x9C
0366A:  MOVLB  0
0366C:  RCALL  2F26
0366E:  BNC   36D8
....................       Flujo[2].zero_actual=203;write_eeprom(35,203);write_eeprom(36,0); 
03670:  MOVLB  3
03672:  CLRF   xE4
03674:  CLRF   xE3
03676:  MOVLW  4B
03678:  MOVWF  xE2
0367A:  MOVLW  86
0367C:  MOVWF  xE1
0367E:  CLRF   FAA
03680:  MOVLW  23
03682:  MOVWF  FA9
03684:  MOVLW  CB
03686:  MOVWF  FA8
03688:  BCF    FA6.6
0368A:  BCF    FA6.7
0368C:  BSF    FA6.2
0368E:  MOVF   FF2,W
03690:  MOVWF  00
03692:  BCF    FF2.6
03694:  BCF    FF2.7
03696:  MOVLB  F
03698:  MOVLW  55
0369A:  MOVWF  FA7
0369C:  MOVLW  AA
0369E:  MOVWF  FA7
036A0:  BSF    FA6.1
036A2:  BTFSC  FA6.1
036A4:  BRA    36A2
036A6:  BCF    FA6.2
036A8:  MOVF   00,W
036AA:  IORWF  FF2,F
036AC:  CLRF   FAA
036AE:  MOVLW  24
036B0:  MOVWF  FA9
036B2:  CLRF   FA8
036B4:  BCF    FA6.6
036B6:  BCF    FA6.7
036B8:  BSF    FA6.2
036BA:  MOVF   FF2,W
036BC:  MOVWF  00
036BE:  BCF    FF2.6
036C0:  BCF    FF2.7
036C2:  MOVLW  55
036C4:  MOVWF  FA7
036C6:  MOVLW  AA
036C8:  MOVWF  FA7
036CA:  BSF    FA6.1
036CC:  BTFSC  FA6.1
036CE:  BRA    36CC
036D0:  BCF    FA6.2
036D2:  MOVF   00,W
036D4:  IORWF  FF2,F
036D6:  MOVLB  0
....................    } 
....................    if(minutos_trabajo>3600){ 
036D8:  MOVF   xCD,W
036DA:  SUBLW  0D
036DC:  BC    3744
036DE:  XORLW  FF
036E0:  BNZ   36E8
036E2:  MOVF   xCC,W
036E4:  SUBLW  10
036E6:  BC    3744
....................       minutos_trabajo=0;write_eeprom(37,0);write_eeprom(38,0); 
036E8:  CLRF   xCD
036EA:  CLRF   xCC
036EC:  CLRF   FAA
036EE:  MOVLW  25
036F0:  MOVWF  FA9
036F2:  CLRF   FA8
036F4:  BCF    FA6.6
036F6:  BCF    FA6.7
036F8:  BSF    FA6.2
036FA:  MOVF   FF2,W
036FC:  MOVWF  00
036FE:  BCF    FF2.6
03700:  BCF    FF2.7
03702:  MOVLB  F
03704:  MOVLW  55
03706:  MOVWF  FA7
03708:  MOVLW  AA
0370A:  MOVWF  FA7
0370C:  BSF    FA6.1
0370E:  BTFSC  FA6.1
03710:  BRA    370E
03712:  BCF    FA6.2
03714:  MOVF   00,W
03716:  IORWF  FF2,F
03718:  CLRF   FAA
0371A:  MOVLW  26
0371C:  MOVWF  FA9
0371E:  CLRF   FA8
03720:  BCF    FA6.6
03722:  BCF    FA6.7
03724:  BSF    FA6.2
03726:  MOVF   FF2,W
03728:  MOVWF  00
0372A:  BCF    FF2.6
0372C:  BCF    FF2.7
0372E:  MOVLW  55
03730:  MOVWF  FA7
03732:  MOVLW  AA
03734:  MOVWF  FA7
03736:  BSF    FA6.1
03738:  BTFSC  FA6.1
0373A:  BRA    3738
0373C:  BCF    FA6.2
0373E:  MOVF   00,W
03740:  IORWF  FF2,F
03742:  MOVLB  0
....................    } 
....................    if(minutos_uv>60){ 
03744:  MOVF   xCB,F
03746:  BNZ   374E
03748:  MOVF   xCA,W
0374A:  SUBLW  3C
0374C:  BC    3780
....................       minutos_uv=0;write_eeprom(39,0); 
0374E:  CLRF   xCB
03750:  CLRF   xCA
03752:  CLRF   FAA
03754:  MOVLW  27
03756:  MOVWF  FA9
03758:  CLRF   FA8
0375A:  BCF    FA6.6
0375C:  BCF    FA6.7
0375E:  BSF    FA6.2
03760:  MOVF   FF2,W
03762:  MOVWF  00
03764:  BCF    FF2.6
03766:  BCF    FF2.7
03768:  MOVLB  F
0376A:  MOVLW  55
0376C:  MOVWF  FA7
0376E:  MOVLW  AA
03770:  MOVWF  FA7
03772:  BSF    FA6.1
03774:  BTFSC  FA6.1
03776:  BRA    3774
03778:  BCF    FA6.2
0377A:  MOVF   00,W
0377C:  IORWF  FF2,F
0377E:  MOVLB  0
....................    } 
....................    if(Vel1>100 || Vel1<20){ 
03780:  MOVF   x90,W
03782:  SUBLW  64
03784:  BNC   378C
03786:  MOVF   x90,W
03788:  SUBLW  13
0378A:  BNC   37C0
....................       Vel1=50;write_eeprom(40,50); 
0378C:  MOVLW  32
0378E:  MOVWF  x90
03790:  CLRF   FAA
03792:  MOVLW  28
03794:  MOVWF  FA9
03796:  MOVLW  32
03798:  MOVWF  FA8
0379A:  BCF    FA6.6
0379C:  BCF    FA6.7
0379E:  BSF    FA6.2
037A0:  MOVF   FF2,W
037A2:  MOVWF  00
037A4:  BCF    FF2.6
037A6:  BCF    FF2.7
037A8:  MOVLB  F
037AA:  MOVLW  55
037AC:  MOVWF  FA7
037AE:  MOVLW  AA
037B0:  MOVWF  FA7
037B2:  BSF    FA6.1
037B4:  BTFSC  FA6.1
037B6:  BRA    37B4
037B8:  BCF    FA6.2
037BA:  MOVF   00,W
037BC:  IORWF  FF2,F
037BE:  MOVLB  0
....................    }    
....................    if(Vel2>100 || Vel2<20){ 
037C0:  MOVF   x91,W
037C2:  SUBLW  64
037C4:  BNC   37CC
037C6:  MOVF   x91,W
037C8:  SUBLW  13
037CA:  BNC   37FE
....................       Vel2=50;write_eeprom(41,50); 
037CC:  MOVLW  32
037CE:  MOVWF  x91
037D0:  CLRF   FAA
037D2:  MOVLW  29
037D4:  MOVWF  FA9
037D6:  MOVLW  32
037D8:  MOVWF  FA8
037DA:  BCF    FA6.6
037DC:  BCF    FA6.7
037DE:  BSF    FA6.2
037E0:  MOVF   FF2,W
037E2:  MOVWF  00
037E4:  BCF    FF2.6
037E6:  BCF    FF2.7
037E8:  MOVLB  F
037EA:  MOVLW  55
037EC:  MOVWF  FA7
037EE:  MOVLW  AA
037F0:  MOVWF  FA7
037F2:  BSF    FA6.1
037F4:  BTFSC  FA6.1
037F6:  BRA    37F4
037F8:  BCF    FA6.2
037FA:  MOVF   00,W
037FC:  IORWF  FF2,F
....................    }    
....................     
....................    if(Flujo[1].Diferencia>50){ 
037FE:  MOVLB  7
03800:  CLRF   x9B
03802:  CLRF   x9A
03804:  MOVLW  48
03806:  MOVWF  x99
03808:  MOVLW  84
0380A:  MOVWF  x98
0380C:  MOVFF  37F,79F
03810:  MOVFF  37E,79E
03814:  MOVFF  37D,79D
03818:  MOVFF  37C,79C
0381C:  MOVLB  0
0381E:  CALL   2F26
03822:  BNC   3884
....................       Flujo[1].Diferencia=0;write_eeprom(42,0);write_eeprom(43,0); 
03824:  MOVLB  3
03826:  CLRF   x7F
03828:  CLRF   x7E
0382A:  CLRF   x7D
0382C:  CLRF   x7C
0382E:  CLRF   FAA
03830:  MOVLW  2A
03832:  MOVWF  FA9
03834:  CLRF   FA8
03836:  BCF    FA6.6
03838:  BCF    FA6.7
0383A:  BSF    FA6.2
0383C:  MOVF   FF2,W
0383E:  MOVWF  00
03840:  BCF    FF2.6
03842:  BCF    FF2.7
03844:  MOVLB  F
03846:  MOVLW  55
03848:  MOVWF  FA7
0384A:  MOVLW  AA
0384C:  MOVWF  FA7
0384E:  BSF    FA6.1
03850:  BTFSC  FA6.1
03852:  BRA    3850
03854:  BCF    FA6.2
03856:  MOVF   00,W
03858:  IORWF  FF2,F
0385A:  CLRF   FAA
0385C:  MOVLW  2B
0385E:  MOVWF  FA9
03860:  CLRF   FA8
03862:  BCF    FA6.6
03864:  BCF    FA6.7
03866:  BSF    FA6.2
03868:  MOVF   FF2,W
0386A:  MOVWF  00
0386C:  BCF    FF2.6
0386E:  BCF    FF2.7
03870:  MOVLW  55
03872:  MOVWF  FA7
03874:  MOVLW  AA
03876:  MOVWF  FA7
03878:  BSF    FA6.1
0387A:  BTFSC  FA6.1
0387C:  BRA    387A
0387E:  BCF    FA6.2
03880:  MOVF   00,W
03882:  IORWF  FF2,F
....................    } 
....................    if(Flujo[2].Diferencia>50){ 
03884:  MOVLB  7
03886:  CLRF   x9B
03888:  CLRF   x9A
0388A:  MOVLW  48
0388C:  MOVWF  x99
0388E:  MOVLW  84
03890:  MOVWF  x98
03892:  MOVFF  3E8,79F
03896:  MOVFF  3E7,79E
0389A:  MOVFF  3E6,79D
0389E:  MOVFF  3E5,79C
038A2:  MOVLB  0
038A4:  CALL   2F26
038A8:  BNC   390A
....................       Flujo[2].Diferencia=0;write_eeprom(44,0);write_eeprom(45,0); 
038AA:  MOVLB  3
038AC:  CLRF   xE8
038AE:  CLRF   xE7
038B0:  CLRF   xE6
038B2:  CLRF   xE5
038B4:  CLRF   FAA
038B6:  MOVLW  2C
038B8:  MOVWF  FA9
038BA:  CLRF   FA8
038BC:  BCF    FA6.6
038BE:  BCF    FA6.7
038C0:  BSF    FA6.2
038C2:  MOVF   FF2,W
038C4:  MOVWF  00
038C6:  BCF    FF2.6
038C8:  BCF    FF2.7
038CA:  MOVLB  F
038CC:  MOVLW  55
038CE:  MOVWF  FA7
038D0:  MOVLW  AA
038D2:  MOVWF  FA7
038D4:  BSF    FA6.1
038D6:  BTFSC  FA6.1
038D8:  BRA    38D6
038DA:  BCF    FA6.2
038DC:  MOVF   00,W
038DE:  IORWF  FF2,F
038E0:  CLRF   FAA
038E2:  MOVLW  2D
038E4:  MOVWF  FA9
038E6:  CLRF   FA8
038E8:  BCF    FA6.6
038EA:  BCF    FA6.7
038EC:  BSF    FA6.2
038EE:  MOVF   FF2,W
038F0:  MOVWF  00
038F2:  BCF    FF2.6
038F4:  BCF    FF2.7
038F6:  MOVLW  55
038F8:  MOVWF  FA7
038FA:  MOVLW  AA
038FC:  MOVWF  FA7
038FE:  BSF    FA6.1
03900:  BTFSC  FA6.1
03902:  BRA    3900
03904:  BCF    FA6.2
03906:  MOVF   00,W
03908:  IORWF  FF2,F
....................    } 
....................    if(Presion[4].G>300 || Presion[4].G<150){ 
0390A:  MOVLB  7
0390C:  CLRF   x9B
0390E:  CLRF   x9A
03910:  MOVLW  16
03912:  MOVWF  x99
03914:  MOVLW  87
03916:  MOVWF  x98
03918:  MOVFF  6E5,79F
0391C:  MOVFF  6E4,79E
03920:  MOVFF  6E3,79D
03924:  MOVFF  6E2,79C
03928:  MOVLB  0
0392A:  CALL   2F26
0392E:  BC    3956
03930:  MOVFF  6E5,79B
03934:  MOVFF  6E4,79A
03938:  MOVFF  6E3,799
0393C:  MOVFF  6E2,798
03940:  MOVLB  7
03942:  CLRF   x9F
03944:  CLRF   x9E
03946:  MOVLW  16
03948:  MOVWF  x9D
0394A:  MOVLW  86
0394C:  MOVWF  x9C
0394E:  MOVLB  0
03950:  CALL   2F26
03954:  BNC   39BC
....................       Presion[4].G=250;write_eeprom(46,250);write_eeprom(47,0); 
03956:  MOVLB  6
03958:  CLRF   xE5
0395A:  CLRF   xE4
0395C:  MOVLW  7A
0395E:  MOVWF  xE3
03960:  MOVLW  86
03962:  MOVWF  xE2
03964:  CLRF   FAA
03966:  MOVLW  2E
03968:  MOVWF  FA9
0396A:  MOVLW  FA
0396C:  MOVWF  FA8
0396E:  BCF    FA6.6
03970:  BCF    FA6.7
03972:  BSF    FA6.2
03974:  MOVF   FF2,W
03976:  MOVWF  00
03978:  BCF    FF2.6
0397A:  BCF    FF2.7
0397C:  MOVLB  F
0397E:  MOVLW  55
03980:  MOVWF  FA7
03982:  MOVLW  AA
03984:  MOVWF  FA7
03986:  BSF    FA6.1
03988:  BTFSC  FA6.1
0398A:  BRA    3988
0398C:  BCF    FA6.2
0398E:  MOVF   00,W
03990:  IORWF  FF2,F
03992:  CLRF   FAA
03994:  MOVLW  2F
03996:  MOVWF  FA9
03998:  CLRF   FA8
0399A:  BCF    FA6.6
0399C:  BCF    FA6.7
0399E:  BSF    FA6.2
039A0:  MOVF   FF2,W
039A2:  MOVWF  00
039A4:  BCF    FF2.6
039A6:  BCF    FF2.7
039A8:  MOVLW  55
039AA:  MOVWF  FA7
039AC:  MOVLW  AA
039AE:  MOVWF  FA7
039B0:  BSF    FA6.1
039B2:  BTFSC  FA6.1
039B4:  BRA    39B2
039B6:  BCF    FA6.2
039B8:  MOVF   00,W
039BA:  IORWF  FF2,F
....................    } 
....................    if(Presion[3].G>300 || Presion[3].G<150){ 
039BC:  MOVLB  7
039BE:  CLRF   x9B
039C0:  CLRF   x9A
039C2:  MOVLW  16
039C4:  MOVWF  x99
039C6:  MOVLW  87
039C8:  MOVWF  x98
039CA:  MOVFF  675,79F
039CE:  MOVFF  674,79E
039D2:  MOVFF  673,79D
039D6:  MOVFF  672,79C
039DA:  MOVLB  0
039DC:  CALL   2F26
039E0:  BC    3A08
039E2:  MOVFF  675,79B
039E6:  MOVFF  674,79A
039EA:  MOVFF  673,799
039EE:  MOVFF  672,798
039F2:  MOVLB  7
039F4:  CLRF   x9F
039F6:  CLRF   x9E
039F8:  MOVLW  16
039FA:  MOVWF  x9D
039FC:  MOVLW  86
039FE:  MOVWF  x9C
03A00:  MOVLB  0
03A02:  CALL   2F26
03A06:  BNC   3A6E
....................       Presion[3].G=250;write_eeprom(48,250);write_eeprom(49,0); 
03A08:  MOVLB  6
03A0A:  CLRF   x75
03A0C:  CLRF   x74
03A0E:  MOVLW  7A
03A10:  MOVWF  x73
03A12:  MOVLW  86
03A14:  MOVWF  x72
03A16:  CLRF   FAA
03A18:  MOVLW  30
03A1A:  MOVWF  FA9
03A1C:  MOVLW  FA
03A1E:  MOVWF  FA8
03A20:  BCF    FA6.6
03A22:  BCF    FA6.7
03A24:  BSF    FA6.2
03A26:  MOVF   FF2,W
03A28:  MOVWF  00
03A2A:  BCF    FF2.6
03A2C:  BCF    FF2.7
03A2E:  MOVLB  F
03A30:  MOVLW  55
03A32:  MOVWF  FA7
03A34:  MOVLW  AA
03A36:  MOVWF  FA7
03A38:  BSF    FA6.1
03A3A:  BTFSC  FA6.1
03A3C:  BRA    3A3A
03A3E:  BCF    FA6.2
03A40:  MOVF   00,W
03A42:  IORWF  FF2,F
03A44:  CLRF   FAA
03A46:  MOVLW  31
03A48:  MOVWF  FA9
03A4A:  CLRF   FA8
03A4C:  BCF    FA6.6
03A4E:  BCF    FA6.7
03A50:  BSF    FA6.2
03A52:  MOVF   FF2,W
03A54:  MOVWF  00
03A56:  BCF    FF2.6
03A58:  BCF    FF2.7
03A5A:  MOVLW  55
03A5C:  MOVWF  FA7
03A5E:  MOVLW  AA
03A60:  MOVWF  FA7
03A62:  BSF    FA6.1
03A64:  BTFSC  FA6.1
03A66:  BRA    3A64
03A68:  BCF    FA6.2
03A6A:  MOVF   00,W
03A6C:  IORWF  FF2,F
....................    } 
....................    if(Flujo[1].negativo>20){ 
03A6E:  MOVLB  3
03A70:  MOVF   x82,W
03A72:  SUBLW  14
03A74:  BC    3AAA
....................       Flujo[1].negativo=10;write_eeprom(50,10); 
03A76:  MOVLW  0A
03A78:  MOVWF  x82
03A7A:  CLRF   FAA
03A7C:  MOVLW  32
03A7E:  MOVWF  FA9
03A80:  MOVLW  0A
03A82:  MOVWF  FA8
03A84:  BCF    FA6.6
03A86:  BCF    FA6.7
03A88:  BSF    FA6.2
03A8A:  MOVF   FF2,W
03A8C:  MOVWF  00
03A8E:  BCF    FF2.6
03A90:  BCF    FF2.7
03A92:  MOVLB  F
03A94:  MOVLW  55
03A96:  MOVWF  FA7
03A98:  MOVLW  AA
03A9A:  MOVWF  FA7
03A9C:  BSF    FA6.1
03A9E:  BTFSC  FA6.1
03AA0:  BRA    3A9E
03AA2:  BCF    FA6.2
03AA4:  MOVF   00,W
03AA6:  IORWF  FF2,F
03AA8:  MOVLB  3
....................    } 
....................    if(Flujo[2].negativo>20){ 
03AAA:  MOVF   xEB,W
03AAC:  SUBLW  14
03AAE:  BC    3AE2
....................       Flujo[2].negativo=10;write_eeprom(51,10); 
03AB0:  MOVLW  0A
03AB2:  MOVWF  xEB
03AB4:  CLRF   FAA
03AB6:  MOVLW  33
03AB8:  MOVWF  FA9
03ABA:  MOVLW  0A
03ABC:  MOVWF  FA8
03ABE:  BCF    FA6.6
03AC0:  BCF    FA6.7
03AC2:  BSF    FA6.2
03AC4:  MOVF   FF2,W
03AC6:  MOVWF  00
03AC8:  BCF    FF2.6
03ACA:  BCF    FF2.7
03ACC:  MOVLB  F
03ACE:  MOVLW  55
03AD0:  MOVWF  FA7
03AD2:  MOVLW  AA
03AD4:  MOVWF  FA7
03AD6:  BSF    FA6.1
03AD8:  BTFSC  FA6.1
03ADA:  BRA    3AD8
03ADC:  BCF    FA6.2
03ADE:  MOVF   00,W
03AE0:  IORWF  FF2,F
....................    } 
....................    if(pInDn>0.6 || pInDn<0.1){ 
03AE2:  MOVLW  9A
03AE4:  MOVLB  7
03AE6:  MOVWF  x9B
03AE8:  MOVLW  99
03AEA:  MOVWF  x9A
03AEC:  MOVLW  19
03AEE:  MOVWF  x99
03AF0:  MOVLW  7E
03AF2:  MOVWF  x98
03AF4:  MOVFF  131,79F
03AF8:  MOVFF  130,79E
03AFC:  MOVFF  12F,79D
03B00:  MOVFF  12E,79C
03B04:  MOVLB  0
03B06:  CALL   2F26
03B0A:  BC    3B36
03B0C:  MOVFF  131,79B
03B10:  MOVFF  130,79A
03B14:  MOVFF  12F,799
03B18:  MOVFF  12E,798
03B1C:  MOVLW  CD
03B1E:  MOVLB  7
03B20:  MOVWF  x9F
03B22:  MOVLW  CC
03B24:  MOVWF  x9E
03B26:  MOVLW  4C
03B28:  MOVWF  x9D
03B2A:  MOVLW  7B
03B2C:  MOVWF  x9C
03B2E:  MOVLB  0
03B30:  CALL   2F26
03B34:  BNC   3BA0
....................       pInDn=0.3;write_eeprom(54,0);write_eeprom(55,1); 
03B36:  MOVLW  9A
03B38:  MOVLB  1
03B3A:  MOVWF  x31
03B3C:  MOVLW  99
03B3E:  MOVWF  x30
03B40:  MOVLW  19
03B42:  MOVWF  x2F
03B44:  MOVLW  7D
03B46:  MOVWF  x2E
03B48:  CLRF   FAA
03B4A:  MOVLW  36
03B4C:  MOVWF  FA9
03B4E:  CLRF   FA8
03B50:  BCF    FA6.6
03B52:  BCF    FA6.7
03B54:  BSF    FA6.2
03B56:  MOVF   FF2,W
03B58:  MOVWF  00
03B5A:  BCF    FF2.6
03B5C:  BCF    FF2.7
03B5E:  MOVLB  F
03B60:  MOVLW  55
03B62:  MOVWF  FA7
03B64:  MOVLW  AA
03B66:  MOVWF  FA7
03B68:  BSF    FA6.1
03B6A:  BTFSC  FA6.1
03B6C:  BRA    3B6A
03B6E:  BCF    FA6.2
03B70:  MOVF   00,W
03B72:  IORWF  FF2,F
03B74:  CLRF   FAA
03B76:  MOVLW  37
03B78:  MOVWF  FA9
03B7A:  MOVLW  01
03B7C:  MOVWF  FA8
03B7E:  BCF    FA6.6
03B80:  BCF    FA6.7
03B82:  BSF    FA6.2
03B84:  MOVF   FF2,W
03B86:  MOVWF  00
03B88:  BCF    FF2.6
03B8A:  BCF    FF2.7
03B8C:  MOVLW  55
03B8E:  MOVWF  FA7
03B90:  MOVLW  AA
03B92:  MOVWF  FA7
03B94:  BSF    FA6.1
03B96:  BTFSC  FA6.1
03B98:  BRA    3B96
03B9A:  BCF    FA6.2
03B9C:  MOVF   00,W
03B9E:  IORWF  FF2,F
....................    } 
....................    if(pInIn>4.0 || pInIn<0.1){ 
03BA0:  MOVLB  7
03BA2:  CLRF   x9B
03BA4:  CLRF   x9A
03BA6:  CLRF   x99
03BA8:  MOVLW  81
03BAA:  MOVWF  x98
03BAC:  MOVFF  135,79F
03BB0:  MOVFF  134,79E
03BB4:  MOVFF  133,79D
03BB8:  MOVFF  132,79C
03BBC:  MOVLB  0
03BBE:  CALL   2F26
03BC2:  BC    3BEE
03BC4:  MOVFF  135,79B
03BC8:  MOVFF  134,79A
03BCC:  MOVFF  133,799
03BD0:  MOVFF  132,798
03BD4:  MOVLW  CD
03BD6:  MOVLB  7
03BD8:  MOVWF  x9F
03BDA:  MOVLW  CC
03BDC:  MOVWF  x9E
03BDE:  MOVLW  4C
03BE0:  MOVWF  x9D
03BE2:  MOVLW  7B
03BE4:  MOVWF  x9C
03BE6:  MOVLB  0
03BE8:  CALL   2F26
03BEC:  BNC   3C52
....................       pInDn=1.0;write_eeprom(56,1);write_eeprom(57,0); 
03BEE:  MOVLB  1
03BF0:  CLRF   x31
03BF2:  CLRF   x30
03BF4:  CLRF   x2F
03BF6:  MOVLW  7F
03BF8:  MOVWF  x2E
03BFA:  CLRF   FAA
03BFC:  MOVLW  38
03BFE:  MOVWF  FA9
03C00:  MOVLW  01
03C02:  MOVWF  FA8
03C04:  BCF    FA6.6
03C06:  BCF    FA6.7
03C08:  BSF    FA6.2
03C0A:  MOVF   FF2,W
03C0C:  MOVWF  00
03C0E:  BCF    FF2.6
03C10:  BCF    FF2.7
03C12:  MOVLB  F
03C14:  MOVLW  55
03C16:  MOVWF  FA7
03C18:  MOVLW  AA
03C1A:  MOVWF  FA7
03C1C:  BSF    FA6.1
03C1E:  BTFSC  FA6.1
03C20:  BRA    3C1E
03C22:  BCF    FA6.2
03C24:  MOVF   00,W
03C26:  IORWF  FF2,F
03C28:  CLRF   FAA
03C2A:  MOVLW  39
03C2C:  MOVWF  FA9
03C2E:  CLRF   FA8
03C30:  BCF    FA6.6
03C32:  BCF    FA6.7
03C34:  BSF    FA6.2
03C36:  MOVF   FF2,W
03C38:  MOVWF  00
03C3A:  BCF    FF2.6
03C3C:  BCF    FF2.7
03C3E:  MOVLW  55
03C40:  MOVWF  FA7
03C42:  MOVLW  AA
03C44:  MOVWF  FA7
03C46:  BSF    FA6.1
03C48:  BTFSC  FA6.1
03C4A:  BRA    3C48
03C4C:  BCF    FA6.2
03C4E:  MOVF   00,W
03C50:  IORWF  FF2,F
....................    } 
....................    if(Pr>110 || Pr<60){ 
03C52:  MOVLB  7
03C54:  CLRF   x9B
03C56:  CLRF   x9A
03C58:  MOVLW  5C
03C5A:  MOVWF  x99
03C5C:  MOVLW  85
03C5E:  MOVWF  x98
03C60:  MOVFF  275,79F
03C64:  MOVFF  274,79E
03C68:  MOVFF  273,79D
03C6C:  MOVFF  272,79C
03C70:  MOVLB  0
03C72:  CALL   2F26
03C76:  BC    3C9E
03C78:  MOVFF  275,79B
03C7C:  MOVFF  274,79A
03C80:  MOVFF  273,799
03C84:  MOVFF  272,798
03C88:  MOVLB  7
03C8A:  CLRF   x9F
03C8C:  CLRF   x9E
03C8E:  MOVLW  70
03C90:  MOVWF  x9D
03C92:  MOVLW  84
03C94:  MOVWF  x9C
03C96:  MOVLB  0
03C98:  CALL   2F26
03C9C:  BNC   3CDA
....................       Pr=71;write_eeprom(58,71); 
03C9E:  MOVLB  2
03CA0:  CLRF   x75
03CA2:  CLRF   x74
03CA4:  MOVLW  0E
03CA6:  MOVWF  x73
03CA8:  MOVLW  85
03CAA:  MOVWF  x72
03CAC:  CLRF   FAA
03CAE:  MOVLW  3A
03CB0:  MOVWF  FA9
03CB2:  MOVLW  47
03CB4:  MOVWF  FA8
03CB6:  BCF    FA6.6
03CB8:  BCF    FA6.7
03CBA:  BSF    FA6.2
03CBC:  MOVF   FF2,W
03CBE:  MOVWF  00
03CC0:  BCF    FF2.6
03CC2:  BCF    FF2.7
03CC4:  MOVLB  F
03CC6:  MOVLW  55
03CC8:  MOVWF  FA7
03CCA:  MOVLW  AA
03CCC:  MOVWF  FA7
03CCE:  BSF    FA6.1
03CD0:  BTFSC  FA6.1
03CD2:  BRA    3CD0
03CD4:  BCF    FA6.2
03CD6:  MOVF   00,W
03CD8:  IORWF  FF2,F
....................    } 
....................    if(HR>100 || HR<20){ 
03CDA:  MOVLB  7
03CDC:  CLRF   x9B
03CDE:  CLRF   x9A
03CE0:  MOVLW  48
03CE2:  MOVWF  x99
03CE4:  MOVLW  85
03CE6:  MOVWF  x98
03CE8:  MOVFF  25D,79F
03CEC:  MOVFF  25C,79E
03CF0:  MOVFF  25B,79D
03CF4:  MOVFF  25A,79C
03CF8:  MOVLB  0
03CFA:  CALL   2F26
03CFE:  BC    3D26
03D00:  MOVFF  25D,79B
03D04:  MOVFF  25C,79A
03D08:  MOVFF  25B,799
03D0C:  MOVFF  25A,798
03D10:  MOVLB  7
03D12:  CLRF   x9F
03D14:  CLRF   x9E
03D16:  MOVLW  20
03D18:  MOVWF  x9D
03D1A:  MOVLW  83
03D1C:  MOVWF  x9C
03D1E:  MOVLB  0
03D20:  CALL   2F26
03D24:  BNC   3D64
....................       HR=60;write_eeprom(59,60); 
03D26:  MOVLB  2
03D28:  CLRF   x5D
03D2A:  CLRF   x5C
03D2C:  MOVLW  70
03D2E:  MOVWF  x5B
03D30:  MOVLW  84
03D32:  MOVWF  x5A
03D34:  CLRF   FAA
03D36:  MOVLW  3B
03D38:  MOVWF  FA9
03D3A:  MOVLW  3C
03D3C:  MOVWF  FA8
03D3E:  BCF    FA6.6
03D40:  BCF    FA6.7
03D42:  BSF    FA6.2
03D44:  MOVF   FF2,W
03D46:  MOVWF  00
03D48:  BCF    FF2.6
03D4A:  BCF    FF2.7
03D4C:  MOVLB  F
03D4E:  MOVLW  55
03D50:  MOVWF  FA7
03D52:  MOVLW  AA
03D54:  MOVWF  FA7
03D56:  BSF    FA6.1
03D58:  BTFSC  FA6.1
03D5A:  BRA    3D58
03D5C:  BCF    FA6.2
03D5E:  MOVF   00,W
03D60:  IORWF  FF2,F
03D62:  MOVLB  0
....................    } 
....................    if(mSilenciop>99){ 
03D64:  MOVF   xC3,W
03D66:  SUBLW  63
03D68:  BC    3D9E
....................       mSilenciop=1;write_eeprom(60,1); 
03D6A:  MOVLW  01
03D6C:  MOVWF  xC3
03D6E:  CLRF   FAA
03D70:  MOVLW  3C
03D72:  MOVWF  FA9
03D74:  MOVLW  01
03D76:  MOVWF  FA8
03D78:  BCF    FA6.6
03D7A:  BCF    FA6.7
03D7C:  BSF    FA6.2
03D7E:  MOVF   FF2,W
03D80:  MOVWF  00
03D82:  BCF    FF2.6
03D84:  BCF    FF2.7
03D86:  MOVLB  F
03D88:  MOVLW  55
03D8A:  MOVWF  FA7
03D8C:  MOVLW  AA
03D8E:  MOVWF  FA7
03D90:  BSF    FA6.1
03D92:  BTFSC  FA6.1
03D94:  BRA    3D92
03D96:  BCF    FA6.2
03D98:  MOVF   00,W
03D9A:  IORWF  FF2,F
03D9C:  MOVLB  0
....................    } 
....................    if(sSilenciop>59){ 
03D9E:  MOVF   xC2,W
03DA0:  SUBLW  3B
03DA2:  BC    3DD2
....................       sSilenciop=0;write_eeprom(61,0); 
03DA4:  CLRF   xC2
03DA6:  CLRF   FAA
03DA8:  MOVLW  3D
03DAA:  MOVWF  FA9
03DAC:  CLRF   FA8
03DAE:  BCF    FA6.6
03DB0:  BCF    FA6.7
03DB2:  BSF    FA6.2
03DB4:  MOVF   FF2,W
03DB6:  MOVWF  00
03DB8:  BCF    FF2.6
03DBA:  BCF    FF2.7
03DBC:  MOVLB  F
03DBE:  MOVLW  55
03DC0:  MOVWF  FA7
03DC2:  MOVLW  AA
03DC4:  MOVWF  FA7
03DC6:  BSF    FA6.1
03DC8:  BTFSC  FA6.1
03DCA:  BRA    3DC8
03DCC:  BCF    FA6.2
03DCE:  MOVF   00,W
03DD0:  IORWF  FF2,F
....................    } 
....................    if(Presion[4].AjustePresion>4.0 || Presion[4].AjustePresion==0.0){ 
03DD2:  MOVLB  7
03DD4:  CLRF   x9B
03DD6:  CLRF   x9A
03DD8:  CLRF   x99
03DDA:  MOVLW  81
03DDC:  MOVWF  x98
03DDE:  MOVFF  6F7,79F
03DE2:  MOVFF  6F6,79E
03DE6:  MOVFF  6F5,79D
03DEA:  MOVFF  6F4,79C
03DEE:  MOVLB  0
03DF0:  CALL   2F26
03DF4:  BC    3E18
03DF6:  MOVFF  6F7,79B
03DFA:  MOVFF  6F6,79A
03DFE:  MOVFF  6F5,799
03E02:  MOVFF  6F4,798
03E06:  MOVLB  7
03E08:  CLRF   x9F
03E0A:  CLRF   x9E
03E0C:  CLRF   x9D
03E0E:  CLRF   x9C
03E10:  MOVLB  0
03E12:  CALL   2F26
03E16:  BNZ   3E7C
....................       Presion[4].AjustePresion=1.0;write_eeprom(62,1);write_eeprom(63,0); 
03E18:  MOVLB  6
03E1A:  CLRF   xF7
03E1C:  CLRF   xF6
03E1E:  CLRF   xF5
03E20:  MOVLW  7F
03E22:  MOVWF  xF4
03E24:  CLRF   FAA
03E26:  MOVLW  3E
03E28:  MOVWF  FA9
03E2A:  MOVLW  01
03E2C:  MOVWF  FA8
03E2E:  BCF    FA6.6
03E30:  BCF    FA6.7
03E32:  BSF    FA6.2
03E34:  MOVF   FF2,W
03E36:  MOVWF  00
03E38:  BCF    FF2.6
03E3A:  BCF    FF2.7
03E3C:  MOVLB  F
03E3E:  MOVLW  55
03E40:  MOVWF  FA7
03E42:  MOVLW  AA
03E44:  MOVWF  FA7
03E46:  BSF    FA6.1
03E48:  BTFSC  FA6.1
03E4A:  BRA    3E48
03E4C:  BCF    FA6.2
03E4E:  MOVF   00,W
03E50:  IORWF  FF2,F
03E52:  CLRF   FAA
03E54:  MOVLW  3F
03E56:  MOVWF  FA9
03E58:  CLRF   FA8
03E5A:  BCF    FA6.6
03E5C:  BCF    FA6.7
03E5E:  BSF    FA6.2
03E60:  MOVF   FF2,W
03E62:  MOVWF  00
03E64:  BCF    FF2.6
03E66:  BCF    FF2.7
03E68:  MOVLW  55
03E6A:  MOVWF  FA7
03E6C:  MOVLW  AA
03E6E:  MOVWF  FA7
03E70:  BSF    FA6.1
03E72:  BTFSC  FA6.1
03E74:  BRA    3E72
03E76:  BCF    FA6.2
03E78:  MOVF   00,W
03E7A:  IORWF  FF2,F
....................    } 
....................    Pa=Pr*1000; 
03E7C:  MOVFF  275,79B
03E80:  MOVFF  274,79A
03E84:  MOVFF  273,799
03E88:  MOVFF  272,798
03E8C:  MOVLB  7
03E8E:  CLRF   x9F
03E90:  CLRF   x9E
03E92:  MOVLW  7A
03E94:  MOVWF  x9D
03E96:  MOVLW  88
03E98:  MOVWF  x9C
03E9A:  MOVLB  0
03E9C:  CALL   1A1E
03EA0:  MOVFF  03,251
03EA4:  MOVFF  02,250
03EA8:  MOVFF  01,24F
03EAC:  MOVFF  00,24E
.................... } 
03EB0:  GOTO   8EC4 (RETURN)
....................  
.................... void ApagaSalidas(){ 
....................    Alarma_off; 
*
067BC:  BCF    F8B.0
067BE:  BCF    F94.0
....................    LuzBlanca_off; 
067C0:  BSF    F8C.0
067C2:  BCF    F95.0
....................    LuzUV_off; 
067C4:  BSF    F8C.1
067C6:  BCF    F95.1
....................    Aux_off; 
067C8:  BSF    F8C.2
067CA:  BCF    F95.2
....................    Toma_off; 
067CC:  BCF    F8B.1
067CE:  BCF    F94.1
....................    Motor_off; 
067D0:  BCF    F8B.3
067D2:  BCF    F94.3
....................    Motor2_off; 
067D4:  BCF    F8B.2
067D6:  BCF    F94.2
.................... } 
067D8:  RETLW  00
....................  
.................... void dibujaBarraDn(){ 
....................    if(barraDn>=0 && barraDn<=25){ 
*
07D44:  MOVLB  7
07D46:  CLRF   x9B
07D48:  CLRF   x9A
07D4A:  CLRF   x99
07D4C:  CLRF   x98
07D4E:  MOVFF  129,79F
07D52:  MOVFF  128,79E
07D56:  MOVFF  127,79D
07D5A:  MOVFF  126,79C
07D5E:  MOVLB  0
07D60:  CALL   2F26
07D64:  BC    7D6A
07D66:  BTFSS  FD8.2
07D68:  BRA    7E6C
07D6A:  MOVFF  129,79B
07D6E:  MOVFF  128,79A
07D72:  MOVFF  127,799
07D76:  MOVFF  126,798
07D7A:  MOVLB  7
07D7C:  CLRF   x9F
07D7E:  CLRF   x9E
07D80:  MOVLW  48
07D82:  MOVWF  x9D
07D84:  MOVLW  83
07D86:  MOVWF  x9C
07D88:  MOVLB  0
07D8A:  CALL   2F26
07D8E:  BC    7D92
07D90:  BNZ   7E6C
....................          printf("j0.val=%u",(int8)((barraDn*100)/25)); 
07D92:  MOVFF  129,79B
07D96:  MOVFF  128,79A
07D9A:  MOVFF  127,799
07D9E:  MOVFF  126,798
07DA2:  MOVLB  7
07DA4:  CLRF   x9F
07DA6:  CLRF   x9E
07DA8:  MOVLW  48
07DAA:  MOVWF  x9D
07DAC:  MOVLW  85
07DAE:  MOVWF  x9C
07DB0:  MOVLB  0
07DB2:  CALL   1A1E
07DB6:  MOVFF  00,758
07DBA:  MOVFF  01,759
07DBE:  MOVFF  02,75A
07DC2:  MOVFF  03,75B
07DC6:  MOVFF  03,79B
07DCA:  MOVFF  02,79A
07DCE:  MOVFF  01,799
07DD2:  MOVFF  00,798
07DD6:  MOVLB  7
07DD8:  CLRF   x9F
07DDA:  CLRF   x9E
07DDC:  MOVLW  48
07DDE:  MOVWF  x9D
07DE0:  MOVLW  83
07DE2:  MOVWF  x9C
07DE4:  MOVLB  0
07DE6:  CALL   18C0
07DEA:  MOVFF  03,79B
07DEE:  MOVFF  02,79A
07DF2:  MOVFF  01,799
07DF6:  MOVFF  00,798
07DFA:  CALL   1B14
07DFE:  MOVFF  01,758
07E02:  MOVLW  44
07E04:  MOVWF  FF6
07E06:  MOVLW  01
07E08:  MOVWF  FF7
07E0A:  MOVLW  00
07E0C:  MOVWF  FF8
07E0E:  MOVLW  07
07E10:  MOVLB  7
07E12:  MOVWF  x5C
07E14:  MOVLB  0
07E16:  CALL   71A4
07E1A:  MOVFF  758,759
07E1E:  MOVLW  1B
07E20:  MOVLB  7
07E22:  MOVWF  x5A
07E24:  MOVLB  0
07E26:  CALL   7202
....................          SendDataDisplay(); 
07E2A:  CALL   1E60
....................          printf("j1.val=0"); 
07E2E:  MOVLW  4E
07E30:  MOVWF  FF6
07E32:  MOVLW  01
07E34:  MOVWF  FF7
07E36:  MOVLW  00
07E38:  MOVWF  FF8
07E3A:  CALL   1E2E
....................          SendDataDisplay(); 
07E3E:  CALL   1E60
....................          printf("j2.val=0"); 
07E42:  MOVLW  58
07E44:  MOVWF  FF6
07E46:  MOVLW  01
07E48:  MOVWF  FF7
07E4A:  MOVLW  00
07E4C:  MOVWF  FF8
07E4E:  CALL   1E2E
....................          SendDataDisplay(); 
07E52:  CALL   1E60
....................          printf("j3.val=0"); 
07E56:  MOVLW  62
07E58:  MOVWF  FF6
07E5A:  MOVLW  01
07E5C:  MOVWF  FF7
07E5E:  MOVLW  00
07E60:  MOVWF  FF8
07E62:  CALL   1E2E
....................          SendDataDisplay(); 
07E66:  CALL   1E60
....................       }else if(barraDn>25 && barraDn<=50){ 
07E6A:  BRA    8290
07E6C:  MOVLB  7
07E6E:  CLRF   x9B
07E70:  CLRF   x9A
07E72:  MOVLW  48
07E74:  MOVWF  x99
07E76:  MOVLW  83
07E78:  MOVWF  x98
07E7A:  MOVFF  129,79F
07E7E:  MOVFF  128,79E
07E82:  MOVFF  127,79D
07E86:  MOVFF  126,79C
07E8A:  MOVLB  0
07E8C:  CALL   2F26
07E90:  BTFSS  FD8.0
07E92:  BRA    7FCE
07E94:  MOVFF  129,79B
07E98:  MOVFF  128,79A
07E9C:  MOVFF  127,799
07EA0:  MOVFF  126,798
07EA4:  MOVLB  7
07EA6:  CLRF   x9F
07EA8:  CLRF   x9E
07EAA:  MOVLW  48
07EAC:  MOVWF  x9D
07EAE:  MOVLW  84
07EB0:  MOVWF  x9C
07EB2:  MOVLB  0
07EB4:  CALL   2F26
07EB8:  BC    7EBE
07EBA:  BTFSS  FD8.2
07EBC:  BRA    7FCE
....................          printf("j1.val=%u",(int8)(((barraDn*100)/25)-100)); 
07EBE:  MOVFF  129,79B
07EC2:  MOVFF  128,79A
07EC6:  MOVFF  127,799
07ECA:  MOVFF  126,798
07ECE:  MOVLB  7
07ED0:  CLRF   x9F
07ED2:  CLRF   x9E
07ED4:  MOVLW  48
07ED6:  MOVWF  x9D
07ED8:  MOVLW  85
07EDA:  MOVWF  x9C
07EDC:  MOVLB  0
07EDE:  CALL   1A1E
07EE2:  MOVFF  00,758
07EE6:  MOVFF  01,759
07EEA:  MOVFF  02,75A
07EEE:  MOVFF  03,75B
07EF2:  MOVFF  03,79B
07EF6:  MOVFF  02,79A
07EFA:  MOVFF  01,799
07EFE:  MOVFF  00,798
07F02:  MOVLB  7
07F04:  CLRF   x9F
07F06:  CLRF   x9E
07F08:  MOVLW  48
07F0A:  MOVWF  x9D
07F0C:  MOVLW  83
07F0E:  MOVWF  x9C
07F10:  MOVLB  0
07F12:  CALL   18C0
07F16:  MOVFF  00,758
07F1A:  MOVFF  01,759
07F1E:  MOVFF  02,75A
07F22:  MOVFF  03,75B
07F26:  BSF    FD8.1
07F28:  MOVFF  03,79F
07F2C:  MOVFF  02,79E
07F30:  MOVFF  01,79D
07F34:  MOVFF  00,79C
07F38:  MOVLB  7
07F3A:  CLRF   xA3
07F3C:  CLRF   xA2
07F3E:  MOVLW  48
07F40:  MOVWF  xA1
07F42:  MOVLW  85
07F44:  MOVWF  xA0
07F46:  MOVLB  0
07F48:  CALL   1E96
07F4C:  MOVFF  03,79B
07F50:  MOVFF  02,79A
07F54:  MOVFF  01,799
07F58:  MOVFF  00,798
07F5C:  CALL   1B14
07F60:  MOVFF  01,758
07F64:  MOVLW  6C
07F66:  MOVWF  FF6
07F68:  MOVLW  01
07F6A:  MOVWF  FF7
07F6C:  MOVLW  00
07F6E:  MOVWF  FF8
07F70:  MOVLW  07
07F72:  MOVLB  7
07F74:  MOVWF  x5C
07F76:  MOVLB  0
07F78:  CALL   71A4
07F7C:  MOVFF  758,759
07F80:  MOVLW  1B
07F82:  MOVLB  7
07F84:  MOVWF  x5A
07F86:  MOVLB  0
07F88:  CALL   7202
....................          SendDataDisplay(); 
07F8C:  CALL   1E60
....................          printf("j0.val=100"); 
07F90:  MOVLW  76
07F92:  MOVWF  FF6
07F94:  MOVLW  01
07F96:  MOVWF  FF7
07F98:  MOVLW  00
07F9A:  MOVWF  FF8
07F9C:  CALL   1E2E
....................          SendDataDisplay(); 
07FA0:  CALL   1E60
....................          printf("j2.val=0"); 
07FA4:  MOVLW  82
07FA6:  MOVWF  FF6
07FA8:  MOVLW  01
07FAA:  MOVWF  FF7
07FAC:  MOVLW  00
07FAE:  MOVWF  FF8
07FB0:  CALL   1E2E
....................          SendDataDisplay(); 
07FB4:  CALL   1E60
....................          printf("j3.val=0"); 
07FB8:  MOVLW  8C
07FBA:  MOVWF  FF6
07FBC:  MOVLW  01
07FBE:  MOVWF  FF7
07FC0:  MOVLW  00
07FC2:  MOVWF  FF8
07FC4:  CALL   1E2E
....................          SendDataDisplay(); 
07FC8:  CALL   1E60
....................       }else if(barraDn>50 && barraDn<=75){ 
07FCC:  BRA    8290
07FCE:  MOVLB  7
07FD0:  CLRF   x9B
07FD2:  CLRF   x9A
07FD4:  MOVLW  48
07FD6:  MOVWF  x99
07FD8:  MOVLW  84
07FDA:  MOVWF  x98
07FDC:  MOVFF  129,79F
07FE0:  MOVFF  128,79E
07FE4:  MOVFF  127,79D
07FE8:  MOVFF  126,79C
07FEC:  MOVLB  0
07FEE:  CALL   2F26
07FF2:  BTFSS  FD8.0
07FF4:  BRA    8130
07FF6:  MOVFF  129,79B
07FFA:  MOVFF  128,79A
07FFE:  MOVFF  127,799
08002:  MOVFF  126,798
08006:  MOVLB  7
08008:  CLRF   x9F
0800A:  CLRF   x9E
0800C:  MOVLW  16
0800E:  MOVWF  x9D
08010:  MOVLW  85
08012:  MOVWF  x9C
08014:  MOVLB  0
08016:  CALL   2F26
0801A:  BC    8020
0801C:  BTFSS  FD8.2
0801E:  BRA    8130
....................          printf("j2.val=%u",(int8)(((barraDn*100)/25)-200)); 
08020:  MOVFF  129,79B
08024:  MOVFF  128,79A
08028:  MOVFF  127,799
0802C:  MOVFF  126,798
08030:  MOVLB  7
08032:  CLRF   x9F
08034:  CLRF   x9E
08036:  MOVLW  48
08038:  MOVWF  x9D
0803A:  MOVLW  85
0803C:  MOVWF  x9C
0803E:  MOVLB  0
08040:  CALL   1A1E
08044:  MOVFF  00,758
08048:  MOVFF  01,759
0804C:  MOVFF  02,75A
08050:  MOVFF  03,75B
08054:  MOVFF  03,79B
08058:  MOVFF  02,79A
0805C:  MOVFF  01,799
08060:  MOVFF  00,798
08064:  MOVLB  7
08066:  CLRF   x9F
08068:  CLRF   x9E
0806A:  MOVLW  48
0806C:  MOVWF  x9D
0806E:  MOVLW  83
08070:  MOVWF  x9C
08072:  MOVLB  0
08074:  CALL   18C0
08078:  MOVFF  00,758
0807C:  MOVFF  01,759
08080:  MOVFF  02,75A
08084:  MOVFF  03,75B
08088:  BSF    FD8.1
0808A:  MOVFF  03,79F
0808E:  MOVFF  02,79E
08092:  MOVFF  01,79D
08096:  MOVFF  00,79C
0809A:  MOVLB  7
0809C:  CLRF   xA3
0809E:  CLRF   xA2
080A0:  MOVLW  48
080A2:  MOVWF  xA1
080A4:  MOVLW  86
080A6:  MOVWF  xA0
080A8:  MOVLB  0
080AA:  CALL   1E96
080AE:  MOVFF  03,79B
080B2:  MOVFF  02,79A
080B6:  MOVFF  01,799
080BA:  MOVFF  00,798
080BE:  CALL   1B14
080C2:  MOVFF  01,758
080C6:  MOVLW  96
080C8:  MOVWF  FF6
080CA:  MOVLW  01
080CC:  MOVWF  FF7
080CE:  MOVLW  00
080D0:  MOVWF  FF8
080D2:  MOVLW  07
080D4:  MOVLB  7
080D6:  MOVWF  x5C
080D8:  MOVLB  0
080DA:  CALL   71A4
080DE:  MOVFF  758,759
080E2:  MOVLW  1B
080E4:  MOVLB  7
080E6:  MOVWF  x5A
080E8:  MOVLB  0
080EA:  CALL   7202
....................          SendDataDisplay(); 
080EE:  CALL   1E60
....................          printf("j0.val=100"); 
080F2:  MOVLW  A0
080F4:  MOVWF  FF6
080F6:  MOVLW  01
080F8:  MOVWF  FF7
080FA:  MOVLW  00
080FC:  MOVWF  FF8
080FE:  CALL   1E2E
....................          SendDataDisplay(); 
08102:  CALL   1E60
....................          printf("j1.val=100"); 
08106:  MOVLW  AC
08108:  MOVWF  FF6
0810A:  MOVLW  01
0810C:  MOVWF  FF7
0810E:  MOVLW  00
08110:  MOVWF  FF8
08112:  CALL   1E2E
....................          SendDataDisplay(); 
08116:  CALL   1E60
....................          printf("j3.val=0"); 
0811A:  MOVLW  B8
0811C:  MOVWF  FF6
0811E:  MOVLW  01
08120:  MOVWF  FF7
08122:  MOVLW  00
08124:  MOVWF  FF8
08126:  CALL   1E2E
....................          SendDataDisplay(); 
0812A:  CALL   1E60
....................       }else if(barraDn>75 && barraDn<=100){ 
0812E:  BRA    8290
08130:  MOVLB  7
08132:  CLRF   x9B
08134:  CLRF   x9A
08136:  MOVLW  16
08138:  MOVWF  x99
0813A:  MOVLW  85
0813C:  MOVWF  x98
0813E:  MOVFF  129,79F
08142:  MOVFF  128,79E
08146:  MOVFF  127,79D
0814A:  MOVFF  126,79C
0814E:  MOVLB  0
08150:  CALL   2F26
08154:  BTFSS  FD8.0
08156:  BRA    8290
08158:  MOVFF  129,79B
0815C:  MOVFF  128,79A
08160:  MOVFF  127,799
08164:  MOVFF  126,798
08168:  MOVLB  7
0816A:  CLRF   x9F
0816C:  CLRF   x9E
0816E:  MOVLW  48
08170:  MOVWF  x9D
08172:  MOVLW  85
08174:  MOVWF  x9C
08176:  MOVLB  0
08178:  CALL   2F26
0817C:  BC    8182
0817E:  BTFSS  FD8.2
08180:  BRA    8290
....................          printf("j3.val=%u",(int8)(((barraDn*100)/25)-300)); 
08182:  MOVFF  129,79B
08186:  MOVFF  128,79A
0818A:  MOVFF  127,799
0818E:  MOVFF  126,798
08192:  MOVLB  7
08194:  CLRF   x9F
08196:  CLRF   x9E
08198:  MOVLW  48
0819A:  MOVWF  x9D
0819C:  MOVLW  85
0819E:  MOVWF  x9C
081A0:  MOVLB  0
081A2:  CALL   1A1E
081A6:  MOVFF  00,758
081AA:  MOVFF  01,759
081AE:  MOVFF  02,75A
081B2:  MOVFF  03,75B
081B6:  MOVFF  03,79B
081BA:  MOVFF  02,79A
081BE:  MOVFF  01,799
081C2:  MOVFF  00,798
081C6:  MOVLB  7
081C8:  CLRF   x9F
081CA:  CLRF   x9E
081CC:  MOVLW  48
081CE:  MOVWF  x9D
081D0:  MOVLW  83
081D2:  MOVWF  x9C
081D4:  MOVLB  0
081D6:  CALL   18C0
081DA:  MOVFF  00,758
081DE:  MOVFF  01,759
081E2:  MOVFF  02,75A
081E6:  MOVFF  03,75B
081EA:  BSF    FD8.1
081EC:  MOVFF  03,79F
081F0:  MOVFF  02,79E
081F4:  MOVFF  01,79D
081F8:  MOVFF  00,79C
081FC:  MOVLB  7
081FE:  CLRF   xA3
08200:  CLRF   xA2
08202:  MOVLW  16
08204:  MOVWF  xA1
08206:  MOVLW  87
08208:  MOVWF  xA0
0820A:  MOVLB  0
0820C:  CALL   1E96
08210:  MOVFF  03,79B
08214:  MOVFF  02,79A
08218:  MOVFF  01,799
0821C:  MOVFF  00,798
08220:  CALL   1B14
08224:  MOVFF  01,758
08228:  MOVLW  C2
0822A:  MOVWF  FF6
0822C:  MOVLW  01
0822E:  MOVWF  FF7
08230:  MOVLW  00
08232:  MOVWF  FF8
08234:  MOVLW  07
08236:  MOVLB  7
08238:  MOVWF  x5C
0823A:  MOVLB  0
0823C:  CALL   71A4
08240:  MOVFF  758,759
08244:  MOVLW  1B
08246:  MOVLB  7
08248:  MOVWF  x5A
0824A:  MOVLB  0
0824C:  CALL   7202
....................          SendDataDisplay(); 
08250:  CALL   1E60
....................          printf("j0.val=100"); 
08254:  MOVLW  CC
08256:  MOVWF  FF6
08258:  MOVLW  01
0825A:  MOVWF  FF7
0825C:  MOVLW  00
0825E:  MOVWF  FF8
08260:  CALL   1E2E
....................          SendDataDisplay(); 
08264:  CALL   1E60
....................          printf("j1.val=100"); 
08268:  MOVLW  D8
0826A:  MOVWF  FF6
0826C:  MOVLW  01
0826E:  MOVWF  FF7
08270:  MOVLW  00
08272:  MOVWF  FF8
08274:  CALL   1E2E
....................          SendDataDisplay(); 
08278:  CALL   1E60
....................          printf("j2.val=100"); 
0827C:  MOVLW  E4
0827E:  MOVWF  FF6
08280:  MOVLW  01
08282:  MOVWF  FF7
08284:  MOVLW  00
08286:  MOVWF  FF8
08288:  CALL   1E2E
....................          SendDataDisplay(); 
0828C:  CALL   1E60
....................       } 
.................... } 
08290:  GOTO   A85C (RETURN)
....................  
.................... void dibujaBarraIn(){ 
....................    if(barraIn>=0 && barraIn<=25){ 
08294:  MOVLB  7
08296:  CLRF   x9B
08298:  CLRF   x9A
0829A:  CLRF   x99
0829C:  CLRF   x98
0829E:  MOVFF  12D,79F
082A2:  MOVFF  12C,79E
082A6:  MOVFF  12B,79D
082AA:  MOVFF  12A,79C
082AE:  MOVLB  0
082B0:  CALL   2F26
082B4:  BC    82BA
082B6:  BTFSS  FD8.2
082B8:  BRA    83BC
082BA:  MOVFF  12D,79B
082BE:  MOVFF  12C,79A
082C2:  MOVFF  12B,799
082C6:  MOVFF  12A,798
082CA:  MOVLB  7
082CC:  CLRF   x9F
082CE:  CLRF   x9E
082D0:  MOVLW  48
082D2:  MOVWF  x9D
082D4:  MOVLW  83
082D6:  MOVWF  x9C
082D8:  MOVLB  0
082DA:  CALL   2F26
082DE:  BC    82E2
082E0:  BNZ   83BC
....................          printf("j4.val=%u",(int8)((barraIn*100)/25)); 
082E2:  MOVFF  12D,79B
082E6:  MOVFF  12C,79A
082EA:  MOVFF  12B,799
082EE:  MOVFF  12A,798
082F2:  MOVLB  7
082F4:  CLRF   x9F
082F6:  CLRF   x9E
082F8:  MOVLW  48
082FA:  MOVWF  x9D
082FC:  MOVLW  85
082FE:  MOVWF  x9C
08300:  MOVLB  0
08302:  CALL   1A1E
08306:  MOVFF  00,758
0830A:  MOVFF  01,759
0830E:  MOVFF  02,75A
08312:  MOVFF  03,75B
08316:  MOVFF  03,79B
0831A:  MOVFF  02,79A
0831E:  MOVFF  01,799
08322:  MOVFF  00,798
08326:  MOVLB  7
08328:  CLRF   x9F
0832A:  CLRF   x9E
0832C:  MOVLW  48
0832E:  MOVWF  x9D
08330:  MOVLW  83
08332:  MOVWF  x9C
08334:  MOVLB  0
08336:  CALL   18C0
0833A:  MOVFF  03,79B
0833E:  MOVFF  02,79A
08342:  MOVFF  01,799
08346:  MOVFF  00,798
0834A:  CALL   1B14
0834E:  MOVFF  01,758
08352:  MOVLW  F0
08354:  MOVWF  FF6
08356:  MOVLW  01
08358:  MOVWF  FF7
0835A:  MOVLW  00
0835C:  MOVWF  FF8
0835E:  MOVLW  07
08360:  MOVLB  7
08362:  MOVWF  x5C
08364:  MOVLB  0
08366:  CALL   71A4
0836A:  MOVFF  758,759
0836E:  MOVLW  1B
08370:  MOVLB  7
08372:  MOVWF  x5A
08374:  MOVLB  0
08376:  CALL   7202
....................          SendDataDisplay(); 
0837A:  CALL   1E60
....................          printf("j5.val=0"); 
0837E:  MOVLW  FA
08380:  MOVWF  FF6
08382:  MOVLW  01
08384:  MOVWF  FF7
08386:  MOVLW  00
08388:  MOVWF  FF8
0838A:  CALL   1E2E
....................          SendDataDisplay(); 
0838E:  CALL   1E60
....................          printf("j6.val=0"); 
08392:  MOVLW  04
08394:  MOVWF  FF6
08396:  MOVLW  02
08398:  MOVWF  FF7
0839A:  MOVLW  00
0839C:  MOVWF  FF8
0839E:  CALL   1E2E
....................          SendDataDisplay(); 
083A2:  CALL   1E60
....................          printf("j7.val=0"); 
083A6:  MOVLW  0E
083A8:  MOVWF  FF6
083AA:  MOVLW  02
083AC:  MOVWF  FF7
083AE:  MOVLW  00
083B0:  MOVWF  FF8
083B2:  CALL   1E2E
....................          SendDataDisplay(); 
083B6:  CALL   1E60
....................       }else if(barraIn>25 && barraIn<=50){ 
083BA:  BRA    87E0
083BC:  MOVLB  7
083BE:  CLRF   x9B
083C0:  CLRF   x9A
083C2:  MOVLW  48
083C4:  MOVWF  x99
083C6:  MOVLW  83
083C8:  MOVWF  x98
083CA:  MOVFF  12D,79F
083CE:  MOVFF  12C,79E
083D2:  MOVFF  12B,79D
083D6:  MOVFF  12A,79C
083DA:  MOVLB  0
083DC:  CALL   2F26
083E0:  BTFSS  FD8.0
083E2:  BRA    851E
083E4:  MOVFF  12D,79B
083E8:  MOVFF  12C,79A
083EC:  MOVFF  12B,799
083F0:  MOVFF  12A,798
083F4:  MOVLB  7
083F6:  CLRF   x9F
083F8:  CLRF   x9E
083FA:  MOVLW  48
083FC:  MOVWF  x9D
083FE:  MOVLW  84
08400:  MOVWF  x9C
08402:  MOVLB  0
08404:  CALL   2F26
08408:  BC    840E
0840A:  BTFSS  FD8.2
0840C:  BRA    851E
....................          printf("j5.val=%u",(int8)(((barraIn*100)/25)-100)); 
0840E:  MOVFF  12D,79B
08412:  MOVFF  12C,79A
08416:  MOVFF  12B,799
0841A:  MOVFF  12A,798
0841E:  MOVLB  7
08420:  CLRF   x9F
08422:  CLRF   x9E
08424:  MOVLW  48
08426:  MOVWF  x9D
08428:  MOVLW  85
0842A:  MOVWF  x9C
0842C:  MOVLB  0
0842E:  CALL   1A1E
08432:  MOVFF  00,758
08436:  MOVFF  01,759
0843A:  MOVFF  02,75A
0843E:  MOVFF  03,75B
08442:  MOVFF  03,79B
08446:  MOVFF  02,79A
0844A:  MOVFF  01,799
0844E:  MOVFF  00,798
08452:  MOVLB  7
08454:  CLRF   x9F
08456:  CLRF   x9E
08458:  MOVLW  48
0845A:  MOVWF  x9D
0845C:  MOVLW  83
0845E:  MOVWF  x9C
08460:  MOVLB  0
08462:  CALL   18C0
08466:  MOVFF  00,758
0846A:  MOVFF  01,759
0846E:  MOVFF  02,75A
08472:  MOVFF  03,75B
08476:  BSF    FD8.1
08478:  MOVFF  03,79F
0847C:  MOVFF  02,79E
08480:  MOVFF  01,79D
08484:  MOVFF  00,79C
08488:  MOVLB  7
0848A:  CLRF   xA3
0848C:  CLRF   xA2
0848E:  MOVLW  48
08490:  MOVWF  xA1
08492:  MOVLW  85
08494:  MOVWF  xA0
08496:  MOVLB  0
08498:  CALL   1E96
0849C:  MOVFF  03,79B
084A0:  MOVFF  02,79A
084A4:  MOVFF  01,799
084A8:  MOVFF  00,798
084AC:  CALL   1B14
084B0:  MOVFF  01,758
084B4:  MOVLW  18
084B6:  MOVWF  FF6
084B8:  MOVLW  02
084BA:  MOVWF  FF7
084BC:  MOVLW  00
084BE:  MOVWF  FF8
084C0:  MOVLW  07
084C2:  MOVLB  7
084C4:  MOVWF  x5C
084C6:  MOVLB  0
084C8:  CALL   71A4
084CC:  MOVFF  758,759
084D0:  MOVLW  1B
084D2:  MOVLB  7
084D4:  MOVWF  x5A
084D6:  MOVLB  0
084D8:  CALL   7202
....................          SendDataDisplay(); 
084DC:  CALL   1E60
....................          printf("j4.val=100"); 
084E0:  MOVLW  22
084E2:  MOVWF  FF6
084E4:  MOVLW  02
084E6:  MOVWF  FF7
084E8:  MOVLW  00
084EA:  MOVWF  FF8
084EC:  CALL   1E2E
....................          SendDataDisplay(); 
084F0:  CALL   1E60
....................          printf("j6.val=0"); 
084F4:  MOVLW  2E
084F6:  MOVWF  FF6
084F8:  MOVLW  02
084FA:  MOVWF  FF7
084FC:  MOVLW  00
084FE:  MOVWF  FF8
08500:  CALL   1E2E
....................          SendDataDisplay(); 
08504:  CALL   1E60
....................          printf("j7.val=0"); 
08508:  MOVLW  38
0850A:  MOVWF  FF6
0850C:  MOVLW  02
0850E:  MOVWF  FF7
08510:  MOVLW  00
08512:  MOVWF  FF8
08514:  CALL   1E2E
....................          SendDataDisplay(); 
08518:  CALL   1E60
....................       }else if(barraIn>50 && barraIn<=75){ 
0851C:  BRA    87E0
0851E:  MOVLB  7
08520:  CLRF   x9B
08522:  CLRF   x9A
08524:  MOVLW  48
08526:  MOVWF  x99
08528:  MOVLW  84
0852A:  MOVWF  x98
0852C:  MOVFF  12D,79F
08530:  MOVFF  12C,79E
08534:  MOVFF  12B,79D
08538:  MOVFF  12A,79C
0853C:  MOVLB  0
0853E:  CALL   2F26
08542:  BTFSS  FD8.0
08544:  BRA    8680
08546:  MOVFF  12D,79B
0854A:  MOVFF  12C,79A
0854E:  MOVFF  12B,799
08552:  MOVFF  12A,798
08556:  MOVLB  7
08558:  CLRF   x9F
0855A:  CLRF   x9E
0855C:  MOVLW  16
0855E:  MOVWF  x9D
08560:  MOVLW  85
08562:  MOVWF  x9C
08564:  MOVLB  0
08566:  CALL   2F26
0856A:  BC    8570
0856C:  BTFSS  FD8.2
0856E:  BRA    8680
....................          printf("j6.val=%u",(int8)(((barraIn*100)/25)-200)); 
08570:  MOVFF  12D,79B
08574:  MOVFF  12C,79A
08578:  MOVFF  12B,799
0857C:  MOVFF  12A,798
08580:  MOVLB  7
08582:  CLRF   x9F
08584:  CLRF   x9E
08586:  MOVLW  48
08588:  MOVWF  x9D
0858A:  MOVLW  85
0858C:  MOVWF  x9C
0858E:  MOVLB  0
08590:  CALL   1A1E
08594:  MOVFF  00,758
08598:  MOVFF  01,759
0859C:  MOVFF  02,75A
085A0:  MOVFF  03,75B
085A4:  MOVFF  03,79B
085A8:  MOVFF  02,79A
085AC:  MOVFF  01,799
085B0:  MOVFF  00,798
085B4:  MOVLB  7
085B6:  CLRF   x9F
085B8:  CLRF   x9E
085BA:  MOVLW  48
085BC:  MOVWF  x9D
085BE:  MOVLW  83
085C0:  MOVWF  x9C
085C2:  MOVLB  0
085C4:  CALL   18C0
085C8:  MOVFF  00,758
085CC:  MOVFF  01,759
085D0:  MOVFF  02,75A
085D4:  MOVFF  03,75B
085D8:  BSF    FD8.1
085DA:  MOVFF  03,79F
085DE:  MOVFF  02,79E
085E2:  MOVFF  01,79D
085E6:  MOVFF  00,79C
085EA:  MOVLB  7
085EC:  CLRF   xA3
085EE:  CLRF   xA2
085F0:  MOVLW  48
085F2:  MOVWF  xA1
085F4:  MOVLW  86
085F6:  MOVWF  xA0
085F8:  MOVLB  0
085FA:  CALL   1E96
085FE:  MOVFF  03,79B
08602:  MOVFF  02,79A
08606:  MOVFF  01,799
0860A:  MOVFF  00,798
0860E:  CALL   1B14
08612:  MOVFF  01,758
08616:  MOVLW  42
08618:  MOVWF  FF6
0861A:  MOVLW  02
0861C:  MOVWF  FF7
0861E:  MOVLW  00
08620:  MOVWF  FF8
08622:  MOVLW  07
08624:  MOVLB  7
08626:  MOVWF  x5C
08628:  MOVLB  0
0862A:  CALL   71A4
0862E:  MOVFF  758,759
08632:  MOVLW  1B
08634:  MOVLB  7
08636:  MOVWF  x5A
08638:  MOVLB  0
0863A:  CALL   7202
....................          SendDataDisplay(); 
0863E:  CALL   1E60
....................          printf("j4.val=100"); 
08642:  MOVLW  4C
08644:  MOVWF  FF6
08646:  MOVLW  02
08648:  MOVWF  FF7
0864A:  MOVLW  00
0864C:  MOVWF  FF8
0864E:  CALL   1E2E
....................          SendDataDisplay(); 
08652:  CALL   1E60
....................          printf("j5.val=100"); 
08656:  MOVLW  58
08658:  MOVWF  FF6
0865A:  MOVLW  02
0865C:  MOVWF  FF7
0865E:  MOVLW  00
08660:  MOVWF  FF8
08662:  CALL   1E2E
....................          SendDataDisplay(); 
08666:  CALL   1E60
....................          printf("j7.val=0"); 
0866A:  MOVLW  64
0866C:  MOVWF  FF6
0866E:  MOVLW  02
08670:  MOVWF  FF7
08672:  MOVLW  00
08674:  MOVWF  FF8
08676:  CALL   1E2E
....................          SendDataDisplay(); 
0867A:  CALL   1E60
....................       }else if(barraIn>75 && barraIn<=100){ 
0867E:  BRA    87E0
08680:  MOVLB  7
08682:  CLRF   x9B
08684:  CLRF   x9A
08686:  MOVLW  16
08688:  MOVWF  x99
0868A:  MOVLW  85
0868C:  MOVWF  x98
0868E:  MOVFF  12D,79F
08692:  MOVFF  12C,79E
08696:  MOVFF  12B,79D
0869A:  MOVFF  12A,79C
0869E:  MOVLB  0
086A0:  CALL   2F26
086A4:  BTFSS  FD8.0
086A6:  BRA    87E0
086A8:  MOVFF  12D,79B
086AC:  MOVFF  12C,79A
086B0:  MOVFF  12B,799
086B4:  MOVFF  12A,798
086B8:  MOVLB  7
086BA:  CLRF   x9F
086BC:  CLRF   x9E
086BE:  MOVLW  48
086C0:  MOVWF  x9D
086C2:  MOVLW  85
086C4:  MOVWF  x9C
086C6:  MOVLB  0
086C8:  CALL   2F26
086CC:  BC    86D2
086CE:  BTFSS  FD8.2
086D0:  BRA    87E0
....................          printf("j7.val=%u",(int8)(((barraIn*100)/25)-300)); 
086D2:  MOVFF  12D,79B
086D6:  MOVFF  12C,79A
086DA:  MOVFF  12B,799
086DE:  MOVFF  12A,798
086E2:  MOVLB  7
086E4:  CLRF   x9F
086E6:  CLRF   x9E
086E8:  MOVLW  48
086EA:  MOVWF  x9D
086EC:  MOVLW  85
086EE:  MOVWF  x9C
086F0:  MOVLB  0
086F2:  CALL   1A1E
086F6:  MOVFF  00,758
086FA:  MOVFF  01,759
086FE:  MOVFF  02,75A
08702:  MOVFF  03,75B
08706:  MOVFF  03,79B
0870A:  MOVFF  02,79A
0870E:  MOVFF  01,799
08712:  MOVFF  00,798
08716:  MOVLB  7
08718:  CLRF   x9F
0871A:  CLRF   x9E
0871C:  MOVLW  48
0871E:  MOVWF  x9D
08720:  MOVLW  83
08722:  MOVWF  x9C
08724:  MOVLB  0
08726:  CALL   18C0
0872A:  MOVFF  00,758
0872E:  MOVFF  01,759
08732:  MOVFF  02,75A
08736:  MOVFF  03,75B
0873A:  BSF    FD8.1
0873C:  MOVFF  03,79F
08740:  MOVFF  02,79E
08744:  MOVFF  01,79D
08748:  MOVFF  00,79C
0874C:  MOVLB  7
0874E:  CLRF   xA3
08750:  CLRF   xA2
08752:  MOVLW  16
08754:  MOVWF  xA1
08756:  MOVLW  87
08758:  MOVWF  xA0
0875A:  MOVLB  0
0875C:  CALL   1E96
08760:  MOVFF  03,79B
08764:  MOVFF  02,79A
08768:  MOVFF  01,799
0876C:  MOVFF  00,798
08770:  CALL   1B14
08774:  MOVFF  01,758
08778:  MOVLW  6E
0877A:  MOVWF  FF6
0877C:  MOVLW  02
0877E:  MOVWF  FF7
08780:  MOVLW  00
08782:  MOVWF  FF8
08784:  MOVLW  07
08786:  MOVLB  7
08788:  MOVWF  x5C
0878A:  MOVLB  0
0878C:  CALL   71A4
08790:  MOVFF  758,759
08794:  MOVLW  1B
08796:  MOVLB  7
08798:  MOVWF  x5A
0879A:  MOVLB  0
0879C:  CALL   7202
....................          SendDataDisplay(); 
087A0:  CALL   1E60
....................          printf("j4.val=100"); 
087A4:  MOVLW  78
087A6:  MOVWF  FF6
087A8:  MOVLW  02
087AA:  MOVWF  FF7
087AC:  MOVLW  00
087AE:  MOVWF  FF8
087B0:  CALL   1E2E
....................          SendDataDisplay(); 
087B4:  CALL   1E60
....................          printf("j5.val=100"); 
087B8:  MOVLW  84
087BA:  MOVWF  FF6
087BC:  MOVLW  02
087BE:  MOVWF  FF7
087C0:  MOVLW  00
087C2:  MOVWF  FF8
087C4:  CALL   1E2E
....................          SendDataDisplay(); 
087C8:  CALL   1E60
....................          printf("j6.val=100"); 
087CC:  MOVLW  90
087CE:  MOVWF  FF6
087D0:  MOVLW  02
087D2:  MOVWF  FF7
087D4:  MOVLW  00
087D6:  MOVWF  FF8
087D8:  CALL   1E2E
....................          SendDataDisplay(); 
087DC:  CALL   1E60
....................       } 
.................... }   
087E0:  GOTO   A9A4 (RETURN)
....................  
.................... void cambiaColor(int16 col){ //64512 Naranja, Rojo 59620 
....................    printf("fecha.bco=%Lu",col); 
....................    SendDataDisplay();  
....................    printf("estado.bco=%Lu",col); 
....................    SendDataDisplay();  
....................    printf("fex.bco=%Lu",col); 
....................    SendDataDisplay();  
....................    printf("fdown.bco=%Lu",col); 
....................    SendDataDisplay();  
....................    printf("tventana.bco=%Lu",col); 
....................    SendDataDisplay();  
....................    printf("tfiltro.bco=%Lu",col); 
....................    SendDataDisplay();  
....................    printf("tf2.bco=%Lu",col); 
....................    SendDataDisplay();  
.................... } 
....................  
.................... void calculaDensidad(){ 
....................    Temp=Temperatura-4; 
*
067DA:  MOVLW  04
067DC:  MOVLB  2
067DE:  SUBWF  x83,W
067E0:  MOVLB  7
067E2:  CLRF   x9D
067E4:  MOVWF  x9C
067E6:  MOVLB  0
067E8:  CALL   188A
067EC:  MOVFF  03,255
067F0:  MOVFF  02,254
067F4:  MOVFF  01,253
067F8:  MOVFF  00,252
....................    TempK=Temp+273.15; 
067FC:  BCF    FD8.1
067FE:  MOVFF  255,79F
06802:  MOVFF  254,79E
06806:  MOVFF  253,79D
0680A:  MOVFF  252,79C
0680E:  MOVLW  33
06810:  MOVLB  7
06812:  MOVWF  xA3
06814:  MOVLW  93
06816:  MOVWF  xA2
06818:  MOVLW  08
0681A:  MOVWF  xA1
0681C:  MOVLW  87
0681E:  MOVWF  xA0
06820:  MOVLB  0
06822:  CALL   1E96
06826:  MOVFF  03,259
0682A:  MOVFF  02,258
0682E:  MOVFF  01,257
06832:  MOVFF  00,256
....................    Pa=Pr*1000; 
06836:  MOVFF  275,79B
0683A:  MOVFF  274,79A
0683E:  MOVFF  273,799
06842:  MOVFF  272,798
06846:  MOVLB  7
06848:  CLRF   x9F
0684A:  CLRF   x9E
0684C:  MOVLW  7A
0684E:  MOVWF  x9D
06850:  MOVLW  88
06852:  MOVWF  x9C
06854:  MOVLB  0
06856:  CALL   1A1E
0685A:  MOVFF  03,251
0685E:  MOVFF  02,250
06862:  MOVFF  01,24F
06866:  MOVFF  00,24E
....................     
....................    Psv=exp((0.000012378847*pow(TempK,2))+(-0.019121316*TempK)+33.93711047+(-6343.1645/TempK)); 
0686A:  MOVFF  259,76F
0686E:  MOVFF  258,76E
06872:  MOVFF  257,76D
06876:  MOVFF  256,76C
0687A:  MOVLB  7
0687C:  CLRF   x73
0687E:  CLRF   x72
06880:  CLRF   x71
06882:  MOVLW  80
06884:  MOVWF  x70
06886:  MOVLB  0
06888:  CALL   4F82
0688C:  MOVLW  BE
0688E:  MOVLB  7
06890:  MOVWF  x9B
06892:  MOVLW  AE
06894:  MOVWF  x9A
06896:  MOVLW  4F
06898:  MOVWF  x99
0689A:  MOVLW  6E
0689C:  MOVWF  x98
0689E:  MOVFF  03,79F
068A2:  MOVFF  02,79E
068A6:  MOVFF  01,79D
068AA:  MOVFF  00,79C
068AE:  MOVLB  0
068B0:  CALL   1A1E
068B4:  MOVFF  00,758
068B8:  MOVFF  01,759
068BC:  MOVFF  02,75A
068C0:  MOVFF  03,75B
068C4:  MOVLW  4E
068C6:  MOVLB  7
068C8:  MOVWF  x9B
068CA:  MOVLW  A4
068CC:  MOVWF  x9A
068CE:  MOVLW  9C
068D0:  MOVWF  x99
068D2:  MOVLW  79
068D4:  MOVWF  x98
068D6:  MOVFF  259,79F
068DA:  MOVFF  258,79E
068DE:  MOVFF  257,79D
068E2:  MOVFF  256,79C
068E6:  MOVLB  0
068E8:  CALL   1A1E
068EC:  MOVFF  FEA,75D
068F0:  MOVFF  FE9,75C
068F4:  BCF    FD8.1
068F6:  MOVFF  75B,79F
068FA:  MOVFF  75A,79E
068FE:  MOVFF  759,79D
06902:  MOVFF  758,79C
06906:  MOVFF  03,7A3
0690A:  MOVFF  02,7A2
0690E:  MOVFF  01,7A1
06912:  MOVFF  00,7A0
06916:  CALL   1E96
0691A:  MOVFF  75D,FEA
0691E:  MOVFF  75C,FE9
06922:  MOVFF  00,758
06926:  MOVFF  01,759
0692A:  MOVFF  02,75A
0692E:  MOVFF  03,75B
06932:  MOVFF  FEA,75F
06936:  MOVFF  FE9,75E
0693A:  BCF    FD8.1
0693C:  MOVFF  03,79F
06940:  MOVFF  02,79E
06944:  MOVFF  01,79D
06948:  MOVFF  00,79C
0694C:  MOVLW  9A
0694E:  MOVLB  7
06950:  MOVWF  xA3
06952:  MOVLW  BF
06954:  MOVWF  xA2
06956:  MOVLW  07
06958:  MOVWF  xA1
0695A:  MOVLW  84
0695C:  MOVWF  xA0
0695E:  MOVLB  0
06960:  CALL   1E96
06964:  MOVFF  75F,FEA
06968:  MOVFF  75E,FE9
0696C:  MOVFF  00,758
06970:  MOVFF  01,759
06974:  MOVFF  02,75A
06978:  MOVFF  03,75B
0697C:  MOVLW  51
0697E:  MOVLB  7
06980:  MOVWF  x9B
06982:  MOVLW  39
06984:  MOVWF  x9A
06986:  MOVLW  C6
06988:  MOVWF  x99
0698A:  MOVLW  8B
0698C:  MOVWF  x98
0698E:  MOVFF  259,79F
06992:  MOVFF  258,79E
06996:  MOVFF  257,79D
0699A:  MOVFF  256,79C
0699E:  MOVLB  0
069A0:  CALL   18C0
069A4:  MOVFF  FEA,761
069A8:  MOVFF  FE9,760
069AC:  BCF    FD8.1
069AE:  MOVFF  75B,79F
069B2:  MOVFF  75A,79E
069B6:  MOVFF  759,79D
069BA:  MOVFF  758,79C
069BE:  MOVFF  03,7A3
069C2:  MOVFF  02,7A2
069C6:  MOVFF  01,7A1
069CA:  MOVFF  00,7A0
069CE:  CALL   1E96
069D2:  MOVFF  761,FEA
069D6:  MOVFF  760,FE9
069DA:  MOVFF  00,758
069DE:  MOVFF  01,759
069E2:  MOVFF  02,75A
069E6:  MOVFF  03,75B
069EA:  MOVFF  03,77B
069EE:  MOVFF  02,77A
069F2:  MOVFF  01,779
069F6:  MOVFF  00,778
069FA:  CALL   4B78
069FE:  MOVFF  03,261
06A02:  MOVFF  02,260
06A06:  MOVFF  01,25F
06A0A:  MOVFF  00,25E
....................    f=1.00062+(0.0000000314*Pa)+(0.00000056*Temp); 
06A0E:  MOVLW  AA
06A10:  MOVLB  7
06A12:  MOVWF  x9B
06A14:  MOVLW  DC
06A16:  MOVWF  x9A
06A18:  MOVLW  06
06A1A:  MOVWF  x99
06A1C:  MOVLW  66
06A1E:  MOVWF  x98
06A20:  MOVFF  251,79F
06A24:  MOVFF  250,79E
06A28:  MOVFF  24F,79D
06A2C:  MOVFF  24E,79C
06A30:  MOVLB  0
06A32:  CALL   1A1E
06A36:  BCF    FD8.1
06A38:  MOVLW  51
06A3A:  MOVLB  7
06A3C:  MOVWF  x9F
06A3E:  MOVLW  14
06A40:  MOVWF  x9E
06A42:  CLRF   x9D
06A44:  MOVLW  7F
06A46:  MOVWF  x9C
06A48:  MOVFF  03,7A3
06A4C:  MOVFF  02,7A2
06A50:  MOVFF  01,7A1
06A54:  MOVFF  00,7A0
06A58:  MOVLB  0
06A5A:  CALL   1E96
06A5E:  MOVFF  00,758
06A62:  MOVFF  01,759
06A66:  MOVFF  02,75A
06A6A:  MOVFF  03,75B
06A6E:  MOVLW  E8
06A70:  MOVLB  7
06A72:  MOVWF  x9B
06A74:  MOVLW  52
06A76:  MOVWF  x9A
06A78:  MOVLW  16
06A7A:  MOVWF  x99
06A7C:  MOVLW  6A
06A7E:  MOVWF  x98
06A80:  MOVFF  255,79F
06A84:  MOVFF  254,79E
06A88:  MOVFF  253,79D
06A8C:  MOVFF  252,79C
06A90:  MOVLB  0
06A92:  CALL   1A1E
06A96:  BCF    FD8.1
06A98:  MOVFF  75B,79F
06A9C:  MOVFF  75A,79E
06AA0:  MOVFF  759,79D
06AA4:  MOVFF  758,79C
06AA8:  MOVFF  03,7A3
06AAC:  MOVFF  02,7A2
06AB0:  MOVFF  01,7A1
06AB4:  MOVFF  00,7A0
06AB8:  CALL   1E96
06ABC:  MOVFF  03,265
06AC0:  MOVFF  02,264
06AC4:  MOVFF  01,263
06AC8:  MOVFF  00,262
....................    Xv=(HR/100)*f*(Psv/Pa); 
06ACC:  MOVFF  25D,79B
06AD0:  MOVFF  25C,79A
06AD4:  MOVFF  25B,799
06AD8:  MOVFF  25A,798
06ADC:  MOVLB  7
06ADE:  CLRF   x9F
06AE0:  CLRF   x9E
06AE2:  MOVLW  48
06AE4:  MOVWF  x9D
06AE6:  MOVLW  85
06AE8:  MOVWF  x9C
06AEA:  MOVLB  0
06AEC:  CALL   18C0
06AF0:  MOVFF  00,758
06AF4:  MOVFF  01,759
06AF8:  MOVFF  02,75A
06AFC:  MOVFF  03,75B
06B00:  MOVFF  03,79B
06B04:  MOVFF  02,79A
06B08:  MOVFF  01,799
06B0C:  MOVFF  00,798
06B10:  MOVFF  265,79F
06B14:  MOVFF  264,79E
06B18:  MOVFF  263,79D
06B1C:  MOVFF  262,79C
06B20:  CALL   1A1E
06B24:  MOVFF  00,758
06B28:  MOVFF  01,759
06B2C:  MOVFF  02,75A
06B30:  MOVFF  03,75B
06B34:  MOVFF  261,79B
06B38:  MOVFF  260,79A
06B3C:  MOVFF  25F,799
06B40:  MOVFF  25E,798
06B44:  MOVFF  251,79F
06B48:  MOVFF  250,79E
06B4C:  MOVFF  24F,79D
06B50:  MOVFF  24E,79C
06B54:  CALL   18C0
06B58:  MOVFF  75B,79B
06B5C:  MOVFF  75A,79A
06B60:  MOVFF  759,799
06B64:  MOVFF  758,798
06B68:  MOVFF  03,79F
06B6C:  MOVFF  02,79E
06B70:  MOVFF  01,79D
06B74:  MOVFF  00,79C
06B78:  CALL   1A1E
06B7C:  MOVFF  03,269
06B80:  MOVFF  02,268
06B84:  MOVFF  01,267
06B88:  MOVFF  00,266
....................    Z1=1-((Pa/TempK)*(0.00000158123+(-0.000000029331*Temp)+(0.00000000011043*pow(Temp,2))+((0.000005707+(-0.00000002051*Temp))*Xv)+((0.0001989+(-0.000002376*Temp)))*pow(Xv,2)))+((pow(Pa,2)/pow(TempK,2))*(0.0000000000183+(-0.00000000765*pow(Xv,2)))); 
06B8C:  MOVFF  251,79B
06B90:  MOVFF  250,79A
06B94:  MOVFF  24F,799
06B98:  MOVFF  24E,798
06B9C:  MOVFF  259,79F
06BA0:  MOVFF  258,79E
06BA4:  MOVFF  257,79D
06BA8:  MOVFF  256,79C
06BAC:  CALL   18C0
06BB0:  MOVFF  00,758
06BB4:  MOVFF  01,759
06BB8:  MOVFF  02,75A
06BBC:  MOVFF  03,75B
06BC0:  MOVLW  8D
06BC2:  MOVLB  7
06BC4:  MOVWF  x9B
06BC6:  MOVLW  F3
06BC8:  MOVWF  x9A
06BCA:  MOVLW  FB
06BCC:  MOVWF  x99
06BCE:  MOVLW  65
06BD0:  MOVWF  x98
06BD2:  MOVFF  255,79F
06BD6:  MOVFF  254,79E
06BDA:  MOVFF  253,79D
06BDE:  MOVFF  252,79C
06BE2:  MOVLB  0
06BE4:  CALL   1A1E
06BE8:  BCF    FD8.1
06BEA:  MOVLW  A6
06BEC:  MOVLB  7
06BEE:  MOVWF  x9F
06BF0:  MOVLW  3A
06BF2:  MOVWF  x9E
06BF4:  MOVLW  54
06BF6:  MOVWF  x9D
06BF8:  MOVLW  6B
06BFA:  MOVWF  x9C
06BFC:  MOVFF  03,7A3
06C00:  MOVFF  02,7A2
06C04:  MOVFF  01,7A1
06C08:  MOVFF  00,7A0
06C0C:  MOVLB  0
06C0E:  CALL   1E96
06C12:  MOVFF  00,75C
06C16:  MOVFF  01,75D
06C1A:  MOVFF  02,75E
06C1E:  MOVFF  03,75F
06C22:  MOVFF  255,76F
06C26:  MOVFF  254,76E
06C2A:  MOVFF  253,76D
06C2E:  MOVFF  252,76C
06C32:  MOVLB  7
06C34:  CLRF   x73
06C36:  CLRF   x72
06C38:  CLRF   x71
06C3A:  MOVLW  80
06C3C:  MOVWF  x70
06C3E:  MOVLB  0
06C40:  CALL   4F82
06C44:  MOVLW  90
06C46:  MOVLB  7
06C48:  MOVWF  x9B
06C4A:  MOVLW  D6
06C4C:  MOVWF  x9A
06C4E:  MOVLW  72
06C50:  MOVWF  x99
06C52:  MOVLW  5D
06C54:  MOVWF  x98
06C56:  MOVFF  03,79F
06C5A:  MOVFF  02,79E
06C5E:  MOVFF  01,79D
06C62:  MOVFF  00,79C
06C66:  MOVLB  0
06C68:  CALL   1A1E
06C6C:  MOVFF  FEA,761
06C70:  MOVFF  FE9,760
06C74:  BCF    FD8.1
06C76:  MOVFF  75F,79F
06C7A:  MOVFF  75E,79E
06C7E:  MOVFF  75D,79D
06C82:  MOVFF  75C,79C
06C86:  MOVFF  03,7A3
06C8A:  MOVFF  02,7A2
06C8E:  MOVFF  01,7A1
06C92:  MOVFF  00,7A0
06C96:  CALL   1E96
06C9A:  MOVFF  761,FEA
06C9E:  MOVFF  760,FE9
06CA2:  MOVFF  00,75C
06CA6:  MOVFF  01,75D
06CAA:  MOVFF  02,75E
06CAE:  MOVFF  03,75F
06CB2:  MOVLW  F8
06CB4:  MOVLB  7
06CB6:  MOVWF  x9B
06CB8:  MOVLW  2D
06CBA:  MOVWF  x9A
06CBC:  MOVLW  B0
06CBE:  MOVWF  x99
06CC0:  MOVLW  65
06CC2:  MOVWF  x98
06CC4:  MOVFF  255,79F
06CC8:  MOVFF  254,79E
06CCC:  MOVFF  253,79D
06CD0:  MOVFF  252,79C
06CD4:  MOVLB  0
06CD6:  CALL   1A1E
06CDA:  MOVFF  FEA,763
06CDE:  MOVFF  FE9,762
06CE2:  BCF    FD8.1
06CE4:  MOVLW  C2
06CE6:  MOVLB  7
06CE8:  MOVWF  x9F
06CEA:  MOVLW  7E
06CEC:  MOVWF  x9E
06CEE:  MOVLW  3F
06CF0:  MOVWF  x9D
06CF2:  MOVLW  6D
06CF4:  MOVWF  x9C
06CF6:  MOVFF  03,7A3
06CFA:  MOVFF  02,7A2
06CFE:  MOVFF  01,7A1
06D02:  MOVFF  00,7A0
06D06:  MOVLB  0
06D08:  CALL   1E96
06D0C:  MOVFF  763,FEA
06D10:  MOVFF  762,FE9
06D14:  MOVFF  00,764
06D18:  MOVFF  01,765
06D1C:  MOVFF  02,766
06D20:  MOVFF  03,767
06D24:  MOVFF  03,79B
06D28:  MOVFF  02,79A
06D2C:  MOVFF  01,799
06D30:  MOVFF  00,798
06D34:  MOVFF  269,79F
06D38:  MOVFF  268,79E
06D3C:  MOVFF  267,79D
06D40:  MOVFF  266,79C
06D44:  CALL   1A1E
06D48:  MOVFF  FEA,765
06D4C:  MOVFF  FE9,764
06D50:  BCF    FD8.1
06D52:  MOVFF  75F,79F
06D56:  MOVFF  75E,79E
06D5A:  MOVFF  75D,79D
06D5E:  MOVFF  75C,79C
06D62:  MOVFF  03,7A3
06D66:  MOVFF  02,7A2
06D6A:  MOVFF  01,7A1
06D6E:  MOVFF  00,7A0
06D72:  CALL   1E96
06D76:  MOVFF  765,FEA
06D7A:  MOVFF  764,FE9
06D7E:  MOVFF  00,75C
06D82:  MOVFF  01,75D
06D86:  MOVFF  02,75E
06D8A:  MOVFF  03,75F
06D8E:  MOVLW  5F
06D90:  MOVLB  7
06D92:  MOVWF  x9B
06D94:  MOVLW  73
06D96:  MOVWF  x9A
06D98:  MOVLW  9F
06D9A:  MOVWF  x99
06D9C:  MOVLW  6C
06D9E:  MOVWF  x98
06DA0:  MOVFF  255,79F
06DA4:  MOVFF  254,79E
06DA8:  MOVFF  253,79D
06DAC:  MOVFF  252,79C
06DB0:  MOVLB  0
06DB2:  CALL   1A1E
06DB6:  MOVFF  FEA,767
06DBA:  MOVFF  FE9,766
06DBE:  BCF    FD8.1
06DC0:  MOVLW  D0
06DC2:  MOVLB  7
06DC4:  MOVWF  x9F
06DC6:  MOVLW  8F
06DC8:  MOVWF  x9E
06DCA:  MOVLW  50
06DCC:  MOVWF  x9D
06DCE:  MOVLW  72
06DD0:  MOVWF  x9C
06DD2:  MOVFF  03,7A3
06DD6:  MOVFF  02,7A2
06DDA:  MOVFF  01,7A1
06DDE:  MOVFF  00,7A0
06DE2:  MOVLB  0
06DE4:  CALL   1E96
06DE8:  MOVFF  767,FEA
06DEC:  MOVFF  766,FE9
06DF0:  MOVFF  00,768
06DF4:  MOVFF  01,769
06DF8:  MOVFF  02,76A
06DFC:  MOVFF  03,76B
06E00:  MOVFF  269,76F
06E04:  MOVFF  268,76E
06E08:  MOVFF  267,76D
06E0C:  MOVFF  266,76C
06E10:  MOVLB  7
06E12:  CLRF   x73
06E14:  CLRF   x72
06E16:  CLRF   x71
06E18:  MOVLW  80
06E1A:  MOVWF  x70
06E1C:  MOVLB  0
06E1E:  CALL   4F82
06E22:  MOVFF  76B,79B
06E26:  MOVFF  76A,79A
06E2A:  MOVFF  769,799
06E2E:  MOVFF  768,798
06E32:  MOVFF  03,79F
06E36:  MOVFF  02,79E
06E3A:  MOVFF  01,79D
06E3E:  MOVFF  00,79C
06E42:  CALL   1A1E
06E46:  MOVFF  FEA,769
06E4A:  MOVFF  FE9,768
06E4E:  BCF    FD8.1
06E50:  MOVFF  75F,79F
06E54:  MOVFF  75E,79E
06E58:  MOVFF  75D,79D
06E5C:  MOVFF  75C,79C
06E60:  MOVFF  03,7A3
06E64:  MOVFF  02,7A2
06E68:  MOVFF  01,7A1
06E6C:  MOVFF  00,7A0
06E70:  CALL   1E96
06E74:  MOVFF  769,FEA
06E78:  MOVFF  768,FE9
06E7C:  MOVFF  75B,79B
06E80:  MOVFF  75A,79A
06E84:  MOVFF  759,799
06E88:  MOVFF  758,798
06E8C:  MOVFF  03,79F
06E90:  MOVFF  02,79E
06E94:  MOVFF  01,79D
06E98:  MOVFF  00,79C
06E9C:  CALL   1A1E
06EA0:  MOVFF  FEA,759
06EA4:  MOVFF  FE9,758
06EA8:  BSF    FD8.1
06EAA:  MOVLB  7
06EAC:  CLRF   x9F
06EAE:  CLRF   x9E
06EB0:  CLRF   x9D
06EB2:  MOVLW  7F
06EB4:  MOVWF  x9C
06EB6:  MOVFF  03,7A3
06EBA:  MOVFF  02,7A2
06EBE:  MOVFF  01,7A1
06EC2:  MOVFF  00,7A0
06EC6:  MOVLB  0
06EC8:  CALL   1E96
06ECC:  MOVFF  759,FEA
06ED0:  MOVFF  758,FE9
06ED4:  MOVFF  00,75A
06ED8:  MOVFF  01,75B
06EDC:  MOVFF  02,75C
06EE0:  MOVFF  03,75D
06EE4:  MOVFF  251,76F
06EE8:  MOVFF  250,76E
06EEC:  MOVFF  24F,76D
06EF0:  MOVFF  24E,76C
06EF4:  MOVLB  7
06EF6:  CLRF   x73
06EF8:  CLRF   x72
06EFA:  CLRF   x71
06EFC:  MOVLW  80
06EFE:  MOVWF  x70
06F00:  MOVLB  0
06F02:  CALL   4F82
06F06:  MOVFF  00,75E
06F0A:  MOVFF  01,75F
06F0E:  MOVFF  02,760
06F12:  MOVFF  03,761
06F16:  MOVFF  259,76F
06F1A:  MOVFF  258,76E
06F1E:  MOVFF  257,76D
06F22:  MOVFF  256,76C
06F26:  MOVLB  7
06F28:  CLRF   x73
06F2A:  CLRF   x72
06F2C:  CLRF   x71
06F2E:  MOVLW  80
06F30:  MOVWF  x70
06F32:  MOVLB  0
06F34:  CALL   4F82
06F38:  MOVFF  761,79B
06F3C:  MOVFF  760,79A
06F40:  MOVFF  75F,799
06F44:  MOVFF  75E,798
06F48:  MOVFF  03,79F
06F4C:  MOVFF  02,79E
06F50:  MOVFF  01,79D
06F54:  MOVFF  00,79C
06F58:  CALL   18C0
06F5C:  MOVFF  00,75E
06F60:  MOVFF  01,75F
06F64:  MOVFF  02,760
06F68:  MOVFF  03,761
06F6C:  MOVFF  269,76F
06F70:  MOVFF  268,76E
06F74:  MOVFF  267,76D
06F78:  MOVFF  266,76C
06F7C:  MOVLB  7
06F7E:  CLRF   x73
06F80:  CLRF   x72
06F82:  CLRF   x71
06F84:  MOVLW  80
06F86:  MOVWF  x70
06F88:  MOVLB  0
06F8A:  CALL   4F82
06F8E:  MOVLW  0E
06F90:  MOVLB  7
06F92:  MOVWF  x9B
06F94:  MOVLW  6D
06F96:  MOVWF  x9A
06F98:  MOVLW  83
06F9A:  MOVWF  x99
06F9C:  MOVLW  64
06F9E:  MOVWF  x98
06FA0:  MOVFF  03,79F
06FA4:  MOVFF  02,79E
06FA8:  MOVFF  01,79D
06FAC:  MOVFF  00,79C
06FB0:  MOVLB  0
06FB2:  CALL   1A1E
06FB6:  MOVFF  FEA,76B
06FBA:  MOVFF  FE9,76A
06FBE:  BCF    FD8.1
06FC0:  MOVLW  F0
06FC2:  MOVLB  7
06FC4:  MOVWF  x9F
06FC6:  MOVLW  F7
06FC8:  MOVWF  x9E
06FCA:  MOVLW  20
06FCC:  MOVWF  x9D
06FCE:  MOVLW  5B
06FD0:  MOVWF  x9C
06FD2:  MOVFF  03,7A3
06FD6:  MOVFF  02,7A2
06FDA:  MOVFF  01,7A1
06FDE:  MOVFF  00,7A0
06FE2:  MOVLB  0
06FE4:  CALL   1E96
06FE8:  MOVFF  76B,FEA
06FEC:  MOVFF  76A,FE9
06FF0:  MOVFF  761,79B
06FF4:  MOVFF  760,79A
06FF8:  MOVFF  75F,799
06FFC:  MOVFF  75E,798
07000:  MOVFF  03,79F
07004:  MOVFF  02,79E
07008:  MOVFF  01,79D
0700C:  MOVFF  00,79C
07010:  CALL   1A1E
07014:  MOVFF  FEA,75F
07018:  MOVFF  FE9,75E
0701C:  BCF    FD8.1
0701E:  MOVFF  75D,79F
07022:  MOVFF  75C,79E
07026:  MOVFF  75B,79D
0702A:  MOVFF  75A,79C
0702E:  MOVFF  03,7A3
07032:  MOVFF  02,7A2
07036:  MOVFF  01,7A1
0703A:  MOVFF  00,7A0
0703E:  CALL   1E96
07042:  MOVFF  75F,FEA
07046:  MOVFF  75E,FE9
0704A:  MOVFF  03,271
0704E:  MOVFF  02,270
07052:  MOVFF  01,26F
07056:  MOVFF  00,26E
....................    densidad=((Pa*0.028963512440)/(Z1*TempK*8.314472))*(1-(Xv*(1-(0.018015/0.028963512440)))); 
0705A:  MOVFF  251,79B
0705E:  MOVFF  250,79A
07062:  MOVFF  24F,799
07066:  MOVFF  24E,798
0706A:  MOVLW  E3
0706C:  MOVLB  7
0706E:  MOVWF  x9F
07070:  MOVLW  44
07072:  MOVWF  x9E
07074:  MOVLW  6D
07076:  MOVWF  x9D
07078:  MOVLW  79
0707A:  MOVWF  x9C
0707C:  MOVLB  0
0707E:  CALL   1A1E
07082:  MOVFF  00,758
07086:  MOVFF  01,759
0708A:  MOVFF  02,75A
0708E:  MOVFF  03,75B
07092:  MOVFF  271,79B
07096:  MOVFF  270,79A
0709A:  MOVFF  26F,799
0709E:  MOVFF  26E,798
070A2:  MOVFF  259,79F
070A6:  MOVFF  258,79E
070AA:  MOVFF  257,79D
070AE:  MOVFF  256,79C
070B2:  CALL   1A1E
070B6:  MOVFF  00,75C
070BA:  MOVFF  01,75D
070BE:  MOVFF  02,75E
070C2:  MOVFF  03,75F
070C6:  MOVFF  03,79B
070CA:  MOVFF  02,79A
070CE:  MOVFF  01,799
070D2:  MOVFF  00,798
070D6:  MOVLW  14
070D8:  MOVLB  7
070DA:  MOVWF  x9F
070DC:  MOVLW  08
070DE:  MOVWF  x9E
070E0:  MOVLW  05
070E2:  MOVWF  x9D
070E4:  MOVLW  82
070E6:  MOVWF  x9C
070E8:  MOVLB  0
070EA:  CALL   1A1E
070EE:  MOVFF  75B,79B
070F2:  MOVFF  75A,79A
070F6:  MOVFF  759,799
070FA:  MOVFF  758,798
070FE:  MOVFF  03,79F
07102:  MOVFF  02,79E
07106:  MOVFF  01,79D
0710A:  MOVFF  00,79C
0710E:  CALL   18C0
07112:  MOVFF  00,758
07116:  MOVFF  01,759
0711A:  MOVFF  02,75A
0711E:  MOVFF  03,75B
07122:  MOVFF  269,79B
07126:  MOVFF  268,79A
0712A:  MOVFF  267,799
0712E:  MOVFF  266,798
07132:  MOVLW  98
07134:  MOVLB  7
07136:  MOVWF  x9F
07138:  MOVLW  8A
0713A:  MOVWF  x9E
0713C:  MOVLW  41
0713E:  MOVWF  x9D
07140:  MOVLW  7D
07142:  MOVWF  x9C
07144:  MOVLB  0
07146:  CALL   1A1E
0714A:  BSF    FD8.1
0714C:  MOVLB  7
0714E:  CLRF   x9F
07150:  CLRF   x9E
07152:  CLRF   x9D
07154:  MOVLW  7F
07156:  MOVWF  x9C
07158:  MOVFF  03,7A3
0715C:  MOVFF  02,7A2
07160:  MOVFF  01,7A1
07164:  MOVFF  00,7A0
07168:  MOVLB  0
0716A:  CALL   1E96
0716E:  MOVFF  75B,79B
07172:  MOVFF  75A,79A
07176:  MOVFF  759,799
0717A:  MOVFF  758,798
0717E:  MOVFF  03,79F
07182:  MOVFF  02,79E
07186:  MOVFF  01,79D
0718A:  MOVFF  00,79C
0718E:  CALL   1A1E
07192:  MOVFF  03,26D
07196:  MOVFF  02,26C
0719A:  MOVFF  01,26B
0719E:  MOVFF  00,26A
.................... } 
071A2:  RETLW  00
....................  
.................... void LeerBotones(){ 
....................    if(tup>=30){ 
*
03EB4:  MOVLB  2
03EB6:  MOVF   x79,F
03EB8:  BNZ   3EC0
03EBA:  MOVF   x78,W
03EBC:  SUBLW  1D
03EBE:  BC    3EC6
....................       UP=ON;             
03EC0:  MOVLB  0
03EC2:  BSF    x7F.3
03EC4:  MOVLB  2
....................    } 
....................     
....................    if(tdown>=30){ 
03EC6:  MOVF   x7B,F
03EC8:  BNZ   3ED0
03ECA:  MOVF   x7A,W
03ECC:  SUBLW  1D
03ECE:  BC    3ED6
....................       DOWN=ON; 
03ED0:  MOVLB  0
03ED2:  BSF    x7F.4
03ED4:  MOVLB  2
....................    } 
....................     
....................    if(tright>=30){ 
03ED6:  MOVF   x7D,F
03ED8:  BNZ   3EE0
03EDA:  MOVF   x7C,W
03EDC:  SUBLW  1D
03EDE:  BC    3EE6
....................       RIGHT=ON; 
03EE0:  MOVLB  0
03EE2:  BSF    x7F.5
03EE4:  MOVLB  2
....................    } 
....................     
....................    if(tleft>=30){ 
03EE6:  MOVF   x7F,F
03EE8:  BNZ   3EF0
03EEA:  MOVF   x7E,W
03EEC:  SUBLW  1D
03EEE:  BC    3EF6
....................       LEFT=ON; 
03EF0:  MOVLB  0
03EF2:  BSF    x7F.6
03EF4:  MOVLB  2
....................    } 
.................... } 
03EF6:  MOVLB  0
03EF8:  RETLW  00
....................  
.................... void VelocidadMotor(int8 Vel){ 
....................    float tmp; 
....................    if(Vel==0){ 
*
01B50:  MOVLB  7
01B52:  MOVF   x58,F
01B54:  BNZ   1BC8
....................       #ifdef RS485 
....................       Motor_off; 
01B56:  BCF    F8B.3
01B58:  BCF    F94.3
....................       Motor2_off; 
01B5A:  BCF    F8B.2
01B5C:  BCF    F94.2
....................       readHolding();  
01B5E:  MOVLB  0
01B60:  RCALL  1854
....................       if(make16(txbuf[1],txbuf[2])!=0 || reg!=make16(txbuf[3],txbuf[4])){//Compara Registro 1 con el valor de activacion de variador 
01B62:  MOVFF  2A9,75E
01B66:  MOVFF  2AA,75D
01B6A:  MOVLB  7
01B6C:  MOVF   x5D,F
01B6E:  BNZ   1B90
01B70:  MOVF   x5E,F
01B72:  BNZ   1B90
01B74:  MOVFF  2AB,03
01B78:  MOVLB  2
01B7A:  MOVF   xAC,W
01B7C:  MOVLB  0
01B7E:  SUBWF  xD8,W
01B80:  BTFSC  FD8.2
01B82:  BRA    1B88
01B84:  MOVLB  7
01B86:  BRA    1B90
01B88:  MOVF   03,W
01B8A:  SUBWF  xD9,W
01B8C:  BZ    1BAC
01B8E:  MOVLB  7
....................          writeCommand(5,0,0);//Envia comando 5 a direccion 1 con dato 0          
01B90:  MOVLW  05
01B92:  MOVWF  x5D
01B94:  CLRF   x5E
01B96:  CLRF   x60
01B98:  CLRF   x5F
01B9A:  MOVLB  0
01B9C:  RCALL  1870
....................          conteoError++; 
01B9E:  INCF   xAF,F
....................          flagError=ON; 
01BA0:  BSF    x80.0
....................          if(conteoError>15) 
01BA2:  MOVF   xAF,W
01BA4:  SUBLW  0F
01BA6:  BC    1BAA
....................             Alarmas=ON;       
01BA8:  BSF    x7F.7
....................       }else{ 
01BAA:  BRA    1BC4
....................          if(flagError){ 
01BAC:  BTFSS  x80.0
01BAE:  BRA    1BC4
....................             flagError=OFF; 
01BB0:  BCF    x80.0
....................             conteoError=0; 
01BB2:  CLRF   xAF
....................             Alarmas=OFF; 
01BB4:  BCF    x7F.7
....................             writeCommand(0,0,0); 
01BB6:  MOVLB  7
01BB8:  CLRF   x5D
01BBA:  CLRF   x5E
01BBC:  CLRF   x60
01BBE:  CLRF   x5F
01BC0:  MOVLB  0
01BC2:  RCALL  1870
....................          } 
....................       } 
....................        
....................       #else 
....................       Motor_off; 
....................       Motor2_off; 
....................       Alarmas=OFF; 
....................       flagError=OFF; 
....................       conteoError=0; 
....................       #endif 
....................    }else{ 
01BC4:  BRA    1D46
01BC6:  MOVLB  7
....................       #ifdef RS485 
....................       Motor_on; 
01BC8:  BSF    F8B.3
01BCA:  BCF    F94.3
....................       tmp=((float)Vel/(1.6666666))*10.0; 
01BCC:  CLRF   x9D
01BCE:  MOVFF  758,79C
01BD2:  MOVLB  0
01BD4:  RCALL  188A
01BD6:  MOVFF  00,75D
01BDA:  MOVFF  01,75E
01BDE:  MOVFF  02,75F
01BE2:  MOVFF  03,760
01BE6:  MOVFF  03,79B
01BEA:  MOVFF  02,79A
01BEE:  MOVFF  01,799
01BF2:  MOVFF  00,798
01BF6:  MOVLW  55
01BF8:  MOVLB  7
01BFA:  MOVWF  x9F
01BFC:  MOVWF  x9E
01BFE:  MOVWF  x9D
01C00:  MOVLW  7F
01C02:  MOVWF  x9C
01C04:  MOVLB  0
01C06:  RCALL  18C0
01C08:  MOVFF  00,75D
01C0C:  MOVFF  01,75E
01C10:  MOVFF  02,75F
01C14:  MOVFF  03,760
01C18:  MOVFF  03,79B
01C1C:  MOVFF  02,79A
01C20:  MOVFF  01,799
01C24:  MOVFF  00,798
01C28:  MOVLB  7
01C2A:  CLRF   x9F
01C2C:  CLRF   x9E
01C2E:  MOVLW  20
01C30:  MOVWF  x9D
01C32:  MOVLW  82
01C34:  MOVWF  x9C
01C36:  MOVLB  0
01C38:  RCALL  1A1E
01C3A:  MOVFF  03,75C
01C3E:  MOVFF  02,75B
01C42:  MOVFF  01,75A
01C46:  MOVFF  00,759
....................       readHolding();  
01C4A:  RCALL  1854
....................       reg=(int16)tmp; 
01C4C:  MOVFF  75C,79B
01C50:  MOVFF  75B,79A
01C54:  MOVFF  75A,799
01C58:  MOVFF  759,798
01C5C:  RCALL  1B14
01C5E:  MOVFF  02,D9
01C62:  MOVFF  01,D8
....................       //if(make16(txbuf[1],txbuf[2])!=1 || reg!=make16(txbuf[3],txbuf[4])){//Compara Registro 1 con el valor de activacion de variador 
....................       if(make16(txbuf[1],txbuf[2])!=1 || reg!=make16(txbuf[3],txbuf[4])){//Compara Registro 1 con el valor de activacion de variador 
01C66:  MOVFF  2A9,75E
01C6A:  MOVFF  2AA,75D
01C6E:  MOVLB  7
01C70:  DECFSZ x5D,W
01C72:  BRA    1C94
01C74:  MOVF   x5E,F
01C76:  BNZ   1C94
01C78:  MOVFF  2AB,03
01C7C:  MOVLB  2
01C7E:  MOVF   xAC,W
01C80:  MOVLB  0
01C82:  SUBWF  xD8,W
01C84:  BTFSC  FD8.2
01C86:  BRA    1C8C
01C88:  MOVLB  7
01C8A:  BRA    1C94
01C8C:  MOVF   03,W
01C8E:  SUBWF  xD9,W
01C90:  BZ    1D26
01C92:  MOVLB  7
....................          //writeCommand(5,1,reg); 
....................          //delay_ms(10); 
....................          writeCommand(5,0,1);  
01C94:  MOVLW  05
01C96:  MOVWF  x5D
01C98:  CLRF   x5E
01C9A:  CLRF   x60
01C9C:  MOVLW  01
01C9E:  MOVWF  x5F
01CA0:  MOVLB  0
01CA2:  RCALL  1870
....................          conteoError++; 
01CA4:  INCF   xAF,F
....................          flagError=ON; 
01CA6:  BSF    x80.0
....................          if(conteoError>15) 
01CA8:  MOVF   xAF,W
01CAA:  SUBLW  0F
01CAC:  BC    1CB0
....................             Alarmas=ON;       
01CAE:  BSF    x7F.7
....................           
....................          if(reg!=make16(txbuf[3],txbuf[4])){ 
01CB0:  MOVFF  2AB,03
01CB4:  MOVLB  2
01CB6:  MOVF   xAC,W
01CB8:  MOVLB  0
01CBA:  SUBWF  xD8,W
01CBC:  BNZ   1CC4
01CBE:  MOVF   03,W
01CC0:  SUBWF  xD9,W
01CC2:  BZ    1D24
....................             writeCommand(5,1,reg); 
01CC4:  MOVLW  05
01CC6:  MOVLB  7
01CC8:  MOVWF  x5D
01CCA:  MOVLW  01
01CCC:  MOVWF  x5E
01CCE:  MOVFF  D9,760
01CD2:  MOVFF  D8,75F
01CD6:  MOVLB  0
01CD8:  RCALL  1870
....................             delay_ms(10);  
01CDA:  MOVLW  0A
01CDC:  MOVLB  7
01CDE:  MOVWF  x6C
01CE0:  MOVLB  0
01CE2:  RCALL  15AA
....................             writeCommand(5,1,reg); 
01CE4:  MOVLW  05
01CE6:  MOVLB  7
01CE8:  MOVWF  x5D
01CEA:  MOVLW  01
01CEC:  MOVWF  x5E
01CEE:  MOVFF  D9,760
01CF2:  MOVFF  D8,75F
01CF6:  MOVLB  0
01CF8:  RCALL  1870
....................             delay_ms(10);  
01CFA:  MOVLW  0A
01CFC:  MOVLB  7
01CFE:  MOVWF  x6C
01D00:  MOVLB  0
01D02:  RCALL  15AA
....................             writeCommand(5,1,reg); 
01D04:  MOVLW  05
01D06:  MOVLB  7
01D08:  MOVWF  x5D
01D0A:  MOVLW  01
01D0C:  MOVWF  x5E
01D0E:  MOVFF  D9,760
01D12:  MOVFF  D8,75F
01D16:  MOVLB  0
01D18:  RCALL  1870
....................             delay_ms(10);  
01D1A:  MOVLW  0A
01D1C:  MOVLB  7
01D1E:  MOVWF  x6C
01D20:  MOVLB  0
01D22:  RCALL  15AA
....................          } 
....................       }else{ 
01D24:  BRA    1D46
....................          Alarma_off; 
01D26:  BCF    F8B.0
01D28:  BCF    F94.0
....................          Aux_off; 
01D2A:  BSF    F8C.2
01D2C:  BCF    F95.2
....................          if(flagError){ 
01D2E:  BTFSS  x80.0
01D30:  BRA    1D46
....................             flagError=OFF; 
01D32:  BCF    x80.0
....................             conteoError=0; 
01D34:  CLRF   xAF
....................             Alarmas=OFF; 
01D36:  BCF    x7F.7
....................             writeCommand(0,0,0); 
01D38:  MOVLB  7
01D3A:  CLRF   x5D
01D3C:  CLRF   x5E
01D3E:  CLRF   x60
01D40:  CLRF   x5F
01D42:  MOVLB  0
01D44:  RCALL  1870
....................          } 
....................       } 
....................        
....................       #else 
....................          Motor_on; 
....................          Motor2_on; 
....................          tmp=((float)Vel*1023.0)/100.0; 
....................          pwm1=1023-((int16)tmp); 
....................          pwm2=pwm1; 
....................          pwm1l=make8(pwm1,0); 
....................          pwm1h=make8(pwm1,1); 
....................          pwm2l=make8(pwm2,0); 
....................          pwm2h=make8(pwm2,1); 
....................          Envio_Esclavos(); 
....................       #endif 
....................    } 
.................... } 
01D46:  RETLW  00
....................  
.................... void guardaHora(){ 
....................             UP=OFF;DOWN=OFF;RIGHT=OFF;LEFT=OFF; 
*
07406:  BCF    x7F.3
07408:  BCF    x7F.4
0740A:  BCF    x7F.5
0740C:  BCF    x7F.6
....................             PantallaPrincipal=0; 
0740E:  CLRF   xAD
....................              
....................             if(esBisiesto(YearTx)) 
07410:  MOVFF  A3,758
07414:  RCALL  72C8
07416:  MOVF   01,F
07418:  BZ    742E
....................                Modulo=Bisiesto[MesTx]; 
0741A:  CLRF   03
0741C:  MOVF   xA4,W
0741E:  ADDLW  71
07420:  MOVWF  FE9
07422:  MOVLW  00
07424:  ADDWFC 03,W
07426:  MOVWF  FEA
07428:  MOVFF  FEF,BE
....................             else 
0742C:  BRA    7440
....................                Modulo=Regular[MesTx]; 
0742E:  CLRF   03
07430:  MOVF   xA4,W
07432:  ADDLW  65
07434:  MOVWF  FE9
07436:  MOVLW  00
07438:  ADDWFC 03,W
0743A:  MOVWF  FEA
0743C:  MOVFF  FEF,BE
....................           
....................             dowTx=((YearTx-1)%7+((YearTx-1)/4-3*((YearTx-1)/100+1)/4)%7+Modulo+DiaTx%7)%7; 
07440:  MOVLW  01
07442:  SUBWF  xA3,W
07444:  MOVLB  7
07446:  MOVWF  x59
07448:  MOVWF  x61
0744A:  MOVLW  07
0744C:  MOVWF  x62
0744E:  MOVLB  0
07450:  RCALL  71D6
07452:  MOVFF  00,758
07456:  MOVLW  01
07458:  SUBWF  xA3,W
0745A:  MOVWF  00
0745C:  RRCF   00,W
0745E:  MOVLB  7
07460:  MOVWF  x59
07462:  RRCF   x59,F
07464:  MOVLW  3F
07466:  ANDWF  x59,F
07468:  MOVLW  01
0746A:  MOVLB  0
0746C:  SUBWF  xA3,W
0746E:  MOVLB  7
07470:  MOVWF  x5B
07472:  MOVWF  x61
07474:  MOVLW  64
07476:  MOVWF  x62
07478:  MOVLB  0
0747A:  RCALL  71D6
0747C:  MOVLW  01
0747E:  ADDWF  01,W
07480:  MULLW  03
07482:  MOVFF  FF3,00
07486:  RRCF   00,F
07488:  RRCF   00,F
0748A:  MOVLW  3F
0748C:  ANDWF  00,F
0748E:  MOVF   00,W
07490:  MOVLB  7
07492:  SUBWF  x59,W
07494:  MOVWF  x5A
07496:  MOVWF  x61
07498:  MOVLW  07
0749A:  MOVWF  x62
0749C:  MOVLB  0
0749E:  RCALL  71D6
074A0:  MOVF   00,W
074A2:  MOVLB  7
074A4:  ADDWF  x58,W
074A6:  MOVLB  0
074A8:  ADDWF  xBE,W
074AA:  MOVLB  7
074AC:  MOVWF  x58
074AE:  MOVFF  A5,761
074B2:  MOVLW  07
074B4:  MOVWF  x62
074B6:  MOVLB  0
074B8:  RCALL  71D6
074BA:  MOVF   00,W
074BC:  MOVLB  7
074BE:  ADDWF  x58,W
074C0:  MOVWF  x59
074C2:  MOVWF  x61
074C4:  MOVLW  07
074C6:  MOVWF  x62
074C8:  MOVLB  0
074CA:  RCALL  71D6
074CC:  MOVFF  00,A8
....................             rtc_set_datetime(DiaTx,MesTx,YearTx,dowTx,HoraTx,MinutoTx); 
074D0:  MOVFF  A5,758
074D4:  MOVFF  A4,759
074D8:  MOVFF  A3,75A
074DC:  MOVFF  A8,75B
074E0:  MOVFF  A6,75C
074E4:  MOVFF  A7,75D
074E8:  BRA    734A
.................... } 
074EA:  RETLW  00
....................  
.................... void leeTeclasLaterales(){ 
....................       if(RX_Buffer[4]==0x10){//Selecciono Principal 
074EC:  MOVF   35,W
074EE:  SUBLW  10
074F0:  BNZ   752E
....................          silencio=OFF; 
074F2:  BCF    x81.0
....................          if(Menu==7) 
074F4:  MOVF   x82,W
074F6:  SUBLW  07
074F8:  BNZ   74FC
....................             guardaHora(); 
074FA:  RCALL  7406
....................          printf("page Principal"); 
074FC:  MOVLW  02
074FE:  MOVWF  FF6
07500:  MOVLW  03
07502:  MOVWF  FF7
07504:  MOVLW  00
07506:  MOVWF  FF8
07508:  CALL   1E2E
....................          SendDataDisplay(); 
0750C:  CALL   1E60
....................          UP=OFF;DOWN=OFF;RIGHT=OFF;LEFT=OFF; 
07510:  BCF    x7F.3
07512:  BCF    x7F.4
07514:  BCF    x7F.5
07516:  BCF    x7F.6
....................          tiempo_uv=0;LuzUV=10;flag_uv=0; 
07518:  BCF    x7E.7
0751A:  MOVLW  0A
0751C:  MOVWF  x8F
0751E:  BCF    x7D.5
....................          sUV=0;mUV=0;UV2=0; 
07520:  CLRF   xB9
07522:  CLRF   xBA
07524:  CLRF   xBD
....................          flag_luz=0; 
07526:  BCF    x7D.3
....................          CambioColorR=OFF; 
07528:  BCF    x80.6
....................          CambioColorN=OFF; 
0752A:  BCF    x80.5
....................          CambioColorG=OFF; 
0752C:  BCF    x80.7
....................       } 
....................        
....................       if(RX_Buffer[4]==0x20){//Selecciono Mantenimiento 
0752E:  MOVF   35,W
07530:  SUBLW  20
07532:  BNZ   7570
....................          silencio=OFF; 
07534:  BCF    x81.0
....................          if(Menu==7) 
07536:  MOVF   x82,W
07538:  SUBLW  07
0753A:  BNZ   753E
....................             guardaHora(); 
0753C:  RCALL  7406
....................          printf("page Mantenimiento"); 
0753E:  MOVLW  12
07540:  MOVWF  FF6
07542:  MOVLW  03
07544:  MOVWF  FF7
07546:  MOVLW  00
07548:  MOVWF  FF8
0754A:  CALL   1E2E
....................          SendDataDisplay();   
0754E:  CALL   1E60
....................          UP=OFF;DOWN=OFF;RIGHT=OFF;LEFT=OFF; 
07552:  BCF    x7F.3
07554:  BCF    x7F.4
07556:  BCF    x7F.5
07558:  BCF    x7F.6
....................          tiempo_uv=0;LuzUV=10;flag_uv=0; 
0755A:  BCF    x7E.7
0755C:  MOVLW  0A
0755E:  MOVWF  x8F
07560:  BCF    x7D.5
....................          sUV=0;mUV=0;UV2=0; 
07562:  CLRF   xB9
07564:  CLRF   xBA
07566:  CLRF   xBD
....................          flag_luz=0; 
07568:  BCF    x7D.3
....................          CambioColorR=OFF; 
0756A:  BCF    x80.6
....................          CambioColorN=OFF; 
0756C:  BCF    x80.5
....................          CambioColorG=OFF; 
0756E:  BCF    x80.7
....................       } 
....................        
....................       if(RX_Buffer[4]==0x30){//Selecciono Clave 
07570:  MOVF   35,W
07572:  SUBLW  30
07574:  BNZ   75B6
....................          silencio=OFF; 
07576:  BCF    x81.0
....................          if(Menu==7) 
07578:  MOVF   x82,W
0757A:  SUBLW  07
0757C:  BNZ   7580
....................             guardaHora(); 
0757E:  RCALL  7406
....................          printf("page Clave"); 
07580:  MOVLW  26
07582:  MOVWF  FF6
07584:  MOVLW  03
07586:  MOVWF  FF7
07588:  MOVLW  00
0758A:  MOVWF  FF8
0758C:  CALL   1E2E
....................          SendDataDisplay();             
07590:  CALL   1E60
....................          TipoClave=2; 
07594:  MOVLW  02
07596:  MOVWF  xAC
....................          UP=OFF;DOWN=OFF;RIGHT=OFF;LEFT=OFF; 
07598:  BCF    x7F.3
0759A:  BCF    x7F.4
0759C:  BCF    x7F.5
0759E:  BCF    x7F.6
....................          tiempo_uv=0;LuzUV=10;flag_uv=0; 
075A0:  BCF    x7E.7
075A2:  MOVLW  0A
075A4:  MOVWF  x8F
075A6:  BCF    x7D.5
....................          sUV=0;mUV=0;UV2=0; 
075A8:  CLRF   xB9
075AA:  CLRF   xBA
075AC:  CLRF   xBD
....................          flag_luz=0; 
075AE:  BCF    x7D.3
....................          CambioColorR=OFF; 
075B0:  BCF    x80.6
....................          CambioColorN=OFF; 
075B2:  BCF    x80.5
....................          CambioColorG=OFF; 
075B4:  BCF    x80.7
....................       } 
....................        
....................       if(RX_Buffer[4]==0x40){//Selecciono Mantenimiento 
075B6:  MOVF   35,W
075B8:  SUBLW  40
075BA:  BNZ   75F8
....................          silencio=OFF; 
075BC:  BCF    x81.0
....................          if(Menu==7) 
075BE:  MOVF   x82,W
075C0:  SUBLW  07
075C2:  BNZ   75C6
....................             guardaHora(); 
075C4:  RCALL  7406
....................          printf("page Tiempos"); 
075C6:  MOVLW  32
075C8:  MOVWF  FF6
075CA:  MOVLW  03
075CC:  MOVWF  FF7
075CE:  MOVLW  00
075D0:  MOVWF  FF8
075D2:  CALL   1E2E
....................          SendDataDisplay();   
075D6:  CALL   1E60
....................          UP=OFF;DOWN=OFF;RIGHT=OFF;LEFT=OFF; 
075DA:  BCF    x7F.3
075DC:  BCF    x7F.4
075DE:  BCF    x7F.5
075E0:  BCF    x7F.6
....................          tiempo_uv=0;LuzUV=10;flag_uv=0; 
075E2:  BCF    x7E.7
075E4:  MOVLW  0A
075E6:  MOVWF  x8F
075E8:  BCF    x7D.5
....................          sUV=0;mUV=0;UV2=0; 
075EA:  CLRF   xB9
075EC:  CLRF   xBA
075EE:  CLRF   xBD
....................          flag_luz=0; 
075F0:  BCF    x7D.3
....................          CambioColorR=OFF; 
075F2:  BCF    x80.6
....................          CambioColorN=OFF; 
075F4:  BCF    x80.5
....................          CambioColorG=OFF; 
075F6:  BCF    x80.7
....................       } 
....................        
....................       if(RX_Buffer[4]==0x50){//Selecciono Hora y Fecha 
075F8:  MOVF   35,W
075FA:  SUBLW  50
075FC:  BNZ   764E
....................          silencio=OFF; 
075FE:  BCF    x81.0
....................          if(Menu==7) 
07600:  MOVF   x82,W
07602:  SUBLW  07
07604:  BNZ   7608
....................             guardaHora(); 
07606:  RCALL  7406
....................          printf("page Hora"); 
07608:  MOVLW  40
0760A:  MOVWF  FF6
0760C:  MOVLW  03
0760E:  MOVWF  FF7
07610:  MOVLW  00
07612:  MOVWF  FF8
07614:  CALL   1E2E
....................          SendDataDisplay(); 
07618:  CALL   1E60
....................          DiaTx=Dia; 
0761C:  MOVFF  94,A5
....................          MesTx=Mes; 
07620:  MOVFF  93,A4
....................          YearTx=Year; 
07624:  MOVFF  92,A3
....................          HoraTx=Hora; 
07628:  MOVFF  95,A6
....................          MinutoTx=Minuto; 
0762C:  MOVFF  96,A7
....................          UP=OFF;DOWN=OFF;RIGHT=OFF;LEFT=OFF; 
07630:  BCF    x7F.3
07632:  BCF    x7F.4
07634:  BCF    x7F.5
07636:  BCF    x7F.6
....................          tiempo_uv=0;LuzUV=10;flag_uv=0; 
07638:  BCF    x7E.7
0763A:  MOVLW  0A
0763C:  MOVWF  x8F
0763E:  BCF    x7D.5
....................          sUV=0;mUV=0;UV2=0; 
07640:  CLRF   xB9
07642:  CLRF   xBA
07644:  CLRF   xBD
....................          flag_luz=0; 
07646:  BCF    x7D.3
....................          CambioColorR=OFF; 
07648:  BCF    x80.6
....................          CambioColorN=OFF; 
0764A:  BCF    x80.5
....................          CambioColorG=OFF; 
0764C:  BCF    x80.7
....................       } 
....................        
....................       if(RX_Buffer[4]==0x60){//Selecciono Servicio 
0764E:  MOVF   35,W
07650:  SUBLW  60
07652:  BNZ   768C
....................          silencio=OFF; 
07654:  BCF    x81.0
....................          printf("page Clave"); 
07656:  MOVLW  4A
07658:  MOVWF  FF6
0765A:  MOVLW  03
0765C:  MOVWF  FF7
0765E:  MOVLW  00
07660:  MOVWF  FF8
07662:  CALL   1E2E
....................          SendDataDisplay();             
07666:  CALL   1E60
....................          TipoClave=1; 
0766A:  MOVLW  01
0766C:  MOVWF  xAC
....................          UP=OFF;DOWN=OFF;RIGHT=OFF;LEFT=OFF; 
0766E:  BCF    x7F.3
07670:  BCF    x7F.4
07672:  BCF    x7F.5
07674:  BCF    x7F.6
....................          tiempo_uv=0;LuzUV=10;flag_uv=0; 
07676:  BCF    x7E.7
07678:  MOVLW  0A
0767A:  MOVWF  x8F
0767C:  BCF    x7D.5
....................          sUV=0;mUV=0;UV2=0; 
0767E:  CLRF   xB9
07680:  CLRF   xBA
07682:  CLRF   xBD
....................          flag_luz=0; 
07684:  BCF    x7D.3
....................          CambioColorR=OFF; 
07686:  BCF    x80.6
....................          CambioColorN=OFF; 
07688:  BCF    x80.5
....................          CambioColorG=OFF; 
0768A:  BCF    x80.7
....................       } 
.................... } 
0768C:  RETLW  00
....................  
.................... void leeEstados(){ 
....................       if(flag_luz==1){ 
0768E:  BTFSS  x7D.3
07690:  BRA    76A8
....................             printf("b0.pic=53"); 
07692:  MOVLW  56
07694:  MOVWF  FF6
07696:  MOVLW  03
07698:  MOVWF  FF7
0769A:  MOVLW  00
0769C:  MOVWF  FF8
0769E:  CALL   1E2E
....................             SendDataDisplay();     
076A2:  CALL   1E60
....................          }else{ 
076A6:  BRA    76BC
....................             printf("b0.pic=52"); 
076A8:  MOVLW  60
076AA:  MOVWF  FF6
076AC:  MOVLW  03
076AE:  MOVWF  FF7
076B0:  MOVLW  00
076B2:  MOVWF  FF8
076B4:  CALL   1E2E
....................             SendDataDisplay();  
076B8:  CALL   1E60
....................          } 
....................        
....................       if(flag_uv){ 
076BC:  BTFSS  x7D.5
076BE:  BRA    76D6
....................             printf("b3.pic=57"); 
076C0:  MOVLW  6A
076C2:  MOVWF  FF6
076C4:  MOVLW  03
076C6:  MOVWF  FF7
076C8:  MOVLW  00
076CA:  MOVWF  FF8
076CC:  CALL   1E2E
....................             SendDataDisplay();               
076D0:  CALL   1E60
....................          }else{             
076D4:  BRA    76EA
....................             printf("b3.pic=56"); 
076D6:  MOVLW  74
076D8:  MOVWF  FF6
076DA:  MOVLW  03
076DC:  MOVWF  FF7
076DE:  MOVLW  00
076E0:  MOVWF  FF8
076E2:  CALL   1E2E
....................             SendDataDisplay();  
076E6:  CALL   1E60
....................          } 
....................           
....................       if(flag_blower==1){ 
076EA:  BTFSS  x7D.1
076EC:  BRA    7878
....................          printf("b2.pic=59"); 
076EE:  MOVLW  7E
076F0:  MOVWF  FF6
076F2:  MOVLW  03
076F4:  MOVWF  FF7
076F6:  MOVLW  00
076F8:  MOVWF  FF8
076FA:  CALL   1E2E
....................          SendDataDisplay();  
076FE:  CALL   1E60
....................          tiempo_trabajo=1; 
07702:  BSF    x7E.0
....................          if(guardatrabajo==1){ 
07704:  BTFSS  x80.1
07706:  BRA    786E
....................             guardatrabajo=0; 
07708:  BCF    x80.1
....................             write_eeprom(37,make8(minutos_trabajo,0)); 
0770A:  MOVFF  CC,758
0770E:  CLRF   FAA
07710:  MOVLW  25
07712:  MOVWF  FA9
07714:  MOVFF  758,FA8
07718:  BCF    FA6.6
0771A:  BCF    FA6.7
0771C:  BSF    FA6.2
0771E:  MOVF   FF2,W
07720:  MOVWF  00
07722:  BCF    FF2.6
07724:  BCF    FF2.7
07726:  MOVLB  F
07728:  MOVLW  55
0772A:  MOVWF  FA7
0772C:  MOVLW  AA
0772E:  MOVWF  FA7
07730:  BSF    FA6.1
07732:  BTFSC  FA6.1
07734:  BRA    7732
07736:  BCF    FA6.2
07738:  MOVF   00,W
0773A:  IORWF  FF2,F
....................             delay_ms(20); 
0773C:  MOVLW  14
0773E:  MOVLB  7
07740:  MOVWF  x6C
07742:  MOVLB  0
07744:  CALL   15AA
....................             write_eeprom(38,make8(minutos_trabajo,1)); 
07748:  MOVFF  CD,758
0774C:  CLRF   FAA
0774E:  MOVLW  26
07750:  MOVWF  FA9
07752:  MOVFF  758,FA8
07756:  BCF    FA6.6
07758:  BCF    FA6.7
0775A:  BSF    FA6.2
0775C:  MOVF   FF2,W
0775E:  MOVWF  00
07760:  BCF    FF2.6
07762:  BCF    FF2.7
07764:  MOVLB  F
07766:  MOVLW  55
07768:  MOVWF  FA7
0776A:  MOVLW  AA
0776C:  MOVWF  FA7
0776E:  BSF    FA6.1
07770:  BTFSC  FA6.1
07772:  BRA    7770
07774:  BCF    FA6.2
07776:  MOVF   00,W
07778:  IORWF  FF2,F
....................             delay_ms(20); 
0777A:  MOVLW  14
0777C:  MOVLB  7
0777E:  MOVWF  x6C
07780:  MOVLB  0
07782:  CALL   15AA
....................             write_eeprom(16,Ttrabajo[0]); 
07786:  CLRF   FAA
07788:  MOVLW  10
0778A:  MOVWF  FA9
0778C:  MOVFF  DE,FA8
07790:  BCF    FA6.6
07792:  BCF    FA6.7
07794:  BSF    FA6.2
07796:  MOVF   FF2,W
07798:  MOVWF  00
0779A:  BCF    FF2.6
0779C:  BCF    FF2.7
0779E:  MOVLB  F
077A0:  MOVLW  55
077A2:  MOVWF  FA7
077A4:  MOVLW  AA
077A6:  MOVWF  FA7
077A8:  BSF    FA6.1
077AA:  BTFSC  FA6.1
077AC:  BRA    77AA
077AE:  BCF    FA6.2
077B0:  MOVF   00,W
077B2:  IORWF  FF2,F
....................             delay_ms(20); 
077B4:  MOVLW  14
077B6:  MOVLB  7
077B8:  MOVWF  x6C
077BA:  MOVLB  0
077BC:  CALL   15AA
....................             write_eeprom(17,Ttrabajo[1]); 
077C0:  CLRF   FAA
077C2:  MOVLW  11
077C4:  MOVWF  FA9
077C6:  MOVFF  DF,FA8
077CA:  BCF    FA6.6
077CC:  BCF    FA6.7
077CE:  BSF    FA6.2
077D0:  MOVF   FF2,W
077D2:  MOVWF  00
077D4:  BCF    FF2.6
077D6:  BCF    FF2.7
077D8:  MOVLB  F
077DA:  MOVLW  55
077DC:  MOVWF  FA7
077DE:  MOVLW  AA
077E0:  MOVWF  FA7
077E2:  BSF    FA6.1
077E4:  BTFSC  FA6.1
077E6:  BRA    77E4
077E8:  BCF    FA6.2
077EA:  MOVF   00,W
077EC:  IORWF  FF2,F
....................             delay_ms(20); 
077EE:  MOVLW  14
077F0:  MOVLB  7
077F2:  MOVWF  x6C
077F4:  MOVLB  0
077F6:  CALL   15AA
....................             write_eeprom(18,Ttrabajo[2]); 
077FA:  CLRF   FAA
077FC:  MOVLW  12
077FE:  MOVWF  FA9
07800:  MOVFF  E0,FA8
07804:  BCF    FA6.6
07806:  BCF    FA6.7
07808:  BSF    FA6.2
0780A:  MOVF   FF2,W
0780C:  MOVWF  00
0780E:  BCF    FF2.6
07810:  BCF    FF2.7
07812:  MOVLB  F
07814:  MOVLW  55
07816:  MOVWF  FA7
07818:  MOVLW  AA
0781A:  MOVWF  FA7
0781C:  BSF    FA6.1
0781E:  BTFSC  FA6.1
07820:  BRA    781E
07822:  BCF    FA6.2
07824:  MOVF   00,W
07826:  IORWF  FF2,F
....................             delay_ms(20); 
07828:  MOVLW  14
0782A:  MOVLB  7
0782C:  MOVWF  x6C
0782E:  MOVLB  0
07830:  CALL   15AA
....................             write_eeprom(19,Ttrabajo[3]); 
07834:  CLRF   FAA
07836:  MOVLW  13
07838:  MOVWF  FA9
0783A:  MOVFF  E1,FA8
0783E:  BCF    FA6.6
07840:  BCF    FA6.7
07842:  BSF    FA6.2
07844:  MOVF   FF2,W
07846:  MOVWF  00
07848:  BCF    FF2.6
0784A:  BCF    FF2.7
0784C:  MOVLB  F
0784E:  MOVLW  55
07850:  MOVWF  FA7
07852:  MOVLW  AA
07854:  MOVWF  FA7
07856:  BSF    FA6.1
07858:  BTFSC  FA6.1
0785A:  BRA    7858
0785C:  BCF    FA6.2
0785E:  MOVF   00,W
07860:  IORWF  FF2,F
....................             delay_ms(20);             
07862:  MOVLW  14
07864:  MOVLB  7
07866:  MOVWF  x6C
07868:  MOVLB  0
0786A:  CALL   15AA
....................          } 
....................          VelocidadMotor(Vel1); 
0786E:  MOVFF  90,758
07872:  CALL   1B50
....................       }else{ 
07876:  BRA    7A02
....................          //Filtro_Downflow=0; 
....................          printf("b2.pic=58"); 
07878:  MOVLW  88
0787A:  MOVWF  FF6
0787C:  MOVLW  03
0787E:  MOVWF  FF7
07880:  MOVLW  00
07882:  MOVWF  FF8
07884:  CALL   1E2E
....................          SendDataDisplay();  
07888:  CALL   1E60
....................          tiempo_trabajo=0; 
0788C:  BCF    x7E.0
....................          VelocidadMotor(0); 
0788E:  MOVLB  7
07890:  CLRF   x58
07892:  MOVLB  0
07894:  CALL   1B50
....................          if(guardatrabajo==0){ 
07898:  BTFSC  x80.1
0789A:  BRA    7A02
....................             guardatrabajo=1; 
0789C:  BSF    x80.1
....................             write_eeprom(37,make8(minutos_trabajo,0)); 
0789E:  MOVFF  CC,758
078A2:  CLRF   FAA
078A4:  MOVLW  25
078A6:  MOVWF  FA9
078A8:  MOVFF  758,FA8
078AC:  BCF    FA6.6
078AE:  BCF    FA6.7
078B0:  BSF    FA6.2
078B2:  MOVF   FF2,W
078B4:  MOVWF  00
078B6:  BCF    FF2.6
078B8:  BCF    FF2.7
078BA:  MOVLB  F
078BC:  MOVLW  55
078BE:  MOVWF  FA7
078C0:  MOVLW  AA
078C2:  MOVWF  FA7
078C4:  BSF    FA6.1
078C6:  BTFSC  FA6.1
078C8:  BRA    78C6
078CA:  BCF    FA6.2
078CC:  MOVF   00,W
078CE:  IORWF  FF2,F
....................             delay_ms(20); 
078D0:  MOVLW  14
078D2:  MOVLB  7
078D4:  MOVWF  x6C
078D6:  MOVLB  0
078D8:  CALL   15AA
....................             write_eeprom(38,make8(minutos_trabajo,1)); 
078DC:  MOVFF  CD,758
078E0:  CLRF   FAA
078E2:  MOVLW  26
078E4:  MOVWF  FA9
078E6:  MOVFF  758,FA8
078EA:  BCF    FA6.6
078EC:  BCF    FA6.7
078EE:  BSF    FA6.2
078F0:  MOVF   FF2,W
078F2:  MOVWF  00
078F4:  BCF    FF2.6
078F6:  BCF    FF2.7
078F8:  MOVLB  F
078FA:  MOVLW  55
078FC:  MOVWF  FA7
078FE:  MOVLW  AA
07900:  MOVWF  FA7
07902:  BSF    FA6.1
07904:  BTFSC  FA6.1
07906:  BRA    7904
07908:  BCF    FA6.2
0790A:  MOVF   00,W
0790C:  IORWF  FF2,F
....................             delay_ms(20); 
0790E:  MOVLW  14
07910:  MOVLB  7
07912:  MOVWF  x6C
07914:  MOVLB  0
07916:  CALL   15AA
....................             write_eeprom(16,Ttrabajo[0]); 
0791A:  CLRF   FAA
0791C:  MOVLW  10
0791E:  MOVWF  FA9
07920:  MOVFF  DE,FA8
07924:  BCF    FA6.6
07926:  BCF    FA6.7
07928:  BSF    FA6.2
0792A:  MOVF   FF2,W
0792C:  MOVWF  00
0792E:  BCF    FF2.6
07930:  BCF    FF2.7
07932:  MOVLB  F
07934:  MOVLW  55
07936:  MOVWF  FA7
07938:  MOVLW  AA
0793A:  MOVWF  FA7
0793C:  BSF    FA6.1
0793E:  BTFSC  FA6.1
07940:  BRA    793E
07942:  BCF    FA6.2
07944:  MOVF   00,W
07946:  IORWF  FF2,F
....................             delay_ms(20); 
07948:  MOVLW  14
0794A:  MOVLB  7
0794C:  MOVWF  x6C
0794E:  MOVLB  0
07950:  CALL   15AA
....................             write_eeprom(17,Ttrabajo[1]); 
07954:  CLRF   FAA
07956:  MOVLW  11
07958:  MOVWF  FA9
0795A:  MOVFF  DF,FA8
0795E:  BCF    FA6.6
07960:  BCF    FA6.7
07962:  BSF    FA6.2
07964:  MOVF   FF2,W
07966:  MOVWF  00
07968:  BCF    FF2.6
0796A:  BCF    FF2.7
0796C:  MOVLB  F
0796E:  MOVLW  55
07970:  MOVWF  FA7
07972:  MOVLW  AA
07974:  MOVWF  FA7
07976:  BSF    FA6.1
07978:  BTFSC  FA6.1
0797A:  BRA    7978
0797C:  BCF    FA6.2
0797E:  MOVF   00,W
07980:  IORWF  FF2,F
....................             delay_ms(20); 
07982:  MOVLW  14
07984:  MOVLB  7
07986:  MOVWF  x6C
07988:  MOVLB  0
0798A:  CALL   15AA
....................             write_eeprom(18,Ttrabajo[2]); 
0798E:  CLRF   FAA
07990:  MOVLW  12
07992:  MOVWF  FA9
07994:  MOVFF  E0,FA8
07998:  BCF    FA6.6
0799A:  BCF    FA6.7
0799C:  BSF    FA6.2
0799E:  MOVF   FF2,W
079A0:  MOVWF  00
079A2:  BCF    FF2.6
079A4:  BCF    FF2.7
079A6:  MOVLB  F
079A8:  MOVLW  55
079AA:  MOVWF  FA7
079AC:  MOVLW  AA
079AE:  MOVWF  FA7
079B0:  BSF    FA6.1
079B2:  BTFSC  FA6.1
079B4:  BRA    79B2
079B6:  BCF    FA6.2
079B8:  MOVF   00,W
079BA:  IORWF  FF2,F
....................             delay_ms(20); 
079BC:  MOVLW  14
079BE:  MOVLB  7
079C0:  MOVWF  x6C
079C2:  MOVLB  0
079C4:  CALL   15AA
....................             write_eeprom(19,Ttrabajo[3]); 
079C8:  CLRF   FAA
079CA:  MOVLW  13
079CC:  MOVWF  FA9
079CE:  MOVFF  E1,FA8
079D2:  BCF    FA6.6
079D4:  BCF    FA6.7
079D6:  BSF    FA6.2
079D8:  MOVF   FF2,W
079DA:  MOVWF  00
079DC:  BCF    FF2.6
079DE:  BCF    FF2.7
079E0:  MOVLB  F
079E2:  MOVLW  55
079E4:  MOVWF  FA7
079E6:  MOVLW  AA
079E8:  MOVWF  FA7
079EA:  BSF    FA6.1
079EC:  BTFSC  FA6.1
079EE:  BRA    79EC
079F0:  BCF    FA6.2
079F2:  MOVF   00,W
079F4:  IORWF  FF2,F
....................             delay_ms(20); 
079F6:  MOVLW  14
079F8:  MOVLB  7
079FA:  MOVWF  x6C
079FC:  MOVLB  0
079FE:  CALL   15AA
....................          } 
....................       } 
....................        
....................       if(flag_toma==1){ // Si activo Toma 
07A02:  BTFSS  x7D.2
07A04:  BRA    7A20
....................          printf("b1.pic=55"); 
07A06:  MOVLW  92
07A08:  MOVWF  FF6
07A0A:  MOVLW  03
07A0C:  MOVWF  FF7
07A0E:  MOVLW  00
07A10:  MOVWF  FF8
07A12:  CALL   1E2E
....................          SendDataDisplay();  
07A16:  CALL   1E60
....................          Toma_on; 
07A1A:  BSF    F8B.1
07A1C:  BCF    F94.1
....................       }else{// Si desactivo Toma         
07A1E:  BRA    7A38
....................          printf("b1.pic=54"); 
07A20:  MOVLW  9C
07A22:  MOVWF  FF6
07A24:  MOVLW  03
07A26:  MOVWF  FF7
07A28:  MOVLW  00
07A2A:  MOVWF  FF8
07A2C:  CALL   1E2E
....................          SendDataDisplay();  
07A30:  CALL   1E60
....................          Toma_off; 
07A34:  BCF    F8B.1
07A36:  BCF    F94.1
....................       } 
.................... } 
07A38:  RETLW  00
....................  
....................  
.................... #int_TIMER1 HIGH 
.................... void temp1s(void){ 
....................    set_timer1(62411);//5ms 
*
003A6:  MOVLW  F3
003A8:  MOVWF  FCF
003AA:  MOVLW  CB
003AC:  MOVWF  FCE
....................    if(ARRIBA) 
003AE:  BSF    F93.4
003B0:  BTFSC  F81.4
003B2:  BRA    03BE
....................       tup++; 
003B4:  MOVLB  2
003B6:  INCF   x78,F
003B8:  BTFSC  FD8.2
003BA:  INCF   x79,F
....................    else 
003BC:  BRA    03C4
....................       tup=0; 
003BE:  MOVLB  2
003C0:  CLRF   x79
003C2:  CLRF   x78
....................         
....................    if(ABAJO) 
003C4:  BSF    F93.5
003C6:  BTFSC  F81.5
003C8:  BRA    03D2
....................       tdown++; 
003CA:  INCF   x7A,F
003CC:  BTFSC  FD8.2
003CE:  INCF   x7B,F
....................    else 
003D0:  BRA    03D6
....................       tdown=0; 
003D2:  CLRF   x7B
003D4:  CLRF   x7A
....................        
....................    if(DERECHA) 
003D6:  BSF    F93.6
003D8:  BTFSC  F81.6
003DA:  BRA    03E4
....................       tright++; 
003DC:  INCF   x7C,F
003DE:  BTFSC  FD8.2
003E0:  INCF   x7D,F
....................    else 
003E2:  BRA    03E8
....................       tright=0; 
003E4:  CLRF   x7D
003E6:  CLRF   x7C
....................      
....................    if(IZQUIERDA) 
003E8:  BSF    F93.7
003EA:  BTFSC  F81.7
003EC:  BRA    03F6
....................       tleft++; 
003EE:  INCF   x7E,F
003F0:  BTFSC  FD8.2
003F2:  INCF   x7F,F
....................    else 
003F4:  BRA    03FA
....................       tleft=0; 
003F6:  CLRF   x7F
003F8:  CLRF   x7E
....................        
....................    tiempos++; 
003FA:  INCF   x76,F
003FC:  BTFSC  FD8.2
003FE:  INCF   x77,F
....................    //if(pulsos>=120){  
....................    if(tiempos>=200){  
00400:  MOVF   x77,F
00402:  BNZ   040A
00404:  MOVF   x76,W
00406:  SUBLW  C7
00408:  BC    047E
....................       tiempos=0; 
0040A:  CLRF   x77
0040C:  CLRF   x76
....................       //pulsos=0; 
....................       imprimir=1;Lectura=1; 
0040E:  MOVLB  0
00410:  BSF    x7D.0
00412:  BSF    x80.2
....................       if(Menu==0 && TipoClave==0) 
00414:  MOVF   x82,F
00416:  BNZ   0422
00418:  MOVF   xAC,F
0041A:  BNZ   0422
....................          tEncendido++; 
0041C:  MOVLB  2
0041E:  INCF   x84,F
00420:  MOVLB  0
....................        
....................       if(flag_blower==1) 
00422:  BTFSS  x7D.1
00424:  BRA    042C
....................          minutos_trabajo++;  
00426:  INCF   xCC,F
00428:  BTFSC  FD8.2
0042A:  INCF   xCD,F
....................    
....................       if(tiempo_purga==1 || Purga){                   
0042C:  BTFSC  x7D.7
0042E:  BRA    0434
00430:  BTFSS  x81.1
00432:  BRA    0440
....................          sPurga++; 
00434:  INCF   xB1,F
....................          if(sPurga>59){ 
00436:  MOVF   xB1,W
00438:  SUBLW  3B
0043A:  BC    0440
....................             sPurga=0; 
0043C:  CLRF   xB1
....................             mPurga++; 
0043E:  INCF   xB3,F
....................          } 
....................       } 
....................        
....................       if(tiempo_postpurga){ 
00440:  BTFSS  x80.3
00442:  BRA    0450
....................          sPPurga++; 
00444:  INCF   xB5,F
....................          if(sPPurga>59){ 
00446:  MOVF   xB5,W
00448:  SUBLW  3B
0044A:  BC    0450
....................             sPPurga=0; 
0044C:  CLRF   xB5
....................             mPPurga++; 
0044E:  INCF   xB7,F
....................          } 
....................       } 
....................     
....................       if(tiempo_uv==1){ 
00450:  BTFSS  x7E.7
00452:  BRA    0466
....................          segundos_uv++; 
00454:  INCF   xC6,F
00456:  BTFSC  FD8.2
00458:  INCF   xC7,F
....................          sUV++; 
0045A:  INCF   xB9,F
....................          if(sUV>59){ 
0045C:  MOVF   xB9,W
0045E:  SUBLW  3B
00460:  BC    0466
....................             sUV=0; 
00462:  CLRF   xB9
....................             mUV++; 
00464:  INCF   xBA,F
....................          } 
....................       } 
....................        
....................       if(silencio){ 
00466:  BTFSS  x81.0
00468:  BRA    0478
....................          sSilencio++; 
0046A:  INCF   xC0,F
....................          if(sSilencio>59){ 
0046C:  MOVF   xC0,W
0046E:  SUBLW  3B
00470:  BC    0476
....................             sSilencio=0; 
00472:  CLRF   xC0
....................             mSilencio++; 
00474:  INCF   xC1,F
....................          } 
....................       }else{ 
00476:  BRA    047C
....................          sSilencio=0; 
00478:  CLRF   xC0
....................          mSilencio=0; 
0047A:  CLRF   xC1
0047C:  MOVLB  2
....................       } 
....................    } 
.................... } 
....................  
0047E:  BCF    F9E.0
00480:  MOVLB  0
00482:  GOTO   00FE
.................... #int_rda  
.................... void serial_rx_isr(){ 
....................    Dato2=fgetc(); 
*
0049E:  BRA    0486
004A0:  MOVFF  01,AA
....................    if(Dato2==0x65){//Inicio Comunicacion 
004A4:  MOVF   xAA,W
004A6:  SUBLW  65
004A8:  BNZ   04B0
....................       Inicio=1; 
004AA:  MOVLW  01
004AC:  MOVWF  xAB
....................       RX_Wr_Index=0; 
004AE:  CLRF   47
....................    } 
....................    if(Inicio==1){ 
004B0:  DECFSZ xAB,W
004B2:  BRA    04C8
....................       Rx_Buffer2[RX_Wr_Index] = Dato2; 
004B4:  CLRF   03
004B6:  MOVF   47,W
004B8:  ADDLW  3C
004BA:  MOVWF  FE9
004BC:  MOVLW  00
004BE:  ADDWFC 03,W
004C0:  MOVWF  FEA
004C2:  MOVFF  AA,FEF
....................       RX_Wr_Index++; 
004C6:  INCF   47,F
....................    } 
....................    if(RX_Wr_Index >= RX_BUFFER_SIZE){ 
004C8:  MOVF   47,W
004CA:  SUBLW  09
004CC:  BC    04D2
....................       RX_Wr_Index =0; 
004CE:  CLRF   47
....................       Inicio=0; 
004D0:  CLRF   xAB
....................    } 
....................    if(RX_Wr_Index==0){ 
004D2:  MOVF   47,F
004D4:  BNZ   04F6
....................       if(Rx_Buffer2[0]==0x65 && Rx_Buffer2[1]==0xff && Rx_Buffer2[2]==0xff && Rx_Buffer2[8]==0x00 && Rx_Buffer2[9]==0xff ) 
004D6:  MOVF   3C,W
004D8:  SUBLW  65
004DA:  BNZ   04F2
004DC:  INCFSZ 3D,W
004DE:  BRA    04F2
004E0:  INCFSZ 3E,W
004E2:  BRA    04F2
004E4:  MOVF   44,F
004E6:  BNZ   04F2
004E8:  INCFSZ 45,W
004EA:  BRA    04F2
....................          Dato_Exitoso=5; 
004EC:  MOVLW  05
004EE:  MOVWF  x99
....................       else 
004F0:  BRA    04F6
....................          Dato_Exitoso=10; 
004F2:  MOVLW  0A
004F4:  MOVWF  x99
....................    } 
....................    //if(Menu==20) 
....................    //  Alarma_on; 
....................       
....................    //output_toggle(PIN_C0);   
.................... } 
....................  
004F6:  BCF    F9E.5
004F8:  GOTO   0068
.................... void main(){ 
*
08918:  CLRF   FF8
0891A:  BSF    F9F.0
0891C:  BCF    F9F.5
0891E:  BSF    FD0.7
08920:  BSF    07.7
08922:  CLRF   FEA
08924:  CLRF   FE9
08926:  BSF    FB8.3
08928:  MOVLW  08
0892A:  MOVWF  FAF
0892C:  MOVLW  02
0892E:  MOVWF  FB0
08930:  MOVLW  A6
08932:  MOVWF  FAC
08934:  MOVLW  90
08936:  MOVWF  FAB
08938:  CLRF   47
0893A:  CLRF   48
0893C:  CLRF   49
0893E:  CLRF   x63
08940:  CLRF   x64
08942:  BCF    x7D.0
08944:  BCF    x7D.1
08946:  BCF    x7D.2
08948:  BCF    x7D.3
0894A:  BCF    x7D.4
0894C:  BCF    x7D.5
0894E:  BCF    x7D.6
08950:  BCF    x7D.7
08952:  BCF    x7E.0
08954:  BCF    x7E.1
08956:  BCF    x7E.2
08958:  BCF    x7E.3
0895A:  BCF    x7E.4
0895C:  BCF    x7E.5
0895E:  BCF    x7E.6
08960:  BCF    x7E.7
08962:  BCF    x7F.0
08964:  BCF    x7F.1
08966:  BCF    x7F.2
08968:  BCF    x7F.3
0896A:  BCF    x7F.4
0896C:  BCF    x7F.5
0896E:  BCF    x7F.6
08970:  BCF    x7F.7
08972:  BCF    x80.0
08974:  BCF    x80.1
08976:  BCF    x80.2
08978:  BCF    x80.3
0897A:  BCF    x80.4
0897C:  BCF    x80.5
0897E:  BCF    x80.6
08980:  BCF    x80.7
08982:  BCF    x81.0
08984:  MOVLW  08
08986:  MOVWF  x82
08988:  MOVLW  01
0898A:  MOVWF  x83
0898C:  MOVLW  0A
0898E:  MOVWF  x84
08990:  CLRF   x85
08992:  CLRF   x86
08994:  CLRF   x87
08996:  CLRF   x88
08998:  CLRF   x89
0899A:  CLRF   x8A
0899C:  CLRF   x8B
0899E:  CLRF   x8C
089A0:  MOVWF  x8D
089A2:  MOVWF  x8E
089A4:  CLRF   x8F
089A6:  MOVLW  32
089A8:  MOVWF  x90
089AA:  MOVWF  x91
089AC:  MOVLW  12
089AE:  MOVWF  x92
089B0:  MOVLW  09
089B2:  MOVWF  x93
089B4:  MOVLW  0D
089B6:  MOVWF  x94
089B8:  CLRF   x95
089BA:  CLRF   x96
089BC:  CLRF   x97
089BE:  CLRF   x98
089C0:  CLRF   x99
089C2:  MOVLW  08
089C4:  MOVWF  x9A
089C6:  CLRF   x9B
089C8:  CLRF   x9C
089CA:  CLRF   x9D
089CC:  CLRF   x9E
089CE:  CLRF   x9F
089D0:  CLRF   xA0
089D2:  CLRF   xA1
089D4:  CLRF   xA2
089D6:  CLRF   xA3
089D8:  CLRF   xA4
089DA:  CLRF   xA5
089DC:  CLRF   xA6
089DE:  CLRF   xA7
089E0:  CLRF   xA8
089E2:  CLRF   xA9
089E4:  CLRF   xAA
089E6:  CLRF   xAB
089E8:  CLRF   xAC
089EA:  CLRF   xAD
089EC:  CLRF   xAE
089EE:  CLRF   xAF
089F0:  MOVLW  3C
089F2:  MOVWF  xB0
089F4:  CLRF   xB1
089F6:  CLRF   xB2
089F8:  CLRF   xB3
089FA:  CLRF   xB4
089FC:  CLRF   xB5
089FE:  CLRF   xB6
08A00:  CLRF   xB7
08A02:  CLRF   xB8
08A04:  CLRF   xB9
08A06:  CLRF   xBA
08A08:  CLRF   xBB
08A0A:  CLRF   xBC
08A0C:  MOVLW  0A
08A0E:  MOVWF  xBD
08A10:  CLRF   xBE
08A12:  CLRF   xBF
08A14:  CLRF   xC0
08A16:  CLRF   xC1
08A18:  CLRF   xC2
08A1A:  CLRF   xC3
08A1C:  CLRF   xC5
08A1E:  CLRF   xC4
08A20:  CLRF   xC7
08A22:  CLRF   xC6
08A24:  CLRF   xC9
08A26:  CLRF   xC8
08A28:  CLRF   xCB
08A2A:  CLRF   xCA
08A2C:  CLRF   xCD
08A2E:  CLRF   xCC
08A30:  CLRF   xCF
08A32:  CLRF   xCE
08A34:  CLRF   xD1
08A36:  CLRF   xD0
08A38:  CLRF   xD3
08A3A:  CLRF   xD2
08A3C:  CLRF   xD5
08A3E:  CLRF   xD4
08A40:  CLRF   xD7
08A42:  CLRF   xD6
08A44:  CLRF   xD9
08A46:  CLRF   xD8
08A48:  CLRF   xED
08A4A:  CLRF   xEC
08A4C:  CLRF   xEB
08A4E:  CLRF   xEA
08A50:  CLRF   xF1
08A52:  CLRF   xF0
08A54:  CLRF   xEF
08A56:  CLRF   xEE
08A58:  CLRF   xF5
08A5A:  CLRF   xF4
08A5C:  CLRF   xF3
08A5E:  CLRF   xF2
08A60:  CLRF   xF9
08A62:  CLRF   xF8
08A64:  CLRF   xF7
08A66:  CLRF   xF6
08A68:  CLRF   xFD
08A6A:  CLRF   xFC
08A6C:  CLRF   xFB
08A6E:  CLRF   xFA
08A70:  MOVLB  1
08A72:  CLRF   x01
08A74:  CLRF   x00
08A76:  MOVLB  0
08A78:  CLRF   xFF
08A7A:  CLRF   xFE
08A7C:  MOVLB  1
08A7E:  CLRF   x05
08A80:  CLRF   x04
08A82:  CLRF   x03
08A84:  CLRF   x02
08A86:  CLRF   x09
08A88:  CLRF   x08
08A8A:  CLRF   x07
08A8C:  CLRF   x06
08A8E:  CLRF   x0D
08A90:  CLRF   x0C
08A92:  CLRF   x0B
08A94:  CLRF   x0A
08A96:  CLRF   x11
08A98:  CLRF   x10
08A9A:  CLRF   x0F
08A9C:  CLRF   x0E
08A9E:  CLRF   x15
08AA0:  CLRF   x14
08AA2:  CLRF   x13
08AA4:  CLRF   x12
08AA6:  CLRF   x19
08AA8:  CLRF   x18
08AAA:  CLRF   x17
08AAC:  CLRF   x16
08AAE:  CLRF   x1D
08AB0:  CLRF   x1C
08AB2:  CLRF   x1B
08AB4:  CLRF   x1A
08AB6:  CLRF   x21
08AB8:  CLRF   x20
08ABA:  CLRF   x1F
08ABC:  CLRF   x1E
08ABE:  CLRF   x25
08AC0:  CLRF   x24
08AC2:  CLRF   x23
08AC4:  CLRF   x22
08AC6:  CLRF   x29
08AC8:  CLRF   x28
08ACA:  CLRF   x27
08ACC:  CLRF   x26
08ACE:  CLRF   x2D
08AD0:  CLRF   x2C
08AD2:  CLRF   x2B
08AD4:  CLRF   x2A
08AD6:  CLRF   x31
08AD8:  CLRF   x30
08ADA:  CLRF   x2F
08ADC:  CLRF   x2E
08ADE:  CLRF   x35
08AE0:  CLRF   x34
08AE2:  CLRF   x33
08AE4:  CLRF   x32
08AE6:  CLRF   x39
08AE8:  CLRF   x38
08AEA:  CLRF   x37
08AEC:  CLRF   x36
08AEE:  CLRF   x3D
08AF0:  CLRF   x3C
08AF2:  CLRF   x3B
08AF4:  CLRF   x3A
08AF6:  MOVLW  44
08AF8:  MOVWF  x41
08AFA:  MOVLW  8B
08AFC:  MOVWF  x40
08AFE:  MOVLW  10
08B00:  MOVWF  x3F
08B02:  MOVLW  80
08B04:  MOVWF  x3E
08B06:  MOVLW  4F
08B08:  MOVWF  x45
08B0A:  MOVLW  AF
08B0C:  MOVWF  x44
08B0E:  MOVLW  C0
08B10:  MOVWF  x43
08B12:  MOVLW  81
08B14:  MOVWF  x42
08B16:  MOVLW  3F
08B18:  MOVWF  x49
08B1A:  MOVLW  35
08B1C:  MOVWF  x48
08B1E:  MOVLW  01
08B20:  MOVWF  x47
08B22:  MOVLW  83
08B24:  MOVWF  x46
08B26:  MOVLW  06
08B28:  MOVWF  x4D
08B2A:  MOVLW  81
08B2C:  MOVWF  x4C
08B2E:  MOVLW  41
08B30:  MOVWF  x4B
08B32:  MOVLW  82
08B34:  MOVWF  x4A
08B36:  MOVLW  B8
08B38:  MOVWF  x51
08B3A:  MOVLW  1E
08B3C:  MOVWF  x50
08B3E:  MOVLW  BE
08B40:  MOVWF  x4F
08B42:  MOVLW  83
08B44:  MOVWF  x4E
08B46:  MOVLB  2
08B48:  CLRF   x3D
08B4A:  CLRF   x3C
08B4C:  MOVLW  47
08B4E:  MOVWF  x3B
08B50:  MOVLW  86
08B52:  MOVWF  x3A
08B54:  CLRF   x41
08B56:  CLRF   x40
08B58:  CLRF   x3F
08B5A:  CLRF   x3E
08B5C:  MOVLW  85
08B5E:  MOVWF  x45
08B60:  MOVLW  EB
08B62:  MOVWF  x44
08B64:  MOVLW  11
08B66:  MOVWF  x43
08B68:  MOVLW  7E
08B6A:  MOVWF  x42
08B6C:  CLRF   x49
08B6E:  CLRF   x48
08B70:  CLRF   x47
08B72:  CLRF   x46
08B74:  CLRF   x4D
08B76:  CLRF   x4C
08B78:  CLRF   x4B
08B7A:  MOVLW  80
08B7C:  MOVWF  x4A
08B7E:  CLRF   x51
08B80:  CLRF   x50
08B82:  MOVLW  0E
08B84:  MOVWF  x4F
08B86:  MOVLW  85
08B88:  MOVWF  x4E
08B8A:  CLRF   x55
08B8C:  CLRF   x54
08B8E:  MOVLW  20
08B90:  MOVWF  x53
08B92:  MOVLW  83
08B94:  MOVWF  x52
08B96:  CLRF   x59
08B98:  CLRF   x58
08B9A:  CLRF   x57
08B9C:  CLRF   x56
08B9E:  CLRF   x5D
08BA0:  CLRF   x5C
08BA2:  MOVLW  70
08BA4:  MOVWF  x5B
08BA6:  MOVLW  84
08BA8:  MOVWF  x5A
08BAA:  CLRF   x61
08BAC:  CLRF   x60
08BAE:  CLRF   x5F
08BB0:  CLRF   x5E
08BB2:  CLRF   x65
08BB4:  CLRF   x64
08BB6:  CLRF   x63
08BB8:  CLRF   x62
08BBA:  CLRF   x69
08BBC:  CLRF   x68
08BBE:  CLRF   x67
08BC0:  CLRF   x66
08BC2:  CLRF   x6D
08BC4:  CLRF   x6C
08BC6:  CLRF   x6B
08BC8:  MOVLW  7F
08BCA:  MOVWF  x6A
08BCC:  CLRF   x71
08BCE:  CLRF   x70
08BD0:  CLRF   x6F
08BD2:  CLRF   x6E
08BD4:  CLRF   x75
08BD6:  CLRF   x74
08BD8:  CLRF   x73
08BDA:  CLRF   x72
08BDC:  CLRF   x77
08BDE:  CLRF   x76
08BE0:  CLRF   x79
08BE2:  CLRF   x78
08BE4:  CLRF   x7B
08BE6:  CLRF   x7A
08BE8:  CLRF   x7D
08BEA:  CLRF   x7C
08BEC:  CLRF   x7F
08BEE:  CLRF   x7E
08BF0:  CLRF   x80
08BF2:  CLRF   x81
08BF4:  CLRF   x82
08BF6:  CLRF   x83
08BF8:  CLRF   x84
08BFA:  MOVLB  0
08BFC:  BCF    x81.1
08BFE:  MOVLB  2
08C00:  CLRF   x85
08C02:  CLRF   x86
08C04:  MOVLW  0A
08C06:  MOVWF  x87
08C08:  MOVLB  3
08C0A:  CLRF   x0C
08C0C:  CLRF   x0D
08C0E:  CLRF   x0E
08C10:  MOVLW  1B
08C12:  MOVLB  7
08C14:  MOVWF  x4F
08C16:  MOVLW  10
08C18:  MOVWF  x4E
08C1A:  MOVLW  E1
08C1C:  MOVWF  x4D
08C1E:  MOVLW  7A
08C20:  MOVWF  x4C
08C22:  MOVLW  88
08C24:  MOVWF  x53
08C26:  MOVLW  2E
08C28:  MOVWF  x52
08C2A:  MOVLW  10
08C2C:  MOVWF  x51
08C2E:  MOVLW  7E
08C30:  MOVWF  x50
08C32:  MOVLW  62
08C34:  MOVWF  x57
08C36:  MOVLW  F8
08C38:  MOVWF  x56
08C3A:  MOVLW  E8
08C3C:  MOVWF  x55
08C3E:  MOVLW  7D
08C40:  MOVWF  x54
08C42:  MOVF   FC1,W
08C44:  ANDLW  C0
08C46:  IORLW  0F
08C48:  MOVWF  FC1
08C4A:  MOVLW  07
08C4C:  MOVWF  FB4
08C4E:  CLRF   2A
08C50:  CLRF   2B
08C52:  CLRF   2C
08C54:  MOVLB  0
08C56:  CLRF   x65
08C58:  MOVLW  03
08C5A:  MOVWF  x66
08C5C:  MOVWF  x67
08C5E:  MOVLW  06
08C60:  MOVWF  x68
08C62:  MOVLW  01
08C64:  MOVWF  x69
08C66:  MOVLW  04
08C68:  MOVWF  x6A
08C6A:  MOVLW  06
08C6C:  MOVWF  x6B
08C6E:  MOVLW  02
08C70:  MOVWF  x6C
08C72:  MOVLW  05
08C74:  MOVWF  x6D
08C76:  CLRF   x6E
08C78:  MOVLW  03
08C7A:  MOVWF  x6F
08C7C:  MOVLW  05
08C7E:  MOVWF  x70
08C80:  CLRF   x71
08C82:  MOVLW  03
08C84:  MOVWF  x72
08C86:  MOVLW  04
08C88:  MOVWF  x73
08C8A:  CLRF   x74
08C8C:  MOVLW  02
08C8E:  MOVWF  x75
08C90:  MOVLW  05
08C92:  MOVWF  x76
08C94:  CLRF   x77
08C96:  MOVLW  03
08C98:  MOVWF  x78
08C9A:  MOVLW  06
08C9C:  MOVWF  x79
08C9E:  MOVLW  01
08CA0:  MOVWF  x7A
08CA2:  MOVLW  04
08CA4:  MOVWF  x7B
08CA6:  MOVLW  06
08CA8:  MOVWF  x7C
08CAA:  CLRF   xDA
08CAC:  CLRF   xDB
08CAE:  CLRF   xDC
08CB0:  CLRF   xDD
08CB2:  CLRF   xDE
08CB4:  CLRF   xDF
08CB6:  CLRF   xE0
08CB8:  CLRF   xE1
08CBA:  CLRF   xE2
08CBC:  CLRF   xE3
08CBE:  CLRF   xE4
08CC0:  CLRF   xE5
08CC2:  CLRF   xE6
08CC4:  CLRF   xE7
08CC6:  CLRF   xE8
08CC8:  CLRF   xE9
08CCA:  MOVLB  1
08CCC:  CLRF   x52
08CCE:  CLRF   x53
08CD0:  CLRF   x54
08CD2:  CLRF   x55
08CD4:  CLRF   x56
08CD6:  CLRF   x57
08CD8:  CLRF   x58
08CDA:  CLRF   x59
08CDC:  CLRF   x5A
08CDE:  CLRF   x5B
08CE0:  CLRF   x5C
08CE2:  CLRF   x5D
08CE4:  CLRF   x5E
08CE6:  CLRF   x5F
08CE8:  CLRF   x60
08CEA:  CLRF   x61
08CEC:  CLRF   x62
08CEE:  CLRF   x63
08CF0:  CLRF   x64
08CF2:  CLRF   x65
08CF4:  CLRF   x66
08CF6:  CLRF   x67
08CF8:  CLRF   x68
08CFA:  CLRF   x69
08CFC:  CLRF   x6A
08CFE:  CLRF   x6B
08D00:  CLRF   x6C
08D02:  CLRF   x6D
08D04:  CLRF   x6E
08D06:  CLRF   x6F
08D08:  CLRF   x70
08D0A:  CLRF   x71
08D0C:  CLRF   x72
08D0E:  CLRF   x73
08D10:  CLRF   x74
08D12:  CLRF   x75
08D14:  CLRF   x76
08D16:  CLRF   x77
08D18:  CLRF   x78
08D1A:  CLRF   x79
08D1C:  CLRF   x7A
08D1E:  CLRF   x7B
08D20:  CLRF   x7C
08D22:  CLRF   x7D
08D24:  CLRF   x7E
08D26:  CLRF   x7F
08D28:  CLRF   x80
08D2A:  CLRF   x81
08D2C:  CLRF   x82
08D2E:  CLRF   x83
08D30:  CLRF   x84
08D32:  CLRF   x85
08D34:  CLRF   x86
08D36:  CLRF   x87
08D38:  CLRF   x88
08D3A:  CLRF   x89
08D3C:  CLRF   x8A
08D3E:  CLRF   x8B
08D40:  CLRF   x8C
08D42:  CLRF   x8D
08D44:  CLRF   x8E
08D46:  CLRF   x8F
08D48:  CLRF   x90
08D4A:  CLRF   x91
08D4C:  CLRF   x92
08D4E:  CLRF   x93
08D50:  CLRF   x94
08D52:  CLRF   x95
08D54:  CLRF   x96
08D56:  CLRF   x97
08D58:  CLRF   x98
08D5A:  CLRF   x99
08D5C:  CLRF   x9A
08D5E:  CLRF   x9B
08D60:  CLRF   x9C
08D62:  CLRF   x9D
08D64:  CLRF   x9E
08D66:  CLRF   x9F
08D68:  CLRF   xA0
08D6A:  CLRF   xA1
08D6C:  CLRF   xA2
08D6E:  CLRF   xA3
08D70:  CLRF   xA4
08D72:  CLRF   xA5
08D74:  CLRF   xA6
08D76:  CLRF   xA7
08D78:  CLRF   xA8
08D7A:  CLRF   xA9
08D7C:  CLRF   xAA
08D7E:  CLRF   xAB
08D80:  CLRF   xAC
08D82:  CLRF   xAD
08D84:  CLRF   xAE
08D86:  CLRF   xAF
08D88:  CLRF   xB0
08D8A:  CLRF   xB1
08D8C:  CLRF   xB2
08D8E:  CLRF   xB3
08D90:  CLRF   xB4
08D92:  CLRF   xB5
08D94:  CLRF   xB6
08D96:  CLRF   xB7
08D98:  CLRF   xB8
08D9A:  CLRF   xB9
08D9C:  CLRF   xBA
08D9E:  CLRF   xBB
08DA0:  CLRF   xBC
08DA2:  CLRF   xBD
08DA4:  CLRF   xBE
08DA6:  CLRF   xBF
08DA8:  CLRF   xC0
08DAA:  CLRF   xC1
08DAC:  CLRF   xC2
08DAE:  CLRF   xC3
08DB0:  CLRF   xC4
08DB2:  CLRF   xC5
08DB4:  CLRF   xC6
08DB6:  CLRF   xC7
08DB8:  CLRF   xC8
08DBA:  CLRF   xC9
08DBC:  CLRF   xCA
08DBE:  CLRF   xCB
08DC0:  CLRF   xCC
08DC2:  CLRF   xCD
08DC4:  CLRF   xCE
08DC6:  CLRF   xCF
08DC8:  CLRF   xD0
08DCA:  CLRF   xD1
08DCC:  CLRF   xD2
08DCE:  CLRF   xD3
08DD0:  CLRF   xD4
08DD2:  CLRF   xD5
08DD4:  CLRF   xD6
08DD6:  CLRF   xD7
08DD8:  CLRF   xD8
08DDA:  CLRF   xD9
08DDC:  CLRF   xDA
08DDE:  CLRF   xDB
08DE0:  CLRF   xDC
08DE2:  CLRF   xDD
08DE4:  CLRF   xDE
08DE6:  CLRF   xDF
08DE8:  CLRF   xE0
08DEA:  CLRF   xE1
08DEC:  CLRF   xE2
08DEE:  CLRF   xE3
08DF0:  CLRF   xE4
08DF2:  CLRF   xE5
08DF4:  CLRF   xE6
08DF6:  CLRF   xE7
08DF8:  CLRF   xE8
08DFA:  CLRF   xE9
08DFC:  CLRF   xEA
08DFE:  CLRF   xEB
08E00:  CLRF   xEC
08E02:  CLRF   xED
08E04:  CLRF   xEE
08E06:  CLRF   xEF
08E08:  CLRF   xF0
08E0A:  CLRF   xF1
08E0C:  CLRF   xF2
08E0E:  CLRF   xF3
08E10:  CLRF   xF4
08E12:  CLRF   xF5
08E14:  CLRF   xF6
08E16:  CLRF   xF7
08E18:  CLRF   xF8
08E1A:  CLRF   xF9
08E1C:  CLRF   xFA
08E1E:  CLRF   xFB
08E20:  CLRF   xFC
08E22:  CLRF   xFD
08E24:  CLRF   xFE
08E26:  CLRF   xFF
08E28:  MOVLB  2
08E2A:  CLRF   x00
08E2C:  CLRF   x01
08E2E:  CLRF   x02
08E30:  CLRF   x03
08E32:  CLRF   x04
08E34:  CLRF   x05
08E36:  CLRF   x06
08E38:  CLRF   x07
08E3A:  CLRF   x08
08E3C:  CLRF   x09
08E3E:  CLRF   x0A
08E40:  CLRF   x0B
08E42:  CLRF   x0C
08E44:  CLRF   x0D
08E46:  CLRF   x0E
08E48:  CLRF   x0F
08E4A:  CLRF   x10
08E4C:  CLRF   x11
....................    Display_off; 
08E4E:  BCF    F8C.5
08E50:  BCF    F95.5
....................    enable_interrupts(int_rda); 
08E52:  BSF    F9D.5
....................    enable_interrupts(global); 
08E54:  MOVLW  C0
08E56:  IORWF  FF2,F
....................    setup_timer_1(T1_INTERNAL|T1_DIV_BY_8); 
08E58:  MOVLW  B5
08E5A:  MOVWF  FCD
....................    enable_interrupts(INT_TIMER1); 
08E5C:  BSF    F9D.0
....................    setup_wdt(WDT_ON); 
08E5E:  BSF    FD1.0
....................    setup_adc_ports(AN0_TO_AN4); 
08E60:  MOVF   FC1,W
08E62:  ANDLW  C0
08E64:  IORLW  0A
08E66:  MOVWF  FC1
....................    setup_adc(ADC_CLOCK_DIV_32); 
08E68:  MOVF   FC0,W
08E6A:  ANDLW  C0
08E6C:  IORLW  02
08E6E:  MOVWF  FC0
08E70:  BSF    FC0.7
08E72:  BSF    FC2.0
....................    //port_b_pullups(true); 
....................    setup_wdt(WDT_ON); 
08E74:  BSF    FD1.0
....................    VelMotor=0; 
08E76:  CLRF   x85
....................    VelMotor2=0; 
08E78:  CLRF   x86
....................    VelocidadMotor(0); 
08E7A:  MOVLB  7
08E7C:  CLRF   x58
08E7E:  MOVLB  0
08E80:  CALL   1B50
....................    Motor_off;   
08E84:  BCF    F8B.3
08E86:  BCF    F94.3
....................    delay_ms(1); 
08E88:  MOVLW  01
08E8A:  MOVLB  7
08E8C:  MOVWF  x6C
08E8E:  MOVLB  0
08E90:  CALL   15AA
....................    rtc_init();   
08E94:  GOTO   1DDC
....................    printf("page Off"); 
08E98:  MOVLW  FC
08E9A:  MOVWF  FF6
08E9C:  MOVLW  04
08E9E:  MOVWF  FF7
08EA0:  MOVLW  00
08EA2:  MOVWF  FF8
08EA4:  CALL   1E2E
....................    SendDataDisplay();    
08EA8:  CALL   1E60
....................    Motor_off; 
08EAC:  BCF    F8B.3
08EAE:  BCF    F94.3
....................    LuzBlanca_off;Alarma_off; 
08EB0:  BSF    F8C.0
08EB2:  BCF    F95.0
08EB4:  BCF    F8B.0
08EB6:  BCF    F94.0
.................... //-------Inicio de Cabina-------------------------------------------------------------------------//    
....................    Motor2_off; 
08EB8:  BCF    F8B.2
08EBA:  BCF    F94.2
....................    LeeEEPROM(); // Lectura de variables almacenadas en la EEPROM  
08EBC:  GOTO   210E
....................    LimitaValores(); 
08EC0:  GOTO   2FA0
....................    delay_ms(100); 
08EC4:  MOVLW  64
08EC6:  MOVLB  7
08EC8:  MOVWF  x6C
08ECA:  MOVLB  0
08ECC:  CALL   15AA
....................    LeerBotones(); 
08ED0:  CALL   3EB4
....................    UP=OFF;DOWN=OFF;RIGHT=OFF;LEFT=OFF; 
08ED4:  BCF    x7F.3
08ED6:  BCF    x7F.4
08ED8:  BCF    x7F.5
08EDA:  BCF    x7F.6
....................    Display_off; 
08EDC:  BCF    F8C.5
08EDE:  BCF    F95.5
....................    Menu=8; 
08EE0:  MOVLW  08
08EE2:  MOVWF  x82
....................    Presion[3].AjustePresion=1.00; 
08EE4:  MOVLB  6
08EE6:  CLRF   x87
08EE8:  CLRF   x86
08EEA:  CLRF   x85
08EEC:  MOVLW  7F
08EEE:  MOVWF  x84
....................     
....................    while(true){  
....................       LeerBotones();  
08EF0:  MOVLB  0
08EF2:  CALL   3EB4
....................       restart_wdt(); 
08EF6:  CLRWDT
....................       LeeDisplay(); 
08EF8:  GOTO   3EFA
....................     
.................... //**Actualizacin de Lectura de Sensores**//    
....................    if(Lectura==1){ 
08EFC:  BTFSS  x80.2
08EFE:  BRA    9104
....................       Lectura=0; 
08F00:  BCF    x80.2
....................       rtc_get_date(Dia,Mes,Year,dow); 
....................       rtc_get_time(Hora,Minuto,Segundo); 
....................       Exhaust=LeerFlujo(10,1);     
*
08FC6:  MOVLW  0A
08FC8:  MOVLB  7
08FCA:  MOVWF  x58
08FCC:  MOVLW  01
08FCE:  MOVWF  x59
08FD0:  MOVLB  0
08FD2:  GOTO   528E
08FD6:  MOVFF  03,10D
08FDA:  MOVFF  02,10C
08FDE:  MOVFF  01,10B
08FE2:  MOVFF  00,10A
....................       VInflow=Exhaust; 
08FE6:  MOVFF  10D,101
08FEA:  MOVFF  10C,100
08FEE:  MOVFF  10B,FF
08FF2:  MOVFF  10A,FE
....................        
....................       if(VInflow<0) 
08FF6:  MOVFF  101,79B
08FFA:  MOVFF  100,79A
08FFE:  MOVFF  FF,799
09002:  MOVFF  FE,798
09006:  MOVLB  7
09008:  CLRF   x9F
0900A:  CLRF   x9E
0900C:  CLRF   x9D
0900E:  CLRF   x9C
09010:  MOVLB  0
09012:  CALL   2F26
09016:  BNC   9024
....................          VInflow=0; 
09018:  MOVLB  1
0901A:  CLRF   x01
0901C:  CLRF   x00
0901E:  MOVLB  0
09020:  CLRF   xFF
09022:  CLRF   xFE
....................           
....................       DownFlow=VInFlow;    
09024:  MOVFF  101,F1
09028:  MOVFF  100,F0
0902C:  MOVFF  FF,EF
09030:  MOVFF  FE,EE
....................       Filtro_InFlow=Leer_Sensor_Presion(10,3);//Esta seria la presion de los prefiltros 
09034:  MOVLW  0A
09036:  MOVLB  7
09038:  MOVWF  x58
0903A:  MOVLW  03
0903C:  MOVWF  x59
0903E:  MOVLB  0
09040:  CALL   5D02
09044:  MOVFF  03,F9
09048:  MOVFF  02,F8
0904C:  MOVFF  01,F7
09050:  MOVFF  00,F6
....................       Filtro_DownFlow=Leer_Sensor_Presion(10,4); 
09054:  MOVLW  0A
09056:  MOVLB  7
09058:  MOVWF  x58
0905A:  MOVLW  04
0905C:  MOVWF  x59
0905E:  MOVLB  0
09060:  CALL   5D02
09064:  MOVFF  03,F5
09068:  MOVFF  02,F4
0906C:  MOVFF  01,F3
09070:  MOVFF  00,F2
....................       Temperatura=leeTemperatura(5); 
09074:  MOVLW  05
09076:  MOVLB  7
09078:  MOVWF  x58
0907A:  MOVLB  0
0907C:  GOTO   65DE
09080:  MOVFF  03,79B
09084:  MOVFF  02,79A
09088:  MOVFF  01,799
0908C:  MOVFF  00,798
09090:  CALL   1B14
09094:  MOVFF  01,283
....................       if(Alarma==5 || Alarma2==5){ 
09098:  MOVF   x8D,W
0909A:  SUBLW  05
0909C:  BZ    90A4
0909E:  MOVF   x8E,W
090A0:  SUBLW  05
090A2:  BNZ   90CC
....................          if(flag_alarma2==0){ 
090A4:  BTFSC  x7D.6
090A6:  BRA    90C2
....................             if(!silencio){ 
090A8:  BTFSC  x81.0
090AA:  BRA    90B6
....................                Alarma_on; 
090AC:  BSF    F8B.0
090AE:  BCF    F94.0
....................                Aux_on; 
090B0:  BCF    F8C.2
090B2:  BCF    F95.2
....................             }else{ 
090B4:  BRA    90BE
....................                Alarma_off;    
090B6:  BCF    F8B.0
090B8:  BCF    F94.0
....................                Aux_off; 
090BA:  BSF    F8C.2
090BC:  BCF    F95.2
....................             } 
....................             flag_alarma2=1; 
090BE:  BSF    x7D.6
....................          }else{ 
090C0:  BRA    90CC
....................             Alarma_off; 
090C2:  BCF    F8B.0
090C4:  BCF    F94.0
....................             Aux_off; 
090C6:  BSF    F8C.2
090C8:  BCF    F95.2
....................             flag_alarma2=0; 
090CA:  BCF    x7D.6
....................          } 
....................       } 
....................        
....................       if(sSilencio>=sSilenciop && mSilencio>=mSilenciop) 
090CC:  MOVF   xC2,W
090CE:  SUBWF  xC0,W
090D0:  BNC   90DA
090D2:  MOVF   xC3,W
090D4:  SUBWF  xC1,W
090D6:  BNC   90DA
....................          silencio=OFF; 
090D8:  BCF    x81.0
....................        
....................       if(Alarma==10 && Alarma2==10){ 
090DA:  MOVF   x8D,W
090DC:  SUBLW  0A
090DE:  BNZ   90EE
090E0:  MOVF   x8E,W
090E2:  SUBLW  0A
090E4:  BNZ   90EE
....................          Alarma_off; 
090E6:  BCF    F8B.0
090E8:  BCF    F94.0
....................          Aux_off; 
090EA:  BSF    F8C.2
090EC:  BCF    F95.2
....................       } 
....................        
....................       if(flag_latencia==1)    
090EE:  BTFSS  x7E.1
090F0:  BRA    90F8
....................          t_latencia++;          
090F2:  INCF   xC8,F
090F4:  BTFSC  FD8.2
090F6:  INCF   xC9,F
....................     
....................       if(t_latencia>=15) 
090F8:  MOVF   xC9,F
090FA:  BNZ   9102
090FC:  MOVF   xC8,W
090FE:  SUBLW  0E
09100:  BC    9104
....................          Latencia=1; 
09102:  BSF    x7E.6
....................    } 
.................... //----------------------------------------// 
....................  
.................... //**Contador de Tiempo de Trabajo del filtro**// 
....................    if(minutos_trabajo>=3600){ // Tiempo de Trabajo 
09104:  MOVF   xCD,W
09106:  SUBLW  0D
09108:  BTFSC  FD8.0
0910A:  BRA    92BA
0910C:  XORLW  FF
0910E:  BNZ   9118
09110:  MOVF   xCC,W
09112:  SUBLW  0F
09114:  BTFSC  FD8.0
09116:  BRA    92BA
....................       minutos_trabajo=0; //Minutos Trabajo realmente son segundos. 
09118:  CLRF   xCD
0911A:  CLRF   xCC
....................       write_eeprom(37,make8(minutos_trabajo,0)); 
0911C:  MOVFF  CC,758
09120:  CLRF   FAA
09122:  MOVLW  25
09124:  MOVWF  FA9
09126:  MOVFF  758,FA8
0912A:  BCF    FA6.6
0912C:  BCF    FA6.7
0912E:  BSF    FA6.2
09130:  MOVF   FF2,W
09132:  MOVWF  00
09134:  BCF    FF2.6
09136:  BCF    FF2.7
09138:  MOVLB  F
0913A:  MOVLW  55
0913C:  MOVWF  FA7
0913E:  MOVLW  AA
09140:  MOVWF  FA7
09142:  BSF    FA6.1
09144:  BTFSC  FA6.1
09146:  BRA    9144
09148:  BCF    FA6.2
0914A:  MOVF   00,W
0914C:  IORWF  FF2,F
....................       delay_ms(20); 
0914E:  MOVLW  14
09150:  MOVLB  7
09152:  MOVWF  x6C
09154:  MOVLB  0
09156:  CALL   15AA
....................       write_eeprom(38,make8(minutos_trabajo,1)); 
0915A:  MOVFF  CD,758
0915E:  CLRF   FAA
09160:  MOVLW  26
09162:  MOVWF  FA9
09164:  MOVFF  758,FA8
09168:  BCF    FA6.6
0916A:  BCF    FA6.7
0916C:  BSF    FA6.2
0916E:  MOVF   FF2,W
09170:  MOVWF  00
09172:  BCF    FF2.6
09174:  BCF    FF2.7
09176:  MOVLB  F
09178:  MOVLW  55
0917A:  MOVWF  FA7
0917C:  MOVLW  AA
0917E:  MOVWF  FA7
09180:  BSF    FA6.1
09182:  BTFSC  FA6.1
09184:  BRA    9182
09186:  BCF    FA6.2
09188:  MOVF   00,W
0918A:  IORWF  FF2,F
....................       delay_ms(20); 
0918C:  MOVLW  14
0918E:  MOVLB  7
09190:  MOVWF  x6C
09192:  MOVLB  0
09194:  CALL   15AA
....................       Ttrabajo[0]++; 
09198:  INCF   xDE,F
....................       if(Ttrabajo[0]>9){ 
0919A:  BTFSC  xDE.7
0919C:  BRA    91A8
0919E:  MOVF   xDE,W
091A0:  SUBLW  09
091A2:  BC    91A8
....................          Ttrabajo[0]=0; 
091A4:  CLRF   xDE
....................          Ttrabajo[1]++; 
091A6:  INCF   xDF,F
....................       } 
....................       if(Ttrabajo[1]>9){ 
091A8:  BTFSC  xDF.7
091AA:  BRA    91B6
091AC:  MOVF   xDF,W
091AE:  SUBLW  09
091B0:  BC    91B6
....................          Ttrabajo[1]=0; 
091B2:  CLRF   xDF
....................          Ttrabajo[2]++; 
091B4:  INCF   xE0,F
....................       } 
....................       if(Ttrabajo[2]>9){ 
091B6:  BTFSC  xE0.7
091B8:  BRA    91C4
091BA:  MOVF   xE0,W
091BC:  SUBLW  09
091BE:  BC    91C4
....................          Ttrabajo[2]=0; 
091C0:  CLRF   xE0
....................          Ttrabajo[3]++; 
091C2:  INCF   xE1,F
....................       } 
....................       if(Ttrabajo[3]>9){ 
091C4:  BTFSC  xE1.7
091C6:  BRA    91D0
091C8:  MOVF   xE1,W
091CA:  SUBLW  09
091CC:  BC    91D0
....................          Ttrabajo[3]=0; 
091CE:  CLRF   xE1
....................       } 
....................       write_eeprom(16,Ttrabajo[0]); 
091D0:  CLRF   FAA
091D2:  MOVLW  10
091D4:  MOVWF  FA9
091D6:  MOVFF  DE,FA8
091DA:  BCF    FA6.6
091DC:  BCF    FA6.7
091DE:  BSF    FA6.2
091E0:  MOVF   FF2,W
091E2:  MOVWF  00
091E4:  BCF    FF2.6
091E6:  BCF    FF2.7
091E8:  MOVLB  F
091EA:  MOVLW  55
091EC:  MOVWF  FA7
091EE:  MOVLW  AA
091F0:  MOVWF  FA7
091F2:  BSF    FA6.1
091F4:  BTFSC  FA6.1
091F6:  BRA    91F4
091F8:  BCF    FA6.2
091FA:  MOVF   00,W
091FC:  IORWF  FF2,F
....................       delay_ms(20); 
091FE:  MOVLW  14
09200:  MOVLB  7
09202:  MOVWF  x6C
09204:  MOVLB  0
09206:  CALL   15AA
....................       write_eeprom(17,Ttrabajo[1]); 
0920A:  CLRF   FAA
0920C:  MOVLW  11
0920E:  MOVWF  FA9
09210:  MOVFF  DF,FA8
09214:  BCF    FA6.6
09216:  BCF    FA6.7
09218:  BSF    FA6.2
0921A:  MOVF   FF2,W
0921C:  MOVWF  00
0921E:  BCF    FF2.6
09220:  BCF    FF2.7
09222:  MOVLB  F
09224:  MOVLW  55
09226:  MOVWF  FA7
09228:  MOVLW  AA
0922A:  MOVWF  FA7
0922C:  BSF    FA6.1
0922E:  BTFSC  FA6.1
09230:  BRA    922E
09232:  BCF    FA6.2
09234:  MOVF   00,W
09236:  IORWF  FF2,F
....................       delay_ms(20); 
09238:  MOVLW  14
0923A:  MOVLB  7
0923C:  MOVWF  x6C
0923E:  MOVLB  0
09240:  CALL   15AA
....................       write_eeprom(18,Ttrabajo[2]); 
09244:  CLRF   FAA
09246:  MOVLW  12
09248:  MOVWF  FA9
0924A:  MOVFF  E0,FA8
0924E:  BCF    FA6.6
09250:  BCF    FA6.7
09252:  BSF    FA6.2
09254:  MOVF   FF2,W
09256:  MOVWF  00
09258:  BCF    FF2.6
0925A:  BCF    FF2.7
0925C:  MOVLB  F
0925E:  MOVLW  55
09260:  MOVWF  FA7
09262:  MOVLW  AA
09264:  MOVWF  FA7
09266:  BSF    FA6.1
09268:  BTFSC  FA6.1
0926A:  BRA    9268
0926C:  BCF    FA6.2
0926E:  MOVF   00,W
09270:  IORWF  FF2,F
....................       delay_ms(20); 
09272:  MOVLW  14
09274:  MOVLB  7
09276:  MOVWF  x6C
09278:  MOVLB  0
0927A:  CALL   15AA
....................       write_eeprom(19,Ttrabajo[3]); 
0927E:  CLRF   FAA
09280:  MOVLW  13
09282:  MOVWF  FA9
09284:  MOVFF  E1,FA8
09288:  BCF    FA6.6
0928A:  BCF    FA6.7
0928C:  BSF    FA6.2
0928E:  MOVF   FF2,W
09290:  MOVWF  00
09292:  BCF    FF2.6
09294:  BCF    FF2.7
09296:  MOVLB  F
09298:  MOVLW  55
0929A:  MOVWF  FA7
0929C:  MOVLW  AA
0929E:  MOVWF  FA7
092A0:  BSF    FA6.1
092A2:  BTFSC  FA6.1
092A4:  BRA    92A2
092A6:  BCF    FA6.2
092A8:  MOVF   00,W
092AA:  IORWF  FF2,F
....................       delay_ms(20); 
092AC:  MOVLW  14
092AE:  MOVLB  7
092B0:  MOVWF  x6C
092B2:  MOVLB  0
092B4:  CALL   15AA
....................    }else if(minutos_trabajo==900 || minutos_trabajo==1800 || minutos_trabajo==2700 ){ 
092B8:  BRA    935A
092BA:  MOVF   xCC,W
092BC:  SUBLW  84
092BE:  BNZ   92C6
092C0:  MOVF   xCD,W
092C2:  SUBLW  03
092C4:  BZ    92DE
092C6:  MOVF   xCC,W
092C8:  SUBLW  08
092CA:  BNZ   92D2
092CC:  MOVF   xCD,W
092CE:  SUBLW  07
092D0:  BZ    92DE
092D2:  MOVF   xCC,W
092D4:  SUBLW  8C
092D6:  BNZ   935A
092D8:  MOVF   xCD,W
092DA:  SUBLW  0A
092DC:  BNZ   935A
....................       write_eeprom(37,make8(minutos_trabajo,0)); 
092DE:  MOVFF  CC,758
092E2:  CLRF   FAA
092E4:  MOVLW  25
092E6:  MOVWF  FA9
092E8:  MOVFF  758,FA8
092EC:  BCF    FA6.6
092EE:  BCF    FA6.7
092F0:  BSF    FA6.2
092F2:  MOVF   FF2,W
092F4:  MOVWF  00
092F6:  BCF    FF2.6
092F8:  BCF    FF2.7
092FA:  MOVLB  F
092FC:  MOVLW  55
092FE:  MOVWF  FA7
09300:  MOVLW  AA
09302:  MOVWF  FA7
09304:  BSF    FA6.1
09306:  BTFSC  FA6.1
09308:  BRA    9306
0930A:  BCF    FA6.2
0930C:  MOVF   00,W
0930E:  IORWF  FF2,F
....................       delay_ms(20); 
09310:  MOVLW  14
09312:  MOVLB  7
09314:  MOVWF  x6C
09316:  MOVLB  0
09318:  CALL   15AA
....................       write_eeprom(38,make8(minutos_trabajo,1)); 
0931C:  MOVFF  CD,758
09320:  CLRF   FAA
09322:  MOVLW  26
09324:  MOVWF  FA9
09326:  MOVFF  758,FA8
0932A:  BCF    FA6.6
0932C:  BCF    FA6.7
0932E:  BSF    FA6.2
09330:  MOVF   FF2,W
09332:  MOVWF  00
09334:  BCF    FF2.6
09336:  BCF    FF2.7
09338:  MOVLB  F
0933A:  MOVLW  55
0933C:  MOVWF  FA7
0933E:  MOVLW  AA
09340:  MOVWF  FA7
09342:  BSF    FA6.1
09344:  BTFSC  FA6.1
09346:  BRA    9344
09348:  BCF    FA6.2
0934A:  MOVF   00,W
0934C:  IORWF  FF2,F
....................       delay_ms(20); 
0934E:  MOVLW  14
09350:  MOVLB  7
09352:  MOVWF  x6C
09354:  MOVLB  0
09356:  CALL   15AA
....................    } 
.................... //----------------------------------------// 
....................  
.................... //**Contador de Tiempo de Trabajo de UV**// 
....................          if(segundos_uv>=60){ 
0935A:  MOVF   xC7,F
0935C:  BNZ   9364
0935E:  MOVF   xC6,W
09360:  SUBLW  3B
09362:  BC    936E
....................             segundos_uv=0; 
09364:  CLRF   xC7
09366:  CLRF   xC6
....................             minutos_uv++; 
09368:  INCF   xCA,F
0936A:  BTFSC  FD8.2
0936C:  INCF   xCB,F
....................          } 
....................           
....................          if(minutos_uv>=60){ 
0936E:  MOVF   xCB,F
09370:  BNZ   937A
09372:  MOVF   xCA,W
09374:  SUBLW  3B
09376:  BTFSC  FD8.0
09378:  BRA    94DA
....................             minutos_uv=0; 
0937A:  CLRF   xCB
0937C:  CLRF   xCA
....................             Tuv[0]++; 
0937E:  INCF   xDA,F
....................             if(Tuv[0]>9){ 
09380:  BTFSC  xDA.7
09382:  BRA    938E
09384:  MOVF   xDA,W
09386:  SUBLW  09
09388:  BC    938E
....................                Tuv[0]=0; 
0938A:  CLRF   xDA
....................                Tuv[1]++; 
0938C:  INCF   xDB,F
....................             } 
....................             if(Tuv[1]>9){ 
0938E:  BTFSC  xDB.7
09390:  BRA    939C
09392:  MOVF   xDB,W
09394:  SUBLW  09
09396:  BC    939C
....................                Tuv[1]=0; 
09398:  CLRF   xDB
....................                Tuv[2]++; 
0939A:  INCF   xDC,F
....................             } 
....................             if(Tuv[2]>9){ 
0939C:  BTFSC  xDC.7
0939E:  BRA    93AA
093A0:  MOVF   xDC,W
093A2:  SUBLW  09
093A4:  BC    93AA
....................                Tuv[2]=0; 
093A6:  CLRF   xDC
....................                Tuv[3]++; 
093A8:  INCF   xDD,F
....................             } 
....................             if(Tuv[3]>9){ 
093AA:  BTFSC  xDD.7
093AC:  BRA    93B6
093AE:  MOVF   xDD,W
093B0:  SUBLW  09
093B2:  BC    93B6
....................                Tuv[3]=0; 
093B4:  CLRF   xDD
....................             } 
....................             write_eeprom(39,minutos_uv); 
093B6:  CLRF   FAA
093B8:  MOVLW  27
093BA:  MOVWF  FA9
093BC:  MOVFF  CA,FA8
093C0:  BCF    FA6.6
093C2:  BCF    FA6.7
093C4:  BSF    FA6.2
093C6:  MOVF   FF2,W
093C8:  MOVWF  00
093CA:  BCF    FF2.6
093CC:  BCF    FF2.7
093CE:  MOVLB  F
093D0:  MOVLW  55
093D2:  MOVWF  FA7
093D4:  MOVLW  AA
093D6:  MOVWF  FA7
093D8:  BSF    FA6.1
093DA:  BTFSC  FA6.1
093DC:  BRA    93DA
093DE:  BCF    FA6.2
093E0:  MOVF   00,W
093E2:  IORWF  FF2,F
....................             delay_ms(20); 
093E4:  MOVLW  14
093E6:  MOVLB  7
093E8:  MOVWF  x6C
093EA:  MOVLB  0
093EC:  CALL   15AA
....................             write_eeprom(12,Tuv[0]); 
093F0:  CLRF   FAA
093F2:  MOVLW  0C
093F4:  MOVWF  FA9
093F6:  MOVFF  DA,FA8
093FA:  BCF    FA6.6
093FC:  BCF    FA6.7
093FE:  BSF    FA6.2
09400:  MOVF   FF2,W
09402:  MOVWF  00
09404:  BCF    FF2.6
09406:  BCF    FF2.7
09408:  MOVLB  F
0940A:  MOVLW  55
0940C:  MOVWF  FA7
0940E:  MOVLW  AA
09410:  MOVWF  FA7
09412:  BSF    FA6.1
09414:  BTFSC  FA6.1
09416:  BRA    9414
09418:  BCF    FA6.2
0941A:  MOVF   00,W
0941C:  IORWF  FF2,F
....................             delay_ms(20); 
0941E:  MOVLW  14
09420:  MOVLB  7
09422:  MOVWF  x6C
09424:  MOVLB  0
09426:  CALL   15AA
....................             write_eeprom(13,Tuv[1]); 
0942A:  CLRF   FAA
0942C:  MOVLW  0D
0942E:  MOVWF  FA9
09430:  MOVFF  DB,FA8
09434:  BCF    FA6.6
09436:  BCF    FA6.7
09438:  BSF    FA6.2
0943A:  MOVF   FF2,W
0943C:  MOVWF  00
0943E:  BCF    FF2.6
09440:  BCF    FF2.7
09442:  MOVLB  F
09444:  MOVLW  55
09446:  MOVWF  FA7
09448:  MOVLW  AA
0944A:  MOVWF  FA7
0944C:  BSF    FA6.1
0944E:  BTFSC  FA6.1
09450:  BRA    944E
09452:  BCF    FA6.2
09454:  MOVF   00,W
09456:  IORWF  FF2,F
....................             delay_ms(20); 
09458:  MOVLW  14
0945A:  MOVLB  7
0945C:  MOVWF  x6C
0945E:  MOVLB  0
09460:  CALL   15AA
....................             write_eeprom(14,Tuv[2]); 
09464:  CLRF   FAA
09466:  MOVLW  0E
09468:  MOVWF  FA9
0946A:  MOVFF  DC,FA8
0946E:  BCF    FA6.6
09470:  BCF    FA6.7
09472:  BSF    FA6.2
09474:  MOVF   FF2,W
09476:  MOVWF  00
09478:  BCF    FF2.6
0947A:  BCF    FF2.7
0947C:  MOVLB  F
0947E:  MOVLW  55
09480:  MOVWF  FA7
09482:  MOVLW  AA
09484:  MOVWF  FA7
09486:  BSF    FA6.1
09488:  BTFSC  FA6.1
0948A:  BRA    9488
0948C:  BCF    FA6.2
0948E:  MOVF   00,W
09490:  IORWF  FF2,F
....................             delay_ms(20); 
09492:  MOVLW  14
09494:  MOVLB  7
09496:  MOVWF  x6C
09498:  MOVLB  0
0949A:  CALL   15AA
....................             write_eeprom(15,Tuv[3]); 
0949E:  CLRF   FAA
094A0:  MOVLW  0F
094A2:  MOVWF  FA9
094A4:  MOVFF  DD,FA8
094A8:  BCF    FA6.6
094AA:  BCF    FA6.7
094AC:  BSF    FA6.2
094AE:  MOVF   FF2,W
094B0:  MOVWF  00
094B2:  BCF    FF2.6
094B4:  BCF    FF2.7
094B6:  MOVLB  F
094B8:  MOVLW  55
094BA:  MOVWF  FA7
094BC:  MOVLW  AA
094BE:  MOVWF  FA7
094C0:  BSF    FA6.1
094C2:  BTFSC  FA6.1
094C4:  BRA    94C2
094C6:  BCF    FA6.2
094C8:  MOVF   00,W
094CA:  IORWF  FF2,F
....................             delay_ms(20); 
094CC:  MOVLW  14
094CE:  MOVLB  7
094D0:  MOVWF  x6C
094D2:  MOVLB  0
094D4:  CALL   15AA
....................          }else if(minutos_uv==15 || minutos_uv==30 || minutos_uv==45){ 
094D8:  BRA    9532
094DA:  MOVF   xCA,W
094DC:  SUBLW  0F
094DE:  BNZ   94E4
094E0:  MOVF   xCB,F
094E2:  BZ    94F8
094E4:  MOVF   xCA,W
094E6:  SUBLW  1E
094E8:  BNZ   94EE
094EA:  MOVF   xCB,F
094EC:  BZ    94F8
094EE:  MOVF   xCA,W
094F0:  SUBLW  2D
094F2:  BNZ   9532
094F4:  MOVF   xCB,F
094F6:  BNZ   9532
....................             write_eeprom(39,minutos_uv); 
094F8:  CLRF   FAA
094FA:  MOVLW  27
094FC:  MOVWF  FA9
094FE:  MOVFF  CA,FA8
09502:  BCF    FA6.6
09504:  BCF    FA6.7
09506:  BSF    FA6.2
09508:  MOVF   FF2,W
0950A:  MOVWF  00
0950C:  BCF    FF2.6
0950E:  BCF    FF2.7
09510:  MOVLB  F
09512:  MOVLW  55
09514:  MOVWF  FA7
09516:  MOVLW  AA
09518:  MOVWF  FA7
0951A:  BSF    FA6.1
0951C:  BTFSC  FA6.1
0951E:  BRA    951C
09520:  BCF    FA6.2
09522:  MOVF   00,W
09524:  IORWF  FF2,F
....................             delay_ms(20); 
09526:  MOVLW  14
09528:  MOVLB  7
0952A:  MOVWF  x6C
0952C:  MOVLB  0
0952E:  CALL   15AA
....................          } 
.................... //----------------------------------------//    
....................    if(Menu!=5){// Si no esta en el menu de estados apaga la alarma 
09532:  MOVF   x82,W
09534:  SUBLW  05
09536:  BZ    9546
....................       Alarma_off; 
09538:  BCF    F8B.0
0953A:  BCF    F94.0
....................       Aux_off; 
0953C:  BSF    F8C.2
0953E:  BCF    F95.2
....................       Alarma=10; 
09540:  MOVLW  0A
09542:  MOVWF  x8D
....................       Alarma2=10; 
09544:  MOVWF  x8E
....................    } 
.................... //_-------------------------------------------------------------------------------------------------------------------------------------------------------- 
....................    if(Menu==240){ //Menu de Bienvenida. 
09546:  MOVF   x82,W
09548:  SUBLW  F0
0954A:  BNZ   957C
....................       delay_ms(1500); 
0954C:  MOVLW  06
0954E:  MOVLB  7
09550:  MOVWF  x58
09552:  MOVLW  FA
09554:  MOVWF  x6C
09556:  MOVLB  0
09558:  CALL   15AA
0955C:  MOVLB  7
0955E:  DECFSZ x58,F
09560:  BRA    9552
....................       printf("page Clave"); 
09562:  MOVLW  06
09564:  MOVWF  FF6
09566:  MOVLW  05
09568:  MOVWF  FF7
0956A:  MOVLW  00
0956C:  MOVWF  FF8
0956E:  MOVLB  0
09570:  CALL   1E2E
....................       SendDataDisplay(); 
09574:  CALL   1E60
....................       ApagaSalidas(); 
09578:  CALL   67BC
....................    } 
.................... //_-------------------------------------------------------------------------------------------------------------------------------------------------------- 
....................  
.................... //_-------------------------------------------------------------------------------------------------------------------------------------------------------- 
....................     if(Menu==0){ //Menu de Contrasea de acceso.       
0957C:  MOVF   x82,F
0957E:  BTFSS  FD8.2
09580:  BRA    9BCE
....................       entro=OFF; 
09582:  BCF    x7E.2
....................   
....................       if(tEncendido>30){ 
09584:  MOVLB  2
09586:  MOVF   x84,W
09588:  SUBLW  1E
0958A:  BC    95E2
....................          Encendio=OFF; 
0958C:  MOVLB  0
0958E:  BCF    x7F.2
....................          Prendio=10; 
09590:  MOVLW  0A
09592:  MOVLB  2
09594:  MOVWF  x87
....................          VelMotor=0;VelMotor2=0;LuzBlanca_off;LuzUV_off;Toma_off;Alarma_off;Motor_off;Motor2_off;Aux_off; 
09596:  CLRF   x85
09598:  CLRF   x86
0959A:  BSF    F8C.0
0959C:  BCF    F95.0
0959E:  BSF    F8C.1
095A0:  BCF    F95.1
095A2:  BCF    F8B.1
095A4:  BCF    F94.1
095A6:  BCF    F8B.0
095A8:  BCF    F94.0
095AA:  BCF    F8B.3
095AC:  BCF    F94.3
095AE:  BCF    F8B.2
095B0:  BCF    F94.2
095B2:  BSF    F8C.2
095B4:  BCF    F95.2
....................          printf("page Off"); 
095B6:  MOVLW  12
095B8:  MOVWF  FF6
095BA:  MOVLW  05
095BC:  MOVWF  FF7
095BE:  MOVLW  00
095C0:  MOVWF  FF8
095C2:  MOVLB  0
095C4:  CALL   1E2E
....................          SendDataDisplay(); 
095C8:  CALL   1E60
....................          UP=OFF;DOWN=OFF;RIGHT=OFF;LEFT=OFF; 
095CC:  BCF    x7F.3
095CE:  BCF    x7F.4
095D0:  BCF    x7F.5
095D2:  BCF    x7F.6
....................          delay_ms(150); 
095D4:  MOVLW  96
095D6:  MOVLB  7
095D8:  MOVWF  x6C
095DA:  MOVLB  0
095DC:  CALL   15AA
095E0:  MOVLB  2
....................       } 
....................        
....................       if(RX_Buffer[4]==0x11 || LEFT){//11 
095E2:  MOVF   35,W
095E4:  SUBLW  11
095E6:  BZ    95F0
095E8:  MOVLB  0
095EA:  BTFSS  x7F.6
095EC:  BRA    9614
095EE:  MOVLB  2
....................          UP=OFF;DOWN=OFF;RIGHT=OFF;LEFT=OFF; 
095F0:  MOVLB  0
095F2:  BCF    x7F.3
095F4:  BCF    x7F.4
095F6:  BCF    x7F.5
095F8:  BCF    x7F.6
....................          if(TipoClave!=0){ 
095FA:  MOVF   xAC,F
095FC:  BZ    9614
....................             printf("page Principal"); 
095FE:  MOVLW  1C
09600:  MOVWF  FF6
09602:  MOVLW  05
09604:  MOVWF  FF7
09606:  MOVLW  00
09608:  MOVWF  FF8
0960A:  CALL   1E2E
....................             SendDataDisplay(); 
0960E:  CALL   1E60
....................             PantallaPrincipal=0; 
09612:  CLRF   xAD
....................          } 
....................       } 
....................        
....................       if(TipoClave==3){ 
09614:  MOVF   xAC,W
09616:  SUBLW  03
09618:  BNZ   9644
....................          printf("titulo.txt=\"Clave Nueva\""); 
0961A:  MOVLW  2C
0961C:  MOVWF  FF6
0961E:  MOVLW  05
09620:  MOVWF  FF7
09622:  MOVLW  00
09624:  MOVWF  FF8
09626:  CALL   1E2E
....................          SendDataDisplay(); 
0962A:  CALL   1E60
....................          printf("doevents"); 
0962E:  MOVLW  46
09630:  MOVWF  FF6
09632:  MOVLW  05
09634:  MOVWF  FF7
09636:  MOVLW  00
09638:  MOVWF  FF8
0963A:  CALL   1E2E
....................          SendDataDisplay(); 
0963E:  CALL   1E60
....................       }else if(TipoClave==2){ 
09642:  BRA    96BA
09644:  MOVF   xAC,W
09646:  SUBLW  02
09648:  BNZ   9674
....................          printf("titulo.txt=\"Clave Actual\""); 
0964A:  MOVLW  50
0964C:  MOVWF  FF6
0964E:  MOVLW  05
09650:  MOVWF  FF7
09652:  MOVLW  00
09654:  MOVWF  FF8
09656:  CALL   1E2E
....................          SendDataDisplay(); 
0965A:  CALL   1E60
....................          printf("doevents"); 
0965E:  MOVLW  6A
09660:  MOVWF  FF6
09662:  MOVLW  05
09664:  MOVWF  FF7
09666:  MOVLW  00
09668:  MOVWF  FF8
0966A:  CALL   1E2E
....................          SendDataDisplay(); 
0966E:  CALL   1E60
....................       }else if(TipoClave==1){ 
09672:  BRA    96BA
09674:  DECFSZ xAC,W
09676:  BRA    96A2
....................          printf("titulo.txt=\"Clave Tecnico\""); 
09678:  MOVLW  74
0967A:  MOVWF  FF6
0967C:  MOVLW  05
0967E:  MOVWF  FF7
09680:  MOVLW  00
09682:  MOVWF  FF8
09684:  CALL   1E2E
....................          SendDataDisplay(); 
09688:  CALL   1E60
....................          printf("doevents"); 
0968C:  MOVLW  90
0968E:  MOVWF  FF6
09690:  MOVLW  05
09692:  MOVWF  FF7
09694:  MOVLW  00
09696:  MOVWF  FF8
09698:  CALL   1E2E
....................          SendDataDisplay(); 
0969C:  CALL   1E60
....................       }else if(TipoClave==0){ 
096A0:  BRA    96BA
096A2:  MOVF   xAC,F
096A4:  BNZ   96BA
....................          printf("titulo.txt=\"Ingrese Contrasea\""); 
096A6:  MOVLW  9A
096A8:  MOVWF  FF6
096AA:  MOVLW  05
096AC:  MOVWF  FF7
096AE:  MOVLW  00
096B0:  MOVWF  FF8
096B2:  CALL   1E2E
....................          SendDataDisplay(); 
096B6:  CALL   1E60
....................       } 
....................        
....................       if(RX_Buffer[3]==0x0f){//0f, recibe caracteres ingresados desde el Display 
096BA:  MOVF   34,W
096BC:  SUBLW  0F
096BE:  BTFSS  FD8.2
096C0:  BRA    9BCE
....................          tEncendido=0; 
096C2:  MOVLB  2
096C4:  CLRF   x84
....................          if(TipoClave==0){ 
096C6:  MOVLB  0
096C8:  MOVF   xAC,F
096CA:  BTFSS  FD8.2
096CC:  BRA    98BA
....................             if(RX_Buffer[4]==0x33&&RX_Buffer[5]==0x38&&RX_Buffer[6]==0x39&&RX_Buffer[7]==0x32){ // Si Ingresa clave para reset general del sistema. 
096CE:  MOVF   35,W
096D0:  SUBLW  33
096D2:  BTFSS  FD8.2
096D4:  BRA    982A
096D6:  MOVF   36,W
096D8:  SUBLW  38
096DA:  BTFSS  FD8.2
096DC:  BRA    982A
096DE:  MOVF   37,W
096E0:  SUBLW  39
096E2:  BTFSS  FD8.2
096E4:  BRA    982A
096E6:  MOVF   38,W
096E8:  SUBLW  32
096EA:  BTFSS  FD8.2
096EC:  BRA    982A
....................                write_eeprom(0,0);delay_ms(20);write_eeprom(1,0);delay_ms(20);// Reestablece a contrasea de Fabrica y reinicia Programa. 
096EE:  CLRF   FAA
096F0:  CLRF   FA9
096F2:  CLRF   FA8
096F4:  BCF    FA6.6
096F6:  BCF    FA6.7
096F8:  BSF    FA6.2
096FA:  MOVF   FF2,W
096FC:  MOVWF  00
096FE:  BCF    FF2.6
09700:  BCF    FF2.7
09702:  MOVLB  F
09704:  MOVLW  55
09706:  MOVWF  FA7
09708:  MOVLW  AA
0970A:  MOVWF  FA7
0970C:  BSF    FA6.1
0970E:  BTFSC  FA6.1
09710:  BRA    970E
09712:  BCF    FA6.2
09714:  MOVF   00,W
09716:  IORWF  FF2,F
09718:  MOVLW  14
0971A:  MOVLB  7
0971C:  MOVWF  x6C
0971E:  MOVLB  0
09720:  CALL   15AA
09724:  CLRF   FAA
09726:  MOVLW  01
09728:  MOVWF  FA9
0972A:  CLRF   FA8
0972C:  BCF    FA6.6
0972E:  BCF    FA6.7
09730:  BSF    FA6.2
09732:  MOVF   FF2,W
09734:  MOVWF  00
09736:  BCF    FF2.6
09738:  BCF    FF2.7
0973A:  MOVLB  F
0973C:  MOVLW  55
0973E:  MOVWF  FA7
09740:  MOVLW  AA
09742:  MOVWF  FA7
09744:  BSF    FA6.1
09746:  BTFSC  FA6.1
09748:  BRA    9746
0974A:  BCF    FA6.2
0974C:  MOVF   00,W
0974E:  IORWF  FF2,F
09750:  MOVLW  14
09752:  MOVLB  7
09754:  MOVWF  x6C
09756:  MOVLB  0
09758:  CALL   15AA
....................                write_eeprom(2,0);delay_ms(20);write_eeprom(3,0);delay_ms(20); 
0975C:  CLRF   FAA
0975E:  MOVLW  02
09760:  MOVWF  FA9
09762:  CLRF   FA8
09764:  BCF    FA6.6
09766:  BCF    FA6.7
09768:  BSF    FA6.2
0976A:  MOVF   FF2,W
0976C:  MOVWF  00
0976E:  BCF    FF2.6
09770:  BCF    FF2.7
09772:  MOVLB  F
09774:  MOVLW  55
09776:  MOVWF  FA7
09778:  MOVLW  AA
0977A:  MOVWF  FA7
0977C:  BSF    FA6.1
0977E:  BTFSC  FA6.1
09780:  BRA    977E
09782:  BCF    FA6.2
09784:  MOVF   00,W
09786:  IORWF  FF2,F
09788:  MOVLW  14
0978A:  MOVLB  7
0978C:  MOVWF  x6C
0978E:  MOVLB  0
09790:  CALL   15AA
09794:  CLRF   FAA
09796:  MOVLW  03
09798:  MOVWF  FA9
0979A:  CLRF   FA8
0979C:  BCF    FA6.6
0979E:  BCF    FA6.7
097A0:  BSF    FA6.2
097A2:  MOVF   FF2,W
097A4:  MOVWF  00
097A6:  BCF    FF2.6
097A8:  BCF    FF2.7
097AA:  MOVLB  F
097AC:  MOVLW  55
097AE:  MOVWF  FA7
097B0:  MOVLW  AA
097B2:  MOVWF  FA7
097B4:  BSF    FA6.1
097B6:  BTFSC  FA6.1
097B8:  BRA    97B6
097BA:  BCF    FA6.2
097BC:  MOVF   00,W
097BE:  IORWF  FF2,F
097C0:  MOVLW  14
097C2:  MOVLB  7
097C4:  MOVWF  x6C
097C6:  MOVLB  0
097C8:  CALL   15AA
....................                Encendio=OFF; 
097CC:  BCF    x7F.2
....................                Prendio=10; 
097CE:  MOVLW  0A
097D0:  MOVLB  2
097D2:  MOVWF  x87
....................                Password[0]=0;Password[1]=0;Password[2]=0;Password[3]=0; 
097D4:  MOVLB  0
097D6:  CLRF   xE2
097D8:  CLRF   xE3
097DA:  CLRF   xE4
097DC:  CLRF   xE5
....................                VelMotor=0;VelMotor2=0;LuzBlanca_off;LuzUV_off;Toma_off;Alarma_off;Motor_off;Motor2_off;Aux_off; 
097DE:  MOVLB  2
097E0:  CLRF   x85
097E2:  CLRF   x86
097E4:  BSF    F8C.0
097E6:  BCF    F95.0
097E8:  BSF    F8C.1
097EA:  BCF    F95.1
097EC:  BCF    F8B.1
097EE:  BCF    F94.1
097F0:  BCF    F8B.0
097F2:  BCF    F94.0
097F4:  BCF    F8B.3
097F6:  BCF    F94.3
097F8:  BCF    F8B.2
097FA:  BCF    F94.2
097FC:  BSF    F8C.2
097FE:  BCF    F95.2
....................                printf("page Off"); 
09800:  MOVLW  BA
09802:  MOVWF  FF6
09804:  MOVLW  05
09806:  MOVWF  FF7
09808:  MOVLW  00
0980A:  MOVWF  FF8
0980C:  MOVLB  0
0980E:  CALL   1E2E
....................                SendDataDisplay(); 
09812:  CALL   1E60
....................                UP=OFF;DOWN=OFF;RIGHT=OFF;LEFT=OFF; 
09816:  BCF    x7F.3
09818:  BCF    x7F.4
0981A:  BCF    x7F.5
0981C:  BCF    x7F.6
....................                delay_ms(150); 
0981E:  MOVLW  96
09820:  MOVLB  7
09822:  MOVWF  x6C
09824:  MOVLB  0
09826:  CALL   15AA
....................             } 
....................             if(RX_Buffer[4]>=0x30 && RX_Buffer[5]>=0x30 && RX_Buffer[6]>=0x30 && RX_Buffer[7]>=0x30 
....................             && RX_Buffer[4]<=0x39 && RX_Buffer[5]<=0x39 && RX_Buffer[6]<=0x39 && RX_Buffer[7]<=0x39){ 
0982A:  MOVF   35,W
0982C:  SUBLW  2F
0982E:  BC    98B8
09830:  MOVF   36,W
09832:  SUBLW  2F
09834:  BC    98B8
09836:  MOVF   37,W
09838:  SUBLW  2F
0983A:  BC    98B8
0983C:  MOVF   38,W
0983E:  SUBLW  2F
09840:  BC    98B8
09842:  MOVF   35,W
09844:  SUBLW  39
09846:  BNC   98B8
09848:  MOVF   36,W
0984A:  SUBLW  39
0984C:  BNC   98B8
0984E:  MOVF   37,W
09850:  SUBLW  39
09852:  BNC   98B8
09854:  MOVF   38,W
09856:  SUBLW  39
09858:  BNC   98B8
....................             if((RX_Buffer[4]==Password[0]+0x30)&&(RX_Buffer[5]==Password[1]+0x30)&&(RX_Buffer[6]==Password[2]+0x30)&&(RX_Buffer[7]==Password[3]+0x30)){ 
0985A:  MOVLW  30
0985C:  ADDWF  xE2,W
0985E:  SUBWF  35,W
09860:  BNZ   989C
09862:  MOVLW  30
09864:  ADDWF  xE3,W
09866:  SUBWF  36,W
09868:  BNZ   989C
0986A:  MOVLW  30
0986C:  ADDWF  xE4,W
0986E:  SUBWF  37,W
09870:  BNZ   989C
09872:  MOVLW  30
09874:  ADDWF  xE5,W
09876:  SUBWF  38,W
09878:  BNZ   989C
....................                   printf("page ClaveCorrecta"); 
0987A:  MOVLW  C4
0987C:  MOVWF  FF6
0987E:  MOVLW  05
09880:  MOVWF  FF7
09882:  MOVLW  00
09884:  MOVWF  FF8
09886:  CALL   1E2E
....................                   SendDataDisplay(); 
0988A:  CALL   1E60
....................                   calculaDensidad(); 
0988E:  CALL   67DA
....................                   UP=OFF;DOWN=OFF;RIGHT=OFF;LEFT=OFF; 
09892:  BCF    x7F.3
09894:  BCF    x7F.4
09896:  BCF    x7F.5
09898:  BCF    x7F.6
....................                }else{ 
0989A:  BRA    98B8
....................                   printf("page ClaveBad"); 
0989C:  MOVLW  D8
0989E:  MOVWF  FF6
098A0:  MOVLW  05
098A2:  MOVWF  FF7
098A4:  MOVLW  00
098A6:  MOVWF  FF8
098A8:  CALL   1E2E
....................                   SendDataDisplay(); 
098AC:  CALL   1E60
....................                   UP=OFF;DOWN=OFF;RIGHT=OFF;LEFT=OFF; 
098B0:  BCF    x7F.3
098B2:  BCF    x7F.4
098B4:  BCF    x7F.5
098B6:  BCF    x7F.6
....................                }  
....................             } 
....................          }else if(TipoClave==1){ 
098B8:  BRA    9BCE
098BA:  DECFSZ xAC,W
098BC:  BRA    9912
....................             if(RX_Buffer[4]==0x34&&RX_Buffer[5]==0x34&&RX_Buffer[6]==0x34&&RX_Buffer[7]==0x34){ // Si Ingresa clave de Servicio Tecnico 
098BE:  MOVF   35,W
098C0:  SUBLW  34
098C2:  BNZ   98F4
098C4:  MOVF   36,W
098C6:  SUBLW  34
098C8:  BNZ   98F4
098CA:  MOVF   37,W
098CC:  SUBLW  34
098CE:  BNZ   98F4
098D0:  MOVF   38,W
098D2:  SUBLW  34
098D4:  BNZ   98F4
....................                printf("page Config"); 
098D6:  MOVLW  E6
098D8:  MOVWF  FF6
098DA:  MOVLW  05
098DC:  MOVWF  FF7
098DE:  MOVLW  00
098E0:  MOVWF  FF8
098E2:  CALL   1E2E
....................                SendDataDisplay(); 
098E6:  CALL   1E60
....................                UP=OFF;DOWN=OFF;RIGHT=OFF;LEFT=OFF; 
098EA:  BCF    x7F.3
098EC:  BCF    x7F.4
098EE:  BCF    x7F.5
098F0:  BCF    x7F.6
....................             }else{ 
098F2:  BRA    9910
....................                printf("page Principal"); 
098F4:  MOVLW  F2
098F6:  MOVWF  FF6
098F8:  MOVLW  05
098FA:  MOVWF  FF7
098FC:  MOVLW  00
098FE:  MOVWF  FF8
09900:  CALL   1E2E
....................                SendDataDisplay(); 
09904:  CALL   1E60
....................                UP=OFF;DOWN=OFF;RIGHT=OFF;LEFT=OFF; 
09908:  BCF    x7F.3
0990A:  BCF    x7F.4
0990C:  BCF    x7F.5
0990E:  BCF    x7F.6
....................             } 
....................          }else if(TipoClave==2){ 
09910:  BRA    9BCE
09912:  MOVF   xAC,W
09914:  SUBLW  02
09916:  BNZ   99C2
....................             if(RX_Buffer[4]>=0x30 && RX_Buffer[5]>=0x30 && RX_Buffer[6]>=0x30 && RX_Buffer[7]>=0x30 
....................             && RX_Buffer[4]<=0x39 && RX_Buffer[5]<=0x39 && RX_Buffer[6]<=0x39 && RX_Buffer[7]<=0x39){ 
09918:  MOVF   35,W
0991A:  SUBLW  2F
0991C:  BC    99C0
0991E:  MOVF   36,W
09920:  SUBLW  2F
09922:  BC    99C0
09924:  MOVF   37,W
09926:  SUBLW  2F
09928:  BC    99C0
0992A:  MOVF   38,W
0992C:  SUBLW  2F
0992E:  BC    99C0
09930:  MOVF   35,W
09932:  SUBLW  39
09934:  BNC   99C0
09936:  MOVF   36,W
09938:  SUBLW  39
0993A:  BNC   99C0
0993C:  MOVF   37,W
0993E:  SUBLW  39
09940:  BNC   99C0
09942:  MOVF   38,W
09944:  SUBLW  39
09946:  BNC   99C0
....................             if((RX_Buffer[4]==Password[0]+0x30)&&(RX_Buffer[5]==Password[1]+0x30)&&(RX_Buffer[6]==Password[2]+0x30)&&(RX_Buffer[7]==Password[3]+0x30)){ 
09948:  MOVLW  30
0994A:  ADDWF  xE2,W
0994C:  SUBWF  35,W
0994E:  BNZ   99A4
09950:  MOVLW  30
09952:  ADDWF  xE3,W
09954:  SUBWF  36,W
09956:  BNZ   99A4
09958:  MOVLW  30
0995A:  ADDWF  xE4,W
0995C:  SUBWF  37,W
0995E:  BNZ   99A4
09960:  MOVLW  30
09962:  ADDWF  xE5,W
09964:  SUBWF  38,W
09966:  BNZ   99A4
....................                printf("page Clave"); 
09968:  MOVLW  02
0996A:  MOVWF  FF6
0996C:  MOVLW  06
0996E:  MOVWF  FF7
09970:  MOVLW  00
09972:  MOVWF  FF8
09974:  CALL   1E2E
....................                SendDataDisplay();                
09978:  CALL   1E60
....................                printf("titulo.txt=\"Clave Nueva\""); 
0997C:  MOVLW  0E
0997E:  MOVWF  FF6
09980:  MOVLW  06
09982:  MOVWF  FF7
09984:  MOVLW  00
09986:  MOVWF  FF8
09988:  CALL   1E2E
....................                SendDataDisplay(); 
0998C:  CALL   1E60
....................                TipoClave=3;                
09990:  MOVLW  03
09992:  MOVWF  xAC
....................                GuardaEEPROM=0; 
09994:  BCF    x7E.3
....................                RX_Buffer[3]=0x00;RX_Buffer2[3]=0x00;   
09996:  CLRF   34
09998:  CLRF   3F
....................                UP=OFF;DOWN=OFF;RIGHT=OFF;LEFT=OFF; 
0999A:  BCF    x7F.3
0999C:  BCF    x7F.4
0999E:  BCF    x7F.5
099A0:  BCF    x7F.6
....................             }else{ 
099A2:  BRA    99C0
....................                printf("page Principal"); 
099A4:  MOVLW  28
099A6:  MOVWF  FF6
099A8:  MOVLW  06
099AA:  MOVWF  FF7
099AC:  MOVLW  00
099AE:  MOVWF  FF8
099B0:  CALL   1E2E
....................                SendDataDisplay();               
099B4:  CALL   1E60
....................                UP=OFF;DOWN=OFF;RIGHT=OFF;LEFT=OFF; 
099B8:  BCF    x7F.3
099BA:  BCF    x7F.4
099BC:  BCF    x7F.5
099BE:  BCF    x7F.6
....................                //RX_Buffer[3]=0x00;RX_Buffer2[3]=0x00;   
....................             }  
....................             } 
....................          }else if(TipoClave==3){ 
099C0:  BRA    9BCE
099C2:  MOVF   xAC,W
099C4:  SUBLW  03
099C6:  BTFSS  FD8.2
099C8:  BRA    9BCE
....................             printf("titulo.txt=\"Clave Nueva\""); 
099CA:  MOVLW  38
099CC:  MOVWF  FF6
099CE:  MOVLW  06
099D0:  MOVWF  FF7
099D2:  MOVLW  00
099D4:  MOVWF  FF8
099D6:  CALL   1E2E
....................             SendDataDisplay();  
099DA:  CALL   1E60
....................             if(RX_Buffer[4]>=0x30 && RX_Buffer[5]>=0x30 && RX_Buffer[6]>=0x30 && RX_Buffer[7]>=0x30 
....................             && RX_Buffer[4]<=0x39 && RX_Buffer[5]<=0x39 && RX_Buffer[6]<=0x39 && RX_Buffer[7]<=0x39){ 
099DE:  MOVF   35,W
099E0:  SUBLW  2F
099E2:  BTFSC  FD8.0
099E4:  BRA    9B80
099E6:  MOVF   36,W
099E8:  SUBLW  2F
099EA:  BTFSC  FD8.0
099EC:  BRA    9B80
099EE:  MOVF   37,W
099F0:  SUBLW  2F
099F2:  BTFSC  FD8.0
099F4:  BRA    9B80
099F6:  MOVF   38,W
099F8:  SUBLW  2F
099FA:  BTFSC  FD8.0
099FC:  BRA    9B80
099FE:  MOVF   35,W
09A00:  SUBLW  39
09A02:  BTFSS  FD8.0
09A04:  BRA    9B80
09A06:  MOVF   36,W
09A08:  SUBLW  39
09A0A:  BTFSS  FD8.0
09A0C:  BRA    9B80
09A0E:  MOVF   37,W
09A10:  SUBLW  39
09A12:  BTFSS  FD8.0
09A14:  BRA    9B80
09A16:  MOVF   38,W
09A18:  SUBLW  39
09A1A:  BTFSS  FD8.0
09A1C:  BRA    9B80
....................                if(!GuardaEEPROM){ 
09A1E:  BTFSC  x7E.3
09A20:  BRA    9B62
....................                   write_eeprom(0,RX_Buffer[4]-0x30);delay_ms(20);write_eeprom(1,RX_Buffer[5]-0x30);delay_ms(20); 
09A22:  MOVLW  30
09A24:  SUBWF  35,W
09A26:  MOVLB  7
09A28:  MOVWF  x58
09A2A:  CLRF   FAA
09A2C:  CLRF   FA9
09A2E:  MOVFF  758,FA8
09A32:  BCF    FA6.6
09A34:  BCF    FA6.7
09A36:  BSF    FA6.2
09A38:  MOVF   FF2,W
09A3A:  MOVWF  00
09A3C:  BCF    FF2.6
09A3E:  BCF    FF2.7
09A40:  MOVLB  F
09A42:  MOVLW  55
09A44:  MOVWF  FA7
09A46:  MOVLW  AA
09A48:  MOVWF  FA7
09A4A:  BSF    FA6.1
09A4C:  BTFSC  FA6.1
09A4E:  BRA    9A4C
09A50:  BCF    FA6.2
09A52:  MOVF   00,W
09A54:  IORWF  FF2,F
09A56:  MOVLW  14
09A58:  MOVLB  7
09A5A:  MOVWF  x6C
09A5C:  MOVLB  0
09A5E:  CALL   15AA
09A62:  MOVLW  30
09A64:  SUBWF  36,W
09A66:  MOVLB  7
09A68:  MOVWF  x58
09A6A:  CLRF   FAA
09A6C:  MOVLW  01
09A6E:  MOVWF  FA9
09A70:  MOVFF  758,FA8
09A74:  BCF    FA6.6
09A76:  BCF    FA6.7
09A78:  BSF    FA6.2
09A7A:  MOVF   FF2,W
09A7C:  MOVWF  00
09A7E:  BCF    FF2.6
09A80:  BCF    FF2.7
09A82:  MOVLB  F
09A84:  MOVLW  55
09A86:  MOVWF  FA7
09A88:  MOVLW  AA
09A8A:  MOVWF  FA7
09A8C:  BSF    FA6.1
09A8E:  BTFSC  FA6.1
09A90:  BRA    9A8E
09A92:  BCF    FA6.2
09A94:  MOVF   00,W
09A96:  IORWF  FF2,F
09A98:  MOVLW  14
09A9A:  MOVLB  7
09A9C:  MOVWF  x6C
09A9E:  MOVLB  0
09AA0:  CALL   15AA
....................                   write_eeprom(2,RX_Buffer[6]-0x30);delay_ms(20);write_eeprom(3,RX_Buffer[7]-0x30);delay_ms(20); 
09AA4:  MOVLW  30
09AA6:  SUBWF  37,W
09AA8:  MOVLB  7
09AAA:  MOVWF  x58
09AAC:  CLRF   FAA
09AAE:  MOVLW  02
09AB0:  MOVWF  FA9
09AB2:  MOVFF  758,FA8
09AB6:  BCF    FA6.6
09AB8:  BCF    FA6.7
09ABA:  BSF    FA6.2
09ABC:  MOVF   FF2,W
09ABE:  MOVWF  00
09AC0:  BCF    FF2.6
09AC2:  BCF    FF2.7
09AC4:  MOVLB  F
09AC6:  MOVLW  55
09AC8:  MOVWF  FA7
09ACA:  MOVLW  AA
09ACC:  MOVWF  FA7
09ACE:  BSF    FA6.1
09AD0:  BTFSC  FA6.1
09AD2:  BRA    9AD0
09AD4:  BCF    FA6.2
09AD6:  MOVF   00,W
09AD8:  IORWF  FF2,F
09ADA:  MOVLW  14
09ADC:  MOVLB  7
09ADE:  MOVWF  x6C
09AE0:  MOVLB  0
09AE2:  CALL   15AA
09AE6:  MOVLW  30
09AE8:  SUBWF  38,W
09AEA:  MOVLB  7
09AEC:  MOVWF  x58
09AEE:  CLRF   FAA
09AF0:  MOVLW  03
09AF2:  MOVWF  FA9
09AF4:  MOVFF  758,FA8
09AF8:  BCF    FA6.6
09AFA:  BCF    FA6.7
09AFC:  BSF    FA6.2
09AFE:  MOVF   FF2,W
09B00:  MOVWF  00
09B02:  BCF    FF2.6
09B04:  BCF    FF2.7
09B06:  MOVLB  F
09B08:  MOVLW  55
09B0A:  MOVWF  FA7
09B0C:  MOVLW  AA
09B0E:  MOVWF  FA7
09B10:  BSF    FA6.1
09B12:  BTFSC  FA6.1
09B14:  BRA    9B12
09B16:  BCF    FA6.2
09B18:  MOVF   00,W
09B1A:  IORWF  FF2,F
09B1C:  MOVLW  14
09B1E:  MOVLB  7
09B20:  MOVWF  x6C
09B22:  MOVLB  0
09B24:  CALL   15AA
....................                   Password[0]=RX_Buffer[4]-0x30; 
09B28:  MOVLW  30
09B2A:  SUBWF  35,W
09B2C:  MOVWF  xE2
....................                   Password[1]=RX_Buffer[5]-0x30; 
09B2E:  MOVLW  30
09B30:  SUBWF  36,W
09B32:  MOVWF  xE3
....................                   Password[2]=RX_Buffer[6]-0x30; 
09B34:  MOVLW  30
09B36:  SUBWF  37,W
09B38:  MOVWF  xE4
....................                   Password[3]=RX_Buffer[7]-0x30; 
09B3A:  MOVLW  30
09B3C:  SUBWF  38,W
09B3E:  MOVWF  xE5
....................                   GuardaEEPROM=ON; 
09B40:  BSF    x7E.3
....................                   Alarma_on;delay_ms(1000);Alarma_off; 
09B42:  BSF    F8B.0
09B44:  BCF    F94.0
09B46:  MOVLW  04
09B48:  MOVLB  7
09B4A:  MOVWF  x58
09B4C:  MOVLW  FA
09B4E:  MOVWF  x6C
09B50:  MOVLB  0
09B52:  CALL   15AA
09B56:  MOVLB  7
09B58:  DECFSZ x58,F
09B5A:  BRA    9B4C
09B5C:  BCF    F8B.0
09B5E:  BCF    F94.0
09B60:  MOVLB  0
....................                } 
....................                printf("page Principal"); 
09B62:  MOVLW  52
09B64:  MOVWF  FF6
09B66:  MOVLW  06
09B68:  MOVWF  FF7
09B6A:  MOVLW  00
09B6C:  MOVWF  FF8
09B6E:  CALL   1E2E
....................                SendDataDisplay(); 
09B72:  CALL   1E60
....................                UP=OFF;DOWN=OFF;RIGHT=OFF;LEFT=OFF; 
09B76:  BCF    x7F.3
09B78:  BCF    x7F.4
09B7A:  BCF    x7F.5
09B7C:  BCF    x7F.6
....................             }else{ 
09B7E:  BRA    9BCE
....................                UP=OFF;DOWN=OFF;RIGHT=OFF;LEFT=OFF; 
09B80:  BCF    x7F.3
09B82:  BCF    x7F.4
09B84:  BCF    x7F.5
09B86:  BCF    x7F.6
....................                printf("page ClaveBad"); 
09B88:  MOVLW  62
09B8A:  MOVWF  FF6
09B8C:  MOVLW  06
09B8E:  MOVWF  FF7
09B90:  MOVLW  00
09B92:  MOVWF  FF8
09B94:  CALL   1E2E
....................                SendDataDisplay(); 
09B98:  CALL   1E60
....................                for(i=0;i<10;i++){ 
09B9C:  MOVLB  2
09B9E:  CLRF   x80
09BA0:  MOVF   x80,W
09BA2:  SUBLW  09
09BA4:  BNC   9BCC
....................                   Alarma_on;delay_ms(150);Alarma_off;delay_ms(150); 
09BA6:  BSF    F8B.0
09BA8:  BCF    F94.0
09BAA:  MOVLW  96
09BAC:  MOVLB  7
09BAE:  MOVWF  x6C
09BB0:  MOVLB  0
09BB2:  CALL   15AA
09BB6:  BCF    F8B.0
09BB8:  BCF    F94.0
09BBA:  MOVLW  96
09BBC:  MOVLB  7
09BBE:  MOVWF  x6C
09BC0:  MOVLB  0
09BC2:  CALL   15AA
....................                } 
09BC6:  MOVLB  2
09BC8:  INCF   x80,F
09BCA:  BRA    9BA0
09BCC:  MOVLB  0
....................             } 
....................          } 
....................       } 
....................     } 
.................... //_--------------------------------------------------------------------------------------------------------------------------------------------------------        
....................  
.................... //_-------------------------------------------------------------------------------------------------------------------------------------------------------- 
....................       if(Menu==1){ //Menu de Tiempos o Temporizadores 
09BCE:  DECFSZ x82,W
09BD0:  BRA    9D68
....................           
....................          printf("fecha.txt=\"Fecha:%02u/%02u/20%02u    Hora: %02u:%02u:%02u  T:%02uC\"",Dia,Mes,Year,Hora,Minuto,Segundo,Temperatura); 
09BD2:  MOVLW  70
09BD4:  MOVWF  FF6
09BD6:  MOVLW  06
09BD8:  MOVWF  FF7
09BDA:  MOVLW  00
09BDC:  MOVWF  FF8
09BDE:  MOVLW  11
09BE0:  MOVLB  7
09BE2:  MOVWF  x5C
09BE4:  MOVLB  0
09BE6:  CALL   71A4
09BEA:  MOVFF  94,759
09BEE:  MOVLW  01
09BF0:  MOVLB  7
09BF2:  MOVWF  x5A
09BF4:  MOVLB  0
09BF6:  CALL   7202
09BFA:  MOVLW  2F
09BFC:  BTFSS  F9E.4
09BFE:  BRA    9BFC
09C00:  MOVWF  FAD
09C02:  MOVFF  93,759
09C06:  MOVLW  01
09C08:  MOVLB  7
09C0A:  MOVWF  x5A
09C0C:  MOVLB  0
09C0E:  CALL   7202
09C12:  MOVLW  2F
09C14:  BTFSS  F9E.4
09C16:  BRA    9C14
09C18:  MOVWF  FAD
09C1A:  MOVLW  32
09C1C:  BTFSS  F9E.4
09C1E:  BRA    9C1C
09C20:  MOVWF  FAD
09C22:  MOVLW  30
09C24:  BTFSS  F9E.4
09C26:  BRA    9C24
09C28:  MOVWF  FAD
09C2A:  MOVFF  92,759
09C2E:  MOVLW  01
09C30:  MOVLB  7
09C32:  MOVWF  x5A
09C34:  MOVLB  0
09C36:  CALL   7202
09C3A:  MOVLW  91
09C3C:  MOVWF  FF6
09C3E:  MOVLW  06
09C40:  MOVWF  FF7
09C42:  MOVLW  00
09C44:  MOVWF  FF8
09C46:  MOVLW  0A
09C48:  MOVLB  7
09C4A:  MOVWF  x5C
09C4C:  MOVLB  0
09C4E:  CALL   71A4
09C52:  MOVFF  95,759
09C56:  MOVLW  01
09C58:  MOVLB  7
09C5A:  MOVWF  x5A
09C5C:  MOVLB  0
09C5E:  CALL   7202
09C62:  MOVLW  3A
09C64:  BTFSS  F9E.4
09C66:  BRA    9C64
09C68:  MOVWF  FAD
09C6A:  MOVFF  96,759
09C6E:  MOVLW  01
09C70:  MOVLB  7
09C72:  MOVWF  x5A
09C74:  MOVLB  0
09C76:  CALL   7202
09C7A:  MOVLW  3A
09C7C:  BTFSS  F9E.4
09C7E:  BRA    9C7C
09C80:  MOVWF  FAD
09C82:  MOVFF  97,759
09C86:  MOVLW  01
09C88:  MOVLB  7
09C8A:  MOVWF  x5A
09C8C:  MOVLB  0
09C8E:  CALL   7202
09C92:  MOVLW  A9
09C94:  MOVWF  FF6
09C96:  MOVLW  06
09C98:  MOVWF  FF7
09C9A:  MOVLW  00
09C9C:  MOVWF  FF8
09C9E:  MOVLW  04
09CA0:  MOVLB  7
09CA2:  MOVWF  x5C
09CA4:  MOVLB  0
09CA6:  CALL   71A4
09CAA:  MOVFF  283,759
09CAE:  MOVLW  01
09CB0:  MOVLB  7
09CB2:  MOVWF  x5A
09CB4:  MOVLB  0
09CB6:  CALL   7202
09CBA:  MOVLW  B0
09CBC:  BTFSS  F9E.4
09CBE:  BRA    9CBC
09CC0:  MOVWF  FAD
09CC2:  MOVLW  43
09CC4:  BTFSS  F9E.4
09CC6:  BRA    9CC4
09CC8:  MOVWF  FAD
09CCA:  MOVLW  22
09CCC:  BTFSS  F9E.4
09CCE:  BRA    9CCC
09CD0:  MOVWF  FAD
....................          SendDataDisplay(); 
09CD2:  CALL   1E60
....................          GuardaEEPROM=OFF; 
09CD6:  BCF    x7E.3
....................          leeTeclasLaterales(); 
09CD8:  CALL   74EC
....................          leeEstados(); 
09CDC:  CALL   768E
....................           
....................          if(RX_Buffer[4]==0x0a){//Selecciono Tiempo de Purga 
09CE0:  MOVF   35,W
09CE2:  SUBLW  0A
09CE4:  BNZ   9D02
....................             printf("page TiempoPurga"); 
09CE6:  MOVLW  B6
09CE8:  MOVWF  FF6
09CEA:  MOVLW  06
09CEC:  MOVWF  FF7
09CEE:  MOVLW  00
09CF0:  MOVWF  FF8
09CF2:  CALL   1E2E
....................             SendDataDisplay();   
09CF6:  CALL   1E60
....................             UP=OFF;DOWN=OFF;RIGHT=OFF;LEFT=OFF; 
09CFA:  BCF    x7F.3
09CFC:  BCF    x7F.4
09CFE:  BCF    x7F.5
09D00:  BCF    x7F.6
....................          } 
....................           
....................          if(RX_Buffer[4]==0x0b){//Selecciono Tiempo de Post-Purga 
09D02:  MOVF   35,W
09D04:  SUBLW  0B
09D06:  BNZ   9D24
....................             printf("page TiempoPostP"); 
09D08:  MOVLW  C8
09D0A:  MOVWF  FF6
09D0C:  MOVLW  06
09D0E:  MOVWF  FF7
09D10:  MOVLW  00
09D12:  MOVWF  FF8
09D14:  CALL   1E2E
....................             SendDataDisplay();   
09D18:  CALL   1E60
....................             UP=OFF;DOWN=OFF;RIGHT=OFF;LEFT=OFF; 
09D1C:  BCF    x7F.3
09D1E:  BCF    x7F.4
09D20:  BCF    x7F.5
09D22:  BCF    x7F.6
....................          } 
....................           
....................          if(RX_Buffer[4]==0x0c){//Selecciono Tiempo de UV 
09D24:  MOVF   35,W
09D26:  SUBLW  0C
09D28:  BNZ   9D46
....................             printf("page TiempoUV"); 
09D2A:  MOVLW  DA
09D2C:  MOVWF  FF6
09D2E:  MOVLW  06
09D30:  MOVWF  FF7
09D32:  MOVLW  00
09D34:  MOVWF  FF8
09D36:  CALL   1E2E
....................             SendDataDisplay();   
09D3A:  CALL   1E60
....................             UP=OFF;DOWN=OFF;RIGHT=OFF;LEFT=OFF; 
09D3E:  BCF    x7F.3
09D40:  BCF    x7F.4
09D42:  BCF    x7F.5
09D44:  BCF    x7F.6
....................          } 
....................           
....................          if(RX_Buffer[4]==0x0d){//Selecciono Tiempo de Silencio 
09D46:  MOVF   35,W
09D48:  SUBLW  0D
09D4A:  BNZ   9D68
....................             printf("page TiempoSilencio"); 
09D4C:  MOVLW  E8
09D4E:  MOVWF  FF6
09D50:  MOVLW  06
09D52:  MOVWF  FF7
09D54:  MOVLW  00
09D56:  MOVWF  FF8
09D58:  CALL   1E2E
....................             SendDataDisplay();   
09D5C:  CALL   1E60
....................             UP=OFF;DOWN=OFF;RIGHT=OFF;LEFT=OFF; 
09D60:  BCF    x7F.3
09D62:  BCF    x7F.4
09D64:  BCF    x7F.5
09D66:  BCF    x7F.6
....................          } 
....................       } 
....................  //_--------------------------------------------------------------------------------------------------------------------------------------------------------        
....................  
.................... //_-------------------------------------------------------------------------------------------------------------------------------------------------------- 
....................       if(Menu==2){ //Menu de Tiempo de Purga 
09D68:  MOVF   x82,W
09D6A:  SUBLW  02
09D6C:  BTFSS  FD8.2
09D6E:  BRA    A01C
....................           
....................          printf("fecha.txt=\"Fecha:%02u/%02u/20%02u    Hora: %02u:%02u:%02u  T:%02uC\"",Dia,Mes,Year,Hora,Minuto,Segundo,Temperatura); 
09D70:  MOVLW  FC
09D72:  MOVWF  FF6
09D74:  MOVLW  06
09D76:  MOVWF  FF7
09D78:  MOVLW  00
09D7A:  MOVWF  FF8
09D7C:  MOVLW  11
09D7E:  MOVLB  7
09D80:  MOVWF  x5C
09D82:  MOVLB  0
09D84:  CALL   71A4
09D88:  MOVFF  94,759
09D8C:  MOVLW  01
09D8E:  MOVLB  7
09D90:  MOVWF  x5A
09D92:  MOVLB  0
09D94:  CALL   7202
09D98:  MOVLW  2F
09D9A:  BTFSS  F9E.4
09D9C:  BRA    9D9A
09D9E:  MOVWF  FAD
09DA0:  MOVFF  93,759
09DA4:  MOVLW  01
09DA6:  MOVLB  7
09DA8:  MOVWF  x5A
09DAA:  MOVLB  0
09DAC:  CALL   7202
09DB0:  MOVLW  2F
09DB2:  BTFSS  F9E.4
09DB4:  BRA    9DB2
09DB6:  MOVWF  FAD
09DB8:  MOVLW  32
09DBA:  BTFSS  F9E.4
09DBC:  BRA    9DBA
09DBE:  MOVWF  FAD
09DC0:  MOVLW  30
09DC2:  BTFSS  F9E.4
09DC4:  BRA    9DC2
09DC6:  MOVWF  FAD
09DC8:  MOVFF  92,759
09DCC:  MOVLW  01
09DCE:  MOVLB  7
09DD0:  MOVWF  x5A
09DD2:  MOVLB  0
09DD4:  CALL   7202
09DD8:  MOVLW  1D
09DDA:  MOVWF  FF6
09DDC:  MOVLW  07
09DDE:  MOVWF  FF7
09DE0:  MOVLW  00
09DE2:  MOVWF  FF8
09DE4:  MOVLW  0A
09DE6:  MOVLB  7
09DE8:  MOVWF  x5C
09DEA:  MOVLB  0
09DEC:  CALL   71A4
09DF0:  MOVFF  95,759
09DF4:  MOVLW  01
09DF6:  MOVLB  7
09DF8:  MOVWF  x5A
09DFA:  MOVLB  0
09DFC:  CALL   7202
09E00:  MOVLW  3A
09E02:  BTFSS  F9E.4
09E04:  BRA    9E02
09E06:  MOVWF  FAD
09E08:  MOVFF  96,759
09E0C:  MOVLW  01
09E0E:  MOVLB  7
09E10:  MOVWF  x5A
09E12:  MOVLB  0
09E14:  CALL   7202
09E18:  MOVLW  3A
09E1A:  BTFSS  F9E.4
09E1C:  BRA    9E1A
09E1E:  MOVWF  FAD
09E20:  MOVFF  97,759
09E24:  MOVLW  01
09E26:  MOVLB  7
09E28:  MOVWF  x5A
09E2A:  MOVLB  0
09E2C:  CALL   7202
09E30:  MOVLW  35
09E32:  MOVWF  FF6
09E34:  MOVLW  07
09E36:  MOVWF  FF7
09E38:  MOVLW  00
09E3A:  MOVWF  FF8
09E3C:  MOVLW  04
09E3E:  MOVLB  7
09E40:  MOVWF  x5C
09E42:  MOVLB  0
09E44:  CALL   71A4
09E48:  MOVFF  283,759
09E4C:  MOVLW  01
09E4E:  MOVLB  7
09E50:  MOVWF  x5A
09E52:  MOVLB  0
09E54:  CALL   7202
09E58:  MOVLW  B0
09E5A:  BTFSS  F9E.4
09E5C:  BRA    9E5A
09E5E:  MOVWF  FAD
09E60:  MOVLW  43
09E62:  BTFSS  F9E.4
09E64:  BRA    9E62
09E66:  MOVWF  FAD
09E68:  MOVLW  22
09E6A:  BTFSS  F9E.4
09E6C:  BRA    9E6A
09E6E:  MOVWF  FAD
....................          SendDataDisplay(); 
09E70:  CALL   1E60
....................          if(RX_Buffer[4]==0x0a){//Selecciono Minutos 
09E74:  MOVF   35,W
09E76:  SUBLW  0A
09E78:  BNZ   9E7E
....................             Minutos=ON; 
09E7A:  BSF    x7E.4
....................             Segundos=OFF; 
09E7C:  BCF    x7E.5
....................          } 
....................           
....................          if(RX_Buffer[4]==0x0b){//Selecciono Segundos 
09E7E:  MOVF   35,W
09E80:  SUBLW  0B
09E82:  BNZ   9E88
....................             Segundos=ON; 
09E84:  BSF    x7E.5
....................             Minutos=OFF; 
09E86:  BCF    x7E.4
....................          }            
....................          
....................          if(RX_Buffer[4]==0x11){ 
09E88:  MOVF   35,W
09E8A:  SUBLW  11
09E8C:  BNZ   9F2A
....................             LEFT=OFF; 
09E8E:  BCF    x7F.6
....................             Segundos=OFF; 
09E90:  BCF    x7E.5
....................             Minutos=OFF; 
09E92:  BCF    x7E.4
....................             printf("page Tiempos"); 
09E94:  MOVLW  42
09E96:  MOVWF  FF6
09E98:  MOVLW  07
09E9A:  MOVWF  FF7
09E9C:  MOVLW  00
09E9E:  MOVWF  FF8
09EA0:  CALL   1E2E
....................             SendDataDisplay();   
09EA4:  CALL   1E60
....................             UP=OFF;DOWN=OFF;RIGHT=OFF;LEFT=OFF; 
09EA8:  BCF    x7F.3
09EAA:  BCF    x7F.4
09EAC:  BCF    x7F.5
09EAE:  BCF    x7F.6
....................             if(!GuardaEEPROM){ 
09EB0:  BTFSC  x7E.3
09EB2:  BRA    9F2A
....................                write_eeprom(4,mPurgap); 
09EB4:  CLRF   FAA
09EB6:  MOVLW  04
09EB8:  MOVWF  FA9
09EBA:  MOVFF  B4,FA8
09EBE:  BCF    FA6.6
09EC0:  BCF    FA6.7
09EC2:  BSF    FA6.2
09EC4:  MOVF   FF2,W
09EC6:  MOVWF  00
09EC8:  BCF    FF2.6
09ECA:  BCF    FF2.7
09ECC:  MOVLB  F
09ECE:  MOVLW  55
09ED0:  MOVWF  FA7
09ED2:  MOVLW  AA
09ED4:  MOVWF  FA7
09ED6:  BSF    FA6.1
09ED8:  BTFSC  FA6.1
09EDA:  BRA    9ED8
09EDC:  BCF    FA6.2
09EDE:  MOVF   00,W
09EE0:  IORWF  FF2,F
....................                delay_ms(10); 
09EE2:  MOVLW  0A
09EE4:  MOVLB  7
09EE6:  MOVWF  x6C
09EE8:  MOVLB  0
09EEA:  CALL   15AA
....................                write_eeprom(5,sPurgap); 
09EEE:  CLRF   FAA
09EF0:  MOVLW  05
09EF2:  MOVWF  FA9
09EF4:  MOVFF  B2,FA8
09EF8:  BCF    FA6.6
09EFA:  BCF    FA6.7
09EFC:  BSF    FA6.2
09EFE:  MOVF   FF2,W
09F00:  MOVWF  00
09F02:  BCF    FF2.6
09F04:  BCF    FF2.7
09F06:  MOVLB  F
09F08:  MOVLW  55
09F0A:  MOVWF  FA7
09F0C:  MOVLW  AA
09F0E:  MOVWF  FA7
09F10:  BSF    FA6.1
09F12:  BTFSC  FA6.1
09F14:  BRA    9F12
09F16:  BCF    FA6.2
09F18:  MOVF   00,W
09F1A:  IORWF  FF2,F
....................                delay_ms(10); 
09F1C:  MOVLW  0A
09F1E:  MOVLB  7
09F20:  MOVWF  x6C
09F22:  MOVLB  0
09F24:  CALL   15AA
....................                //mPurga=mPurgap; 
....................                //sPurga=sPurgap; 
....................                GuardaEEPROM=ON; 
09F28:  BSF    x7E.3
....................             } 
....................          } 
....................           
....................          if(RX_Buffer[4]==0x0c || RX_Buffer[4]==0x0d){//Tecla arriba Oprimida 
09F2A:  MOVF   35,W
09F2C:  SUBLW  0C
09F2E:  BZ    9F36
09F30:  MOVF   35,W
09F32:  SUBLW  0D
09F34:  BNZ   9F60
....................             delay_ms(10); 
09F36:  MOVLW  0A
09F38:  MOVLB  7
09F3A:  MOVWF  x6C
09F3C:  MOVLB  0
09F3E:  CALL   15AA
....................             if(RX_Buffer[4]==0x0c || RX_Buffer[4]==0x0d){//Tecla arriba Oprimida 
09F42:  MOVF   35,W
09F44:  SUBLW  0C
09F46:  BZ    9F4E
09F48:  MOVF   35,W
09F4A:  SUBLW  0D
09F4C:  BNZ   9F60
....................                UP=OFF; 
09F4E:  BCF    x7F.3
....................                if(Segundos){ 
09F50:  BTFSS  x7E.5
09F52:  BRA    9F56
....................                   sPurgap++; 
09F54:  INCF   xB2,F
....................                } 
....................                if(Minutos){ 
09F56:  BTFSS  x7E.4
09F58:  BRA    9F5C
....................                   mPurgap++; 
09F5A:  INCF   xB4,F
....................                }   
....................                RX_Buffer[4]=0x00;   
09F5C:  CLRF   35
....................                RX_Buffer2[4]=0x00; 
09F5E:  CLRF   40
....................             } 
....................          } 
....................           
....................          if(RX_Buffer[4]==0x0f || RX_Buffer[4]==0x0e){//Tecla abajo oprimida 
09F60:  MOVF   35,W
09F62:  SUBLW  0F
09F64:  BZ    9F6C
09F66:  MOVF   35,W
09F68:  SUBLW  0E
09F6A:  BNZ   9F9A
....................             delay_ms(10); 
09F6C:  MOVLW  0A
09F6E:  MOVLB  7
09F70:  MOVWF  x6C
09F72:  MOVLB  0
09F74:  CALL   15AA
....................             if(RX_Buffer[4]==0x0f || RX_Buffer[4]==0x0e){//Tecla abajo oprimida 
09F78:  MOVF   35,W
09F7A:  SUBLW  0F
09F7C:  BZ    9F84
09F7E:  MOVF   35,W
09F80:  SUBLW  0E
09F82:  BNZ   9F9A
....................                DOWN=OFF; 
09F84:  BCF    x7F.4
....................                if(Segundos && sPurgap>0){ 
09F86:  BTFSS  x7E.5
09F88:  BRA    9F90
09F8A:  MOVF   xB2,F
09F8C:  BZ    9F90
....................                   sPurgap--; 
09F8E:  DECF   xB2,F
....................                } 
....................                if(Minutos){ 
09F90:  BTFSS  x7E.4
09F92:  BRA    9F96
....................                   mPurgap--; 
09F94:  DECF   xB4,F
....................                } 
....................                RX_Buffer[4]=0x00;   
09F96:  CLRF   35
....................                RX_Buffer2[4]=0x00; 
09F98:  CLRF   40
....................             } 
....................          } 
....................           
....................          if(mPurgap<1)mPurgap=99; 
09F9A:  MOVF   xB4,F
09F9C:  BNZ   9FA2
09F9E:  MOVLW  63
09FA0:  MOVWF  xB4
....................          if(mPurgap>99)mPurgap=1; 
09FA2:  MOVF   xB4,W
09FA4:  SUBLW  63
09FA6:  BC    9FAC
09FA8:  MOVLW  01
09FAA:  MOVWF  xB4
....................          if(sPurgap>59)sPurgap=0; 
09FAC:  MOVF   xB2,W
09FAE:  SUBLW  3B
09FB0:  BTFSS  FD8.0
09FB2:  CLRF   xB2
....................              
....................          printf("tminest.txt=\"%02u\"",mPurgap); 
09FB4:  MOVLW  50
09FB6:  MOVWF  FF6
09FB8:  MOVLW  07
09FBA:  MOVWF  FF7
09FBC:  MOVLW  00
09FBE:  MOVWF  FF8
09FC0:  MOVLW  0D
09FC2:  MOVLB  7
09FC4:  MOVWF  x5C
09FC6:  MOVLB  0
09FC8:  CALL   71A4
09FCC:  MOVFF  B4,759
09FD0:  MOVLW  01
09FD2:  MOVLB  7
09FD4:  MOVWF  x5A
09FD6:  MOVLB  0
09FD8:  CALL   7202
09FDC:  MOVLW  22
09FDE:  BTFSS  F9E.4
09FE0:  BRA    9FDE
09FE2:  MOVWF  FAD
....................          SendDataDisplay(); 
09FE4:  CALL   1E60
....................          printf("tsecest.txt=\"%02u\"",sPurgap); 
09FE8:  MOVLW  64
09FEA:  MOVWF  FF6
09FEC:  MOVLW  07
09FEE:  MOVWF  FF7
09FF0:  MOVLW  00
09FF2:  MOVWF  FF8
09FF4:  MOVLW  0D
09FF6:  MOVLB  7
09FF8:  MOVWF  x5C
09FFA:  MOVLB  0
09FFC:  CALL   71A4
0A000:  MOVFF  B2,759
0A004:  MOVLW  01
0A006:  MOVLB  7
0A008:  MOVWF  x5A
0A00A:  MOVLB  0
0A00C:  CALL   7202
0A010:  MOVLW  22
0A012:  BTFSS  F9E.4
0A014:  BRA    A012
0A016:  MOVWF  FAD
....................          SendDataDisplay(); 
0A018:  CALL   1E60
....................     } 
.................... //_--------------------------------------------------------------------------------------------------------------------------------------------------------        
....................  
.................... //_-------------------------------------------------------------------------------------------------------------------------------------------------------- 
....................       if(Menu==3){ //Menu de Tiempo de Post-Purga 
0A01C:  MOVF   x82,W
0A01E:  SUBLW  03
0A020:  BTFSS  FD8.2
0A022:  BRA    A2D0
....................           
....................          printf("fecha.txt=\"Fecha:%02u/%02u/20%02u    Hora: %02u:%02u:%02u  T:%02uC\"",Dia,Mes,Year,Hora,Minuto,Segundo,Temperatura); 
0A024:  MOVLW  78
0A026:  MOVWF  FF6
0A028:  MOVLW  07
0A02A:  MOVWF  FF7
0A02C:  MOVLW  00
0A02E:  MOVWF  FF8
0A030:  MOVLW  11
0A032:  MOVLB  7
0A034:  MOVWF  x5C
0A036:  MOVLB  0
0A038:  CALL   71A4
0A03C:  MOVFF  94,759
0A040:  MOVLW  01
0A042:  MOVLB  7
0A044:  MOVWF  x5A
0A046:  MOVLB  0
0A048:  CALL   7202
0A04C:  MOVLW  2F
0A04E:  BTFSS  F9E.4
0A050:  BRA    A04E
0A052:  MOVWF  FAD
0A054:  MOVFF  93,759
0A058:  MOVLW  01
0A05A:  MOVLB  7
0A05C:  MOVWF  x5A
0A05E:  MOVLB  0
0A060:  CALL   7202
0A064:  MOVLW  2F
0A066:  BTFSS  F9E.4
0A068:  BRA    A066
0A06A:  MOVWF  FAD
0A06C:  MOVLW  32
0A06E:  BTFSS  F9E.4
0A070:  BRA    A06E
0A072:  MOVWF  FAD
0A074:  MOVLW  30
0A076:  BTFSS  F9E.4
0A078:  BRA    A076
0A07A:  MOVWF  FAD
0A07C:  MOVFF  92,759
0A080:  MOVLW  01
0A082:  MOVLB  7
0A084:  MOVWF  x5A
0A086:  MOVLB  0
0A088:  CALL   7202
0A08C:  MOVLW  99
0A08E:  MOVWF  FF6
0A090:  MOVLW  07
0A092:  MOVWF  FF7
0A094:  MOVLW  00
0A096:  MOVWF  FF8
0A098:  MOVLW  0A
0A09A:  MOVLB  7
0A09C:  MOVWF  x5C
0A09E:  MOVLB  0
0A0A0:  CALL   71A4
0A0A4:  MOVFF  95,759
0A0A8:  MOVLW  01
0A0AA:  MOVLB  7
0A0AC:  MOVWF  x5A
0A0AE:  MOVLB  0
0A0B0:  CALL   7202
0A0B4:  MOVLW  3A
0A0B6:  BTFSS  F9E.4
0A0B8:  BRA    A0B6
0A0BA:  MOVWF  FAD
0A0BC:  MOVFF  96,759
0A0C0:  MOVLW  01
0A0C2:  MOVLB  7
0A0C4:  MOVWF  x5A
0A0C6:  MOVLB  0
0A0C8:  CALL   7202
0A0CC:  MOVLW  3A
0A0CE:  BTFSS  F9E.4
0A0D0:  BRA    A0CE
0A0D2:  MOVWF  FAD
0A0D4:  MOVFF  97,759
0A0D8:  MOVLW  01
0A0DA:  MOVLB  7
0A0DC:  MOVWF  x5A
0A0DE:  MOVLB  0
0A0E0:  CALL   7202
0A0E4:  MOVLW  B1
0A0E6:  MOVWF  FF6
0A0E8:  MOVLW  07
0A0EA:  MOVWF  FF7
0A0EC:  MOVLW  00
0A0EE:  MOVWF  FF8
0A0F0:  MOVLW  04
0A0F2:  MOVLB  7
0A0F4:  MOVWF  x5C
0A0F6:  MOVLB  0
0A0F8:  CALL   71A4
0A0FC:  MOVFF  283,759
0A100:  MOVLW  01
0A102:  MOVLB  7
0A104:  MOVWF  x5A
0A106:  MOVLB  0
0A108:  CALL   7202
0A10C:  MOVLW  B0
0A10E:  BTFSS  F9E.4
0A110:  BRA    A10E
0A112:  MOVWF  FAD
0A114:  MOVLW  43
0A116:  BTFSS  F9E.4
0A118:  BRA    A116
0A11A:  MOVWF  FAD
0A11C:  MOVLW  22
0A11E:  BTFSS  F9E.4
0A120:  BRA    A11E
0A122:  MOVWF  FAD
....................          SendDataDisplay(); 
0A124:  CALL   1E60
....................          if(RX_Buffer[4]==0x0a){//Selecciono Minutos 
0A128:  MOVF   35,W
0A12A:  SUBLW  0A
0A12C:  BNZ   A132
....................             Minutos=ON; 
0A12E:  BSF    x7E.4
....................             Segundos=OFF; 
0A130:  BCF    x7E.5
....................          } 
....................           
....................          if(RX_Buffer[4]==0x0b){//Selecciono Segundos 
0A132:  MOVF   35,W
0A134:  SUBLW  0B
0A136:  BNZ   A13C
....................             Segundos=ON; 
0A138:  BSF    x7E.5
....................             Minutos=OFF; 
0A13A:  BCF    x7E.4
....................          }   
....................           
....................          if(RX_Buffer[4]==0x11){ 
0A13C:  MOVF   35,W
0A13E:  SUBLW  11
0A140:  BNZ   A1DE
....................             LEFT=OFF; 
0A142:  BCF    x7F.6
....................             Segundos=OFF; 
0A144:  BCF    x7E.5
....................             Minutos=OFF; 
0A146:  BCF    x7E.4
....................             printf("page Tiempos"); 
0A148:  MOVLW  BE
0A14A:  MOVWF  FF6
0A14C:  MOVLW  07
0A14E:  MOVWF  FF7
0A150:  MOVLW  00
0A152:  MOVWF  FF8
0A154:  CALL   1E2E
....................             SendDataDisplay();   
0A158:  CALL   1E60
....................             UP=OFF;DOWN=OFF;RIGHT=OFF;LEFT=OFF; 
0A15C:  BCF    x7F.3
0A15E:  BCF    x7F.4
0A160:  BCF    x7F.5
0A162:  BCF    x7F.6
....................             if(!GuardaEEPROM){ 
0A164:  BTFSC  x7E.3
0A166:  BRA    A1DE
....................                write_eeprom(6,mPPurgap); 
0A168:  CLRF   FAA
0A16A:  MOVLW  06
0A16C:  MOVWF  FA9
0A16E:  MOVFF  B8,FA8
0A172:  BCF    FA6.6
0A174:  BCF    FA6.7
0A176:  BSF    FA6.2
0A178:  MOVF   FF2,W
0A17A:  MOVWF  00
0A17C:  BCF    FF2.6
0A17E:  BCF    FF2.7
0A180:  MOVLB  F
0A182:  MOVLW  55
0A184:  MOVWF  FA7
0A186:  MOVLW  AA
0A188:  MOVWF  FA7
0A18A:  BSF    FA6.1
0A18C:  BTFSC  FA6.1
0A18E:  BRA    A18C
0A190:  BCF    FA6.2
0A192:  MOVF   00,W
0A194:  IORWF  FF2,F
....................                delay_ms(10); 
0A196:  MOVLW  0A
0A198:  MOVLB  7
0A19A:  MOVWF  x6C
0A19C:  MOVLB  0
0A19E:  CALL   15AA
....................                write_eeprom(7,sPPurgap); 
0A1A2:  CLRF   FAA
0A1A4:  MOVLW  07
0A1A6:  MOVWF  FA9
0A1A8:  MOVFF  B6,FA8
0A1AC:  BCF    FA6.6
0A1AE:  BCF    FA6.7
0A1B0:  BSF    FA6.2
0A1B2:  MOVF   FF2,W
0A1B4:  MOVWF  00
0A1B6:  BCF    FF2.6
0A1B8:  BCF    FF2.7
0A1BA:  MOVLB  F
0A1BC:  MOVLW  55
0A1BE:  MOVWF  FA7
0A1C0:  MOVLW  AA
0A1C2:  MOVWF  FA7
0A1C4:  BSF    FA6.1
0A1C6:  BTFSC  FA6.1
0A1C8:  BRA    A1C6
0A1CA:  BCF    FA6.2
0A1CC:  MOVF   00,W
0A1CE:  IORWF  FF2,F
....................                delay_ms(10); 
0A1D0:  MOVLW  0A
0A1D2:  MOVLB  7
0A1D4:  MOVWF  x6C
0A1D6:  MOVLB  0
0A1D8:  CALL   15AA
....................                GuardaEEPROM=ON; 
0A1DC:  BSF    x7E.3
....................             } 
....................          }         
....................           
....................          if(RX_Buffer[4]==0x0c || RX_Buffer[4]==0x0d){//Tecla arriba Oprimida 
0A1DE:  MOVF   35,W
0A1E0:  SUBLW  0C
0A1E2:  BZ    A1EA
0A1E4:  MOVF   35,W
0A1E6:  SUBLW  0D
0A1E8:  BNZ   A214
....................             delay_ms(10); 
0A1EA:  MOVLW  0A
0A1EC:  MOVLB  7
0A1EE:  MOVWF  x6C
0A1F0:  MOVLB  0
0A1F2:  CALL   15AA
....................             if(RX_Buffer[4]==0x0c || RX_Buffer[4]==0x0d){//Tecla arriba Oprimida 
0A1F6:  MOVF   35,W
0A1F8:  SUBLW  0C
0A1FA:  BZ    A202
0A1FC:  MOVF   35,W
0A1FE:  SUBLW  0D
0A200:  BNZ   A214
....................                UP=OFF; 
0A202:  BCF    x7F.3
....................                if(Segundos){ 
0A204:  BTFSS  x7E.5
0A206:  BRA    A20A
....................                   sPPurgap++; 
0A208:  INCF   xB6,F
....................                } 
....................                if(Minutos){ 
0A20A:  BTFSS  x7E.4
0A20C:  BRA    A210
....................                   mPPurgap++; 
0A20E:  INCF   xB8,F
....................                }   
....................                RX_Buffer[4]=0x00;   
0A210:  CLRF   35
....................                RX_Buffer2[4]=0x00; 
0A212:  CLRF   40
....................             } 
....................          } 
....................           
....................          if(RX_Buffer[4]==0x0f || RX_Buffer[4]==0x0e){//Tecla abajo oprimida 
0A214:  MOVF   35,W
0A216:  SUBLW  0F
0A218:  BZ    A220
0A21A:  MOVF   35,W
0A21C:  SUBLW  0E
0A21E:  BNZ   A24E
....................             delay_ms(10); 
0A220:  MOVLW  0A
0A222:  MOVLB  7
0A224:  MOVWF  x6C
0A226:  MOVLB  0
0A228:  CALL   15AA
....................             if(RX_Buffer[4]==0x0f || RX_Buffer[4]==0x0e){//Tecla abajo oprimida 
0A22C:  MOVF   35,W
0A22E:  SUBLW  0F
0A230:  BZ    A238
0A232:  MOVF   35,W
0A234:  SUBLW  0E
0A236:  BNZ   A24E
....................                DOWN=OFF; 
0A238:  BCF    x7F.4
....................                if(Segundos && sPPurgap>0){ 
0A23A:  BTFSS  x7E.5
0A23C:  BRA    A244
0A23E:  MOVF   xB6,F
0A240:  BZ    A244
....................                   sPPurgap--; 
0A242:  DECF   xB6,F
....................                } 
....................                if(Minutos){ 
0A244:  BTFSS  x7E.4
0A246:  BRA    A24A
....................                   mPPurgap--; 
0A248:  DECF   xB8,F
....................                } 
....................                RX_Buffer[4]=0x00;   
0A24A:  CLRF   35
....................                RX_Buffer2[4]=0x00; 
0A24C:  CLRF   40
....................             } 
....................          } 
....................           
....................          if(mPPurgap<1)mPPurgap=99; 
0A24E:  MOVF   xB8,F
0A250:  BNZ   A256
0A252:  MOVLW  63
0A254:  MOVWF  xB8
....................          if(mPPurgap>99)mPPurgap=1; 
0A256:  MOVF   xB8,W
0A258:  SUBLW  63
0A25A:  BC    A260
0A25C:  MOVLW  01
0A25E:  MOVWF  xB8
....................          if(sPPurgap>59)sPPurgap=0; 
0A260:  MOVF   xB6,W
0A262:  SUBLW  3B
0A264:  BTFSS  FD8.0
0A266:  CLRF   xB6
....................              
....................          printf("tminest.txt=\"%02u\"",mPPurgap); 
0A268:  MOVLW  CC
0A26A:  MOVWF  FF6
0A26C:  MOVLW  07
0A26E:  MOVWF  FF7
0A270:  MOVLW  00
0A272:  MOVWF  FF8
0A274:  MOVLW  0D
0A276:  MOVLB  7
0A278:  MOVWF  x5C
0A27A:  MOVLB  0
0A27C:  CALL   71A4
0A280:  MOVFF  B8,759
0A284:  MOVLW  01
0A286:  MOVLB  7
0A288:  MOVWF  x5A
0A28A:  MOVLB  0
0A28C:  CALL   7202
0A290:  MOVLW  22
0A292:  BTFSS  F9E.4
0A294:  BRA    A292
0A296:  MOVWF  FAD
....................          SendDataDisplay(); 
0A298:  CALL   1E60
....................          printf("tsecest.txt=\"%02u\"",sPPurgap); 
0A29C:  MOVLW  E0
0A29E:  MOVWF  FF6
0A2A0:  MOVLW  07
0A2A2:  MOVWF  FF7
0A2A4:  MOVLW  00
0A2A6:  MOVWF  FF8
0A2A8:  MOVLW  0D
0A2AA:  MOVLB  7
0A2AC:  MOVWF  x5C
0A2AE:  MOVLB  0
0A2B0:  CALL   71A4
0A2B4:  MOVFF  B6,759
0A2B8:  MOVLW  01
0A2BA:  MOVLB  7
0A2BC:  MOVWF  x5A
0A2BE:  MOVLB  0
0A2C0:  CALL   7202
0A2C4:  MOVLW  22
0A2C6:  BTFSS  F9E.4
0A2C8:  BRA    A2C6
0A2CA:  MOVWF  FAD
....................          SendDataDisplay(); 
0A2CC:  CALL   1E60
....................     } 
.................... //_--------------------------------------------------------------------------------------------------------------------------------------------------------        
....................  
.................... //_-------------------------------------------------------------------------------------------------------------------------------------------------------- 
....................       if(Menu==4){//Menu de Purga. 
0A2D0:  MOVF   x82,W
0A2D2:  SUBLW  04
0A2D4:  BTFSS  FD8.2
0A2D6:  BRA    A4CC
....................           
....................          Purga=ON; 
0A2D8:  BSF    x81.1
....................          tiempo_purga=1; 
0A2DA:  BSF    x7D.7
....................          printf("titulo.txt=\"Purga\""); 
0A2DC:  MOVLW  F4
0A2DE:  MOVWF  FF6
0A2E0:  MOVLW  07
0A2E2:  MOVWF  FF7
0A2E4:  MOVLW  00
0A2E6:  MOVWF  FF8
0A2E8:  CALL   1E2E
....................          SendDataDisplay(); 
0A2EC:  CALL   1E60
....................           
....................          LuzBlanca_off;Alarma_off;Aux_off; 
0A2F0:  BSF    F8C.0
0A2F2:  BCF    F95.0
0A2F4:  BCF    F8B.0
0A2F6:  BCF    F94.0
0A2F8:  BSF    F8C.2
0A2FA:  BCF    F95.2
....................          printf("minPurga.txt=\"%02u\"",mPurga); 
0A2FC:  MOVLW  08
0A2FE:  MOVWF  FF6
0A300:  MOVLW  08
0A302:  MOVWF  FF7
0A304:  MOVLW  00
0A306:  MOVWF  FF8
0A308:  MOVLW  0E
0A30A:  MOVLB  7
0A30C:  MOVWF  x5C
0A30E:  MOVLB  0
0A310:  CALL   71A4
0A314:  MOVFF  B3,759
0A318:  MOVLW  01
0A31A:  MOVLB  7
0A31C:  MOVWF  x5A
0A31E:  MOVLB  0
0A320:  CALL   7202
0A324:  MOVLW  22
0A326:  BTFSS  F9E.4
0A328:  BRA    A326
0A32A:  MOVWF  FAD
....................          SendDataDisplay(); 
0A32C:  CALL   1E60
....................          printf("secPurga.txt=\"%02u\"",sPurga); 
0A330:  MOVLW  1C
0A332:  MOVWF  FF6
0A334:  MOVLW  08
0A336:  MOVWF  FF7
0A338:  MOVLW  00
0A33A:  MOVWF  FF8
0A33C:  MOVLW  0E
0A33E:  MOVLB  7
0A340:  MOVWF  x5C
0A342:  MOVLB  0
0A344:  CALL   71A4
0A348:  MOVFF  B1,759
0A34C:  MOVLW  01
0A34E:  MOVLB  7
0A350:  MOVWF  x5A
0A352:  MOVLB  0
0A354:  CALL   7202
0A358:  MOVLW  22
0A35A:  BTFSS  F9E.4
0A35C:  BRA    A35A
0A35E:  MOVWF  FAD
....................          SendDataDisplay(); 
0A360:  CALL   1E60
....................          printf("fecha.txt=\"Fecha:%02u/%02u/20%02u    Hora: %02u:%02u:%02u  T:%02uC\"",Dia,Mes,Year,Hora,Minuto,Segundo,Temperatura); 
0A364:  MOVLW  30
0A366:  MOVWF  FF6
0A368:  MOVLW  08
0A36A:  MOVWF  FF7
0A36C:  MOVLW  00
0A36E:  MOVWF  FF8
0A370:  MOVLW  11
0A372:  MOVLB  7
0A374:  MOVWF  x5C
0A376:  MOVLB  0
0A378:  CALL   71A4
0A37C:  MOVFF  94,759
0A380:  MOVLW  01
0A382:  MOVLB  7
0A384:  MOVWF  x5A
0A386:  MOVLB  0
0A388:  CALL   7202
0A38C:  MOVLW  2F
0A38E:  BTFSS  F9E.4
0A390:  BRA    A38E
0A392:  MOVWF  FAD
0A394:  MOVFF  93,759
0A398:  MOVLW  01
0A39A:  MOVLB  7
0A39C:  MOVWF  x5A
0A39E:  MOVLB  0
0A3A0:  CALL   7202
0A3A4:  MOVLW  2F
0A3A6:  BTFSS  F9E.4
0A3A8:  BRA    A3A6
0A3AA:  MOVWF  FAD
0A3AC:  MOVLW  32
0A3AE:  BTFSS  F9E.4
0A3B0:  BRA    A3AE
0A3B2:  MOVWF  FAD
0A3B4:  MOVLW  30
0A3B6:  BTFSS  F9E.4
0A3B8:  BRA    A3B6
0A3BA:  MOVWF  FAD
0A3BC:  MOVFF  92,759
0A3C0:  MOVLW  01
0A3C2:  MOVLB  7
0A3C4:  MOVWF  x5A
0A3C6:  MOVLB  0
0A3C8:  CALL   7202
0A3CC:  MOVLW  51
0A3CE:  MOVWF  FF6
0A3D0:  MOVLW  08
0A3D2:  MOVWF  FF7
0A3D4:  MOVLW  00
0A3D6:  MOVWF  FF8
0A3D8:  MOVLW  0A
0A3DA:  MOVLB  7
0A3DC:  MOVWF  x5C
0A3DE:  MOVLB  0
0A3E0:  CALL   71A4
0A3E4:  MOVFF  95,759
0A3E8:  MOVLW  01
0A3EA:  MOVLB  7
0A3EC:  MOVWF  x5A
0A3EE:  MOVLB  0
0A3F0:  CALL   7202
0A3F4:  MOVLW  3A
0A3F6:  BTFSS  F9E.4
0A3F8:  BRA    A3F6
0A3FA:  MOVWF  FAD
0A3FC:  MOVFF  96,759
0A400:  MOVLW  01
0A402:  MOVLB  7
0A404:  MOVWF  x5A
0A406:  MOVLB  0
0A408:  CALL   7202
0A40C:  MOVLW  3A
0A40E:  BTFSS  F9E.4
0A410:  BRA    A40E
0A412:  MOVWF  FAD
0A414:  MOVFF  97,759
0A418:  MOVLW  01
0A41A:  MOVLB  7
0A41C:  MOVWF  x5A
0A41E:  MOVLB  0
0A420:  CALL   7202
0A424:  MOVLW  69
0A426:  MOVWF  FF6
0A428:  MOVLW  08
0A42A:  MOVWF  FF7
0A42C:  MOVLW  00
0A42E:  MOVWF  FF8
0A430:  MOVLW  04
0A432:  MOVLB  7
0A434:  MOVWF  x5C
0A436:  MOVLB  0
0A438:  CALL   71A4
0A43C:  MOVFF  283,759
0A440:  MOVLW  01
0A442:  MOVLB  7
0A444:  MOVWF  x5A
0A446:  MOVLB  0
0A448:  CALL   7202
0A44C:  MOVLW  B0
0A44E:  BTFSS  F9E.4
0A450:  BRA    A44E
0A452:  MOVWF  FAD
0A454:  MOVLW  43
0A456:  BTFSS  F9E.4
0A458:  BRA    A456
0A45A:  MOVWF  FAD
0A45C:  MOVLW  22
0A45E:  BTFSS  F9E.4
0A460:  BRA    A45E
0A462:  MOVWF  FAD
....................          SendDataDisplay(); 
0A464:  CALL   1E60
....................           
....................          VelocidadMotor(Vel1); 
0A468:  MOVFF  90,758
0A46C:  CALL   1B50
....................           
....................          if(RX_Buffer[4]==0x11){ 
0A470:  MOVF   35,W
0A472:  SUBLW  11
0A474:  BNZ   A49C
....................             LEFT=OFF; 
0A476:  BCF    x7F.6
....................             tiempo_purga=0; 
0A478:  BCF    x7D.7
....................             printf("page Principal"); 
0A47A:  MOVLW  76
0A47C:  MOVWF  FF6
0A47E:  MOVLW  08
0A480:  MOVWF  FF7
0A482:  MOVLW  00
0A484:  MOVWF  FF8
0A486:  CALL   1E2E
....................             SendDataDisplay(); 
0A48A:  CALL   1E60
....................             UP=OFF;DOWN=OFF;RIGHT=OFF;LEFT=OFF; 
0A48E:  BCF    x7F.3
0A490:  BCF    x7F.4
0A492:  BCF    x7F.5
0A494:  BCF    x7F.6
....................             flag_luz=1;flag_blower=1;flag_toma=1; 
0A496:  BSF    x7D.3
0A498:  BSF    x7D.1
0A49A:  BSF    x7D.2
....................          } 
....................         
....................          if((sPurga>=sPurgap)&&(mPurga>=mPurgap)){ 
0A49C:  MOVF   xB2,W
0A49E:  SUBWF  xB1,W
0A4A0:  BNC   A4CC
0A4A2:  MOVF   xB4,W
0A4A4:  SUBWF  xB3,W
0A4A6:  BNC   A4CC
....................             tiempo_purga=0;flag_luz=1;flag_blower=1;flag_toma=1; 
0A4A8:  BCF    x7D.7
0A4AA:  BSF    x7D.3
0A4AC:  BSF    x7D.1
0A4AE:  BSF    x7D.2
....................             printf("page Principal"); 
0A4B0:  MOVLW  86
0A4B2:  MOVWF  FF6
0A4B4:  MOVLW  08
0A4B6:  MOVWF  FF7
0A4B8:  MOVLW  00
0A4BA:  MOVWF  FF8
0A4BC:  CALL   1E2E
....................             SendDataDisplay(); 
0A4C0:  CALL   1E60
....................             UP=OFF;DOWN=OFF;RIGHT=OFF;LEFT=OFF; 
0A4C4:  BCF    x7F.3
0A4C6:  BCF    x7F.4
0A4C8:  BCF    x7F.5
0A4CA:  BCF    x7F.6
....................          }       
....................       } 
.................... //_--------------------------------------------------------------------------------------------------------------------------------------------------------        
....................  
.................... //_-------------------------------------------------------------------------------------------------------------------------------------------------------- 
....................       if(Menu==5){ //Menu General. 
0A4CC:  MOVF   x82,W
0A4CE:  SUBLW  05
0A4D0:  BTFSS  FD8.2
0A4D2:  GOTO   B3EC
....................          tiempo_postpurga=0; 
0A4D6:  BCF    x80.3
....................          sPPurga=0; 
0A4D8:  CLRF   xB5
....................          mPPurga=0; 
0A4DA:  CLRF   xB7
....................          Purga=OFF; 
0A4DC:  BCF    x81.1
....................          w=0; 
0A4DE:  BCF    x7D.4
....................          UVTime=Tuv[0]+(Tuv[1]*10)+(Tuv[2]*100)+(Tuv[3]*1000);          
0A4E0:  MOVFF  DB,759
0A4E4:  MOVLW  0A
0A4E6:  MOVLB  7
0A4E8:  MOVWF  x5A
0A4EA:  MOVLB  0
0A4EC:  CALL   7A3A
0A4F0:  MOVF   01,W
0A4F2:  ADDWF  xDA,W
0A4F4:  MOVLB  7
0A4F6:  MOVWF  x58
0A4F8:  MOVFF  DC,759
0A4FC:  MOVLW  64
0A4FE:  MOVWF  x5A
0A500:  MOVLB  0
0A502:  CALL   7A3A
0A506:  MOVF   01,W
0A508:  MOVLB  7
0A50A:  ADDWF  x58,F
0A50C:  CLRF   03
0A50E:  MOVLB  0
0A510:  MOVF   xDD,W
0A512:  MOVWF  00
0A514:  BTFSC  FE8.7
0A516:  DECF   03,F
0A518:  MOVLB  7
0A51A:  MOVWF  x59
0A51C:  MOVFF  03,75A
0A520:  MOVFF  03,75C
0A524:  MOVWF  x5B
0A526:  MOVLW  03
0A528:  MOVWF  x5E
0A52A:  MOVLW  E8
0A52C:  MOVWF  x5D
0A52E:  MOVLB  0
0A530:  CALL   7A88
0A534:  MOVFF  02,03
0A538:  MOVF   01,W
0A53A:  MOVLB  7
0A53C:  ADDWF  x58,W
0A53E:  MOVWF  01
0A540:  MOVLW  00
0A542:  ADDWFC 03,F
0A544:  MOVFF  01,78E
0A548:  MOVFF  03,78F
0A54C:  MOVLB  0
0A54E:  CALL   4648
0A552:  MOVFF  03,121
0A556:  MOVFF  02,120
0A55A:  MOVFF  01,11F
0A55E:  MOVFF  00,11E
....................           
....................          if(imprimir==1){ 
0A562:  BTFSS  x7D.0
0A564:  BRA    A714
....................             printf("fex.txt=\"P. Pre-Filtro: %2.2finH20\"",Filtro_Inflow); 
0A566:  MOVLW  96
0A568:  MOVWF  FF6
0A56A:  MOVLW  08
0A56C:  MOVWF  FF7
0A56E:  MOVLW  00
0A570:  MOVWF  FF8
0A572:  MOVLW  18
0A574:  MOVLB  7
0A576:  MOVWF  x5C
0A578:  MOVLB  0
0A57A:  CALL   71A4
0A57E:  MOVLW  89
0A580:  MOVWF  FE9
0A582:  MOVFF  F9,75D
0A586:  MOVFF  F8,75C
0A58A:  MOVFF  F7,75B
0A58E:  MOVFF  F6,75A
0A592:  MOVLW  02
0A594:  MOVLB  7
0A596:  MOVWF  x5E
0A598:  MOVLB  0
0A59A:  CALL   7BA0
0A59E:  MOVLW  B3
0A5A0:  MOVWF  FF6
0A5A2:  MOVLW  08
0A5A4:  MOVWF  FF7
0A5A6:  MOVLW  00
0A5A8:  MOVWF  FF8
0A5AA:  MOVLW  06
0A5AC:  MOVLB  7
0A5AE:  MOVWF  x5C
0A5B0:  MOVLB  0
0A5B2:  CALL   71A4
....................             SendDataDisplay(); 
0A5B6:  CALL   1E60
....................             printf("fdown.txt=\"P. Filtro HEPA: %2.2finH20\"",Filtro_Downflow); 
0A5BA:  MOVLW  BA
0A5BC:  MOVWF  FF6
0A5BE:  MOVLW  08
0A5C0:  MOVWF  FF7
0A5C2:  MOVLW  00
0A5C4:  MOVWF  FF8
0A5C6:  MOVLW  1B
0A5C8:  MOVLB  7
0A5CA:  MOVWF  x5C
0A5CC:  MOVLB  0
0A5CE:  CALL   71A4
0A5D2:  MOVLW  89
0A5D4:  MOVWF  FE9
0A5D6:  MOVFF  F5,75D
0A5DA:  MOVFF  F4,75C
0A5DE:  MOVFF  F3,75B
0A5E2:  MOVFF  F2,75A
0A5E6:  MOVLW  02
0A5E8:  MOVLB  7
0A5EA:  MOVWF  x5E
0A5EC:  MOVLB  0
0A5EE:  CALL   7BA0
0A5F2:  MOVLW  DA
0A5F4:  MOVWF  FF6
0A5F6:  MOVLW  08
0A5F8:  MOVWF  FF7
0A5FA:  MOVLW  00
0A5FC:  MOVWF  FF8
0A5FE:  MOVLW  06
0A600:  MOVLB  7
0A602:  MOVWF  x5C
0A604:  MOVLB  0
0A606:  CALL   71A4
....................             SendDataDisplay(); 
0A60A:  CALL   1E60
....................             printf("fecha.txt=\"Fecha:%02u/%02u/20%02u    Hora: %02u:%02u:%02u  T:%02uC\"",Dia,Mes,Year,Hora,Minuto,Segundo,Temperatura); 
0A60E:  MOVLW  E2
0A610:  MOVWF  FF6
0A612:  MOVLW  08
0A614:  MOVWF  FF7
0A616:  MOVLW  00
0A618:  MOVWF  FF8
0A61A:  MOVLW  11
0A61C:  MOVLB  7
0A61E:  MOVWF  x5C
0A620:  MOVLB  0
0A622:  CALL   71A4
0A626:  MOVFF  94,759
0A62A:  MOVLW  01
0A62C:  MOVLB  7
0A62E:  MOVWF  x5A
0A630:  MOVLB  0
0A632:  CALL   7202
0A636:  MOVLW  2F
0A638:  BTFSS  F9E.4
0A63A:  BRA    A638
0A63C:  MOVWF  FAD
0A63E:  MOVFF  93,759
0A642:  MOVLW  01
0A644:  MOVLB  7
0A646:  MOVWF  x5A
0A648:  MOVLB  0
0A64A:  CALL   7202
0A64E:  MOVLW  2F
0A650:  BTFSS  F9E.4
0A652:  BRA    A650
0A654:  MOVWF  FAD
0A656:  MOVLW  32
0A658:  BTFSS  F9E.4
0A65A:  BRA    A658
0A65C:  MOVWF  FAD
0A65E:  MOVLW  30
0A660:  BTFSS  F9E.4
0A662:  BRA    A660
0A664:  MOVWF  FAD
0A666:  MOVFF  92,759
0A66A:  MOVLW  01
0A66C:  MOVLB  7
0A66E:  MOVWF  x5A
0A670:  MOVLB  0
0A672:  CALL   7202
0A676:  MOVLW  03
0A678:  MOVWF  FF6
0A67A:  MOVLW  09
0A67C:  MOVWF  FF7
0A67E:  MOVLW  00
0A680:  MOVWF  FF8
0A682:  MOVLW  0A
0A684:  MOVLB  7
0A686:  MOVWF  x5C
0A688:  MOVLB  0
0A68A:  CALL   71A4
0A68E:  MOVFF  95,759
0A692:  MOVLW  01
0A694:  MOVLB  7
0A696:  MOVWF  x5A
0A698:  MOVLB  0
0A69A:  CALL   7202
0A69E:  MOVLW  3A
0A6A0:  BTFSS  F9E.4
0A6A2:  BRA    A6A0
0A6A4:  MOVWF  FAD
0A6A6:  MOVFF  96,759
0A6AA:  MOVLW  01
0A6AC:  MOVLB  7
0A6AE:  MOVWF  x5A
0A6B0:  MOVLB  0
0A6B2:  CALL   7202
0A6B6:  MOVLW  3A
0A6B8:  BTFSS  F9E.4
0A6BA:  BRA    A6B8
0A6BC:  MOVWF  FAD
0A6BE:  MOVFF  97,759
0A6C2:  MOVLW  01
0A6C4:  MOVLB  7
0A6C6:  MOVWF  x5A
0A6C8:  MOVLB  0
0A6CA:  CALL   7202
0A6CE:  MOVLW  1B
0A6D0:  MOVWF  FF6
0A6D2:  MOVLW  09
0A6D4:  MOVWF  FF7
0A6D6:  MOVLW  00
0A6D8:  MOVWF  FF8
0A6DA:  MOVLW  04
0A6DC:  MOVLB  7
0A6DE:  MOVWF  x5C
0A6E0:  MOVLB  0
0A6E2:  CALL   71A4
0A6E6:  MOVFF  283,759
0A6EA:  MOVLW  01
0A6EC:  MOVLB  7
0A6EE:  MOVWF  x5A
0A6F0:  MOVLB  0
0A6F2:  CALL   7202
0A6F6:  MOVLW  B0
0A6F8:  BTFSS  F9E.4
0A6FA:  BRA    A6F8
0A6FC:  MOVWF  FAD
0A6FE:  MOVLW  43
0A700:  BTFSS  F9E.4
0A702:  BRA    A700
0A704:  MOVWF  FAD
0A706:  MOVLW  22
0A708:  BTFSS  F9E.4
0A70A:  BRA    A708
0A70C:  MOVWF  FAD
....................             SendDataDisplay(); 
0A70E:  CALL   1E60
....................             //printf("presion.txt=\"P:%2.2finH20\"",Filtro_Downflow); 
....................             //SendDataDisplay(); 
....................             imprimir=0; 
0A712:  BCF    x7D.0
....................          } 
....................        
.................... // Dibujo de barra de estado de filtro   
....................       //barraDn=100.0*(((float)Vel1-(float)velocidadInicial)/(95.0-(float)velocidadInicial)); 
....................       barraDn=100.0*((Filtro_Downflow-pInDn)/(Presion[4].Ajuste)); 
0A714:  BSF    FD8.1
0A716:  MOVFF  F5,79F
0A71A:  MOVFF  F4,79E
0A71E:  MOVFF  F3,79D
0A722:  MOVFF  F2,79C
0A726:  MOVFF  131,7A3
0A72A:  MOVFF  130,7A2
0A72E:  MOVFF  12F,7A1
0A732:  MOVFF  12E,7A0
0A736:  CALL   1E96
0A73A:  MOVFF  00,758
0A73E:  MOVFF  01,759
0A742:  MOVFF  02,75A
0A746:  MOVFF  03,75B
0A74A:  MOVFF  03,79B
0A74E:  MOVFF  02,79A
0A752:  MOVFF  01,799
0A756:  MOVFF  00,798
0A75A:  MOVFF  6F3,79F
0A75E:  MOVFF  6F2,79E
0A762:  MOVFF  6F1,79D
0A766:  MOVFF  6F0,79C
0A76A:  CALL   18C0
0A76E:  MOVLB  7
0A770:  CLRF   x9B
0A772:  CLRF   x9A
0A774:  MOVLW  48
0A776:  MOVWF  x99
0A778:  MOVLW  85
0A77A:  MOVWF  x98
0A77C:  MOVFF  03,79F
0A780:  MOVFF  02,79E
0A784:  MOVFF  01,79D
0A788:  MOVFF  00,79C
0A78C:  MOVLB  0
0A78E:  CALL   1A1E
0A792:  MOVFF  03,129
0A796:  MOVFF  02,128
0A79A:  MOVFF  01,127
0A79E:  MOVFF  00,126
....................       if(barraDn>100.0) 
0A7A2:  MOVLB  7
0A7A4:  CLRF   x9B
0A7A6:  CLRF   x9A
0A7A8:  MOVLW  48
0A7AA:  MOVWF  x99
0A7AC:  MOVLW  85
0A7AE:  MOVWF  x98
0A7B0:  MOVFF  129,79F
0A7B4:  MOVFF  128,79E
0A7B8:  MOVFF  127,79D
0A7BC:  MOVFF  126,79C
0A7C0:  MOVLB  0
0A7C2:  CALL   2F26
0A7C6:  BNC   A7D6
....................          barraDn=100.0; 
0A7C8:  MOVLB  1
0A7CA:  CLRF   x29
0A7CC:  CLRF   x28
0A7CE:  MOVLW  48
0A7D0:  MOVWF  x27
0A7D2:  MOVLW  85
0A7D4:  MOVWF  x26
....................        
....................       if(barraDn<0.0) 
0A7D6:  MOVFF  129,79B
0A7DA:  MOVFF  128,79A
0A7DE:  MOVFF  127,799
0A7E2:  MOVFF  126,798
0A7E6:  MOVLB  7
0A7E8:  CLRF   x9F
0A7EA:  CLRF   x9E
0A7EC:  CLRF   x9D
0A7EE:  CLRF   x9C
0A7F0:  MOVLB  0
0A7F2:  CALL   2F26
0A7F6:  BNC   A804
....................          barraDn=0.0; 
0A7F8:  MOVLB  1
0A7FA:  CLRF   x29
0A7FC:  CLRF   x28
0A7FE:  CLRF   x27
0A800:  CLRF   x26
0A802:  MOVLB  0
....................        
....................       printf("tf2.txt=\"%03u%%\"",(int8)barraDn); 
0A804:  MOVFF  129,79B
0A808:  MOVFF  128,79A
0A80C:  MOVFF  127,799
0A810:  MOVFF  126,798
0A814:  CALL   1B14
0A818:  MOVFF  01,758
0A81C:  MOVLW  28
0A81E:  MOVWF  FF6
0A820:  MOVLW  09
0A822:  MOVWF  FF7
0A824:  MOVLW  00
0A826:  MOVWF  FF8
0A828:  MOVLW  09
0A82A:  MOVLB  7
0A82C:  MOVWF  x5C
0A82E:  MOVLB  0
0A830:  CALL   71A4
0A834:  MOVFF  758,759
0A838:  MOVLW  03
0A83A:  MOVLB  7
0A83C:  MOVWF  x5A
0A83E:  MOVLB  0
0A840:  CALL   7202
0A844:  MOVLW  25
0A846:  BTFSS  F9E.4
0A848:  BRA    A846
0A84A:  MOVWF  FAD
0A84C:  MOVLW  22
0A84E:  BTFSS  F9E.4
0A850:  BRA    A84E
0A852:  MOVWF  FAD
....................       SendDataDisplay(); 
0A854:  CALL   1E60
....................       dibujaBarraDn(); 
0A858:  GOTO   7D44
....................        
....................       barraIn=100.0*((Filtro_Inflow-pInIn)/(Presion[3].Ajuste)); 
0A85C:  BSF    FD8.1
0A85E:  MOVFF  F9,79F
0A862:  MOVFF  F8,79E
0A866:  MOVFF  F7,79D
0A86A:  MOVFF  F6,79C
0A86E:  MOVFF  135,7A3
0A872:  MOVFF  134,7A2
0A876:  MOVFF  133,7A1
0A87A:  MOVFF  132,7A0
0A87E:  CALL   1E96
0A882:  MOVFF  00,758
0A886:  MOVFF  01,759
0A88A:  MOVFF  02,75A
0A88E:  MOVFF  03,75B
0A892:  MOVFF  03,79B
0A896:  MOVFF  02,79A
0A89A:  MOVFF  01,799
0A89E:  MOVFF  00,798
0A8A2:  MOVFF  683,79F
0A8A6:  MOVFF  682,79E
0A8AA:  MOVFF  681,79D
0A8AE:  MOVFF  680,79C
0A8B2:  CALL   18C0
0A8B6:  MOVLB  7
0A8B8:  CLRF   x9B
0A8BA:  CLRF   x9A
0A8BC:  MOVLW  48
0A8BE:  MOVWF  x99
0A8C0:  MOVLW  85
0A8C2:  MOVWF  x98
0A8C4:  MOVFF  03,79F
0A8C8:  MOVFF  02,79E
0A8CC:  MOVFF  01,79D
0A8D0:  MOVFF  00,79C
0A8D4:  MOVLB  0
0A8D6:  CALL   1A1E
0A8DA:  MOVFF  03,12D
0A8DE:  MOVFF  02,12C
0A8E2:  MOVFF  01,12B
0A8E6:  MOVFF  00,12A
....................       if(barraIn>100.0) 
0A8EA:  MOVLB  7
0A8EC:  CLRF   x9B
0A8EE:  CLRF   x9A
0A8F0:  MOVLW  48
0A8F2:  MOVWF  x99
0A8F4:  MOVLW  85
0A8F6:  MOVWF  x98
0A8F8:  MOVFF  12D,79F
0A8FC:  MOVFF  12C,79E
0A900:  MOVFF  12B,79D
0A904:  MOVFF  12A,79C
0A908:  MOVLB  0
0A90A:  CALL   2F26
0A90E:  BNC   A91E
....................          barraIn=100.0; 
0A910:  MOVLB  1
0A912:  CLRF   x2D
0A914:  CLRF   x2C
0A916:  MOVLW  48
0A918:  MOVWF  x2B
0A91A:  MOVLW  85
0A91C:  MOVWF  x2A
....................        
....................       if(barraIn<0.0) 
0A91E:  MOVFF  12D,79B
0A922:  MOVFF  12C,79A
0A926:  MOVFF  12B,799
0A92A:  MOVFF  12A,798
0A92E:  MOVLB  7
0A930:  CLRF   x9F
0A932:  CLRF   x9E
0A934:  CLRF   x9D
0A936:  CLRF   x9C
0A938:  MOVLB  0
0A93A:  CALL   2F26
0A93E:  BNC   A94C
....................          barraIn=0.0; 
0A940:  MOVLB  1
0A942:  CLRF   x2D
0A944:  CLRF   x2C
0A946:  CLRF   x2B
0A948:  CLRF   x2A
0A94A:  MOVLB  0
....................        
....................       printf("tf3.txt=\"%03u%%\"",(int8)barraIn); 
0A94C:  MOVFF  12D,79B
0A950:  MOVFF  12C,79A
0A954:  MOVFF  12B,799
0A958:  MOVFF  12A,798
0A95C:  CALL   1B14
0A960:  MOVFF  01,758
0A964:  MOVLW  3A
0A966:  MOVWF  FF6
0A968:  MOVLW  09
0A96A:  MOVWF  FF7
0A96C:  MOVLW  00
0A96E:  MOVWF  FF8
0A970:  MOVLW  09
0A972:  MOVLB  7
0A974:  MOVWF  x5C
0A976:  MOVLB  0
0A978:  CALL   71A4
0A97C:  MOVFF  758,759
0A980:  MOVLW  03
0A982:  MOVLB  7
0A984:  MOVWF  x5A
0A986:  MOVLB  0
0A988:  CALL   7202
0A98C:  MOVLW  25
0A98E:  BTFSS  F9E.4
0A990:  BRA    A98E
0A992:  MOVWF  FAD
0A994:  MOVLW  22
0A996:  BTFSS  F9E.4
0A998:  BRA    A996
0A99A:  MOVWF  FAD
....................       SendDataDisplay(); 
0A99C:  CALL   1E60
....................       dibujaBarraIn(); 
0A9A0:  GOTO   8294
....................       /* 
....................       if(VIDRIODN){ 
....................          Aux_on; 
....................          if(Downflow<0.25 || Downflow>0.5 || VInflow<0.4){ 
....................             flag_latencia=1; 
....................             if(Latencia==1){          
....................                if(Downflow<0.25 || Downflow>0.5 || VInflow<0.4){ 
....................                   Alarma=5; 
....................                } 
....................             } 
....................          }else{ 
....................             Latencia=0;t_latencia=0;flag_latencia=0; 
....................             Alarma=10; 
....................          } 
....................       }else{ 
....................          Aux_off; 
....................          Latencia=0;t_latencia=0;flag_latencia=0; 
....................          Alarma=10; 
....................       } 
....................       */ 
....................       if(flag_luz==1){ 
0A9A4:  BTFSS  x7D.3
0A9A6:  BRA    A9C2
....................          printf("b0.pic=53"); 
0A9A8:  MOVLW  4C
0A9AA:  MOVWF  FF6
0A9AC:  MOVLW  09
0A9AE:  MOVWF  FF7
0A9B0:  MOVLW  00
0A9B2:  MOVWF  FF8
0A9B4:  CALL   1E2E
....................          SendDataDisplay();     
0A9B8:  CALL   1E60
....................          LuzBlanca_on; 
0A9BC:  BCF    F8C.0
0A9BE:  BCF    F95.0
....................       }else{ 
0A9C0:  BRA    A9DA
....................          printf("b0.pic=52"); 
0A9C2:  MOVLW  56
0A9C4:  MOVWF  FF6
0A9C6:  MOVLW  09
0A9C8:  MOVWF  FF7
0A9CA:  MOVLW  00
0A9CC:  MOVWF  FF8
0A9CE:  CALL   1E2E
....................          SendDataDisplay();  
0A9D2:  CALL   1E60
....................          LuzBlanca_off; 
0A9D6:  BSF    F8C.0
0A9D8:  BCF    F95.0
....................       } 
....................        
....................       if(Filtro_DownFlow<0.1 && flag_blower==1){ 
0A9DA:  MOVFF  F5,79B
0A9DE:  MOVFF  F4,79A
0A9E2:  MOVFF  F3,799
0A9E6:  MOVFF  F2,798
0A9EA:  MOVLW  CD
0A9EC:  MOVLB  7
0A9EE:  MOVWF  x9F
0A9F0:  MOVLW  CC
0A9F2:  MOVWF  x9E
0A9F4:  MOVLW  4C
0A9F6:  MOVWF  x9D
0A9F8:  MOVLW  7B
0A9FA:  MOVWF  x9C
0A9FC:  MOVLB  0
0A9FE:  CALL   2F26
0AA02:  BNC   AA42
0AA04:  BTFSS  x7D.1
0AA06:  BRA    AA42
....................          flag_latencia=1; 
0AA08:  BSF    x7E.1
....................          if(Latencia==1){          
0AA0A:  BTFSS  x7E.6
0AA0C:  BRA    AA40
....................             if(Filtro_DownFlow<0.1 && flag_blower==1){ 
0AA0E:  MOVFF  F5,79B
0AA12:  MOVFF  F4,79A
0AA16:  MOVFF  F3,799
0AA1A:  MOVFF  F2,798
0AA1E:  MOVLW  CD
0AA20:  MOVLB  7
0AA22:  MOVWF  x9F
0AA24:  MOVLW  CC
0AA26:  MOVWF  x9E
0AA28:  MOVLW  4C
0AA2A:  MOVWF  x9D
0AA2C:  MOVLW  7B
0AA2E:  MOVWF  x9C
0AA30:  MOVLB  0
0AA32:  CALL   2F26
0AA36:  BNC   AA40
0AA38:  BTFSS  x7D.1
0AA3A:  BRA    AA40
....................                Alarma=5; 
0AA3C:  MOVLW  05
0AA3E:  MOVWF  x8D
....................             } 
....................          } 
....................       }else{ 
0AA40:  BRA    AA4E
....................          Latencia=0;t_latencia=0;flag_latencia=0; 
0AA42:  BCF    x7E.6
0AA44:  CLRF   xC9
0AA46:  CLRF   xC8
0AA48:  BCF    x7E.1
....................          Alarma=10; 
0AA4A:  MOVLW  0A
0AA4C:  MOVWF  x8D
....................       } 
....................            
....................       if(Alarmas || Alarma==5){ 
0AA4E:  BTFSC  x7F.7
0AA50:  BRA    AA5A
0AA52:  MOVF   x8D,W
0AA54:  SUBLW  05
0AA56:  BTFSS  FD8.2
0AA58:  BRA    AB80
....................          if(Alarmas){ 
0AA5A:  BTFSS  x7F.7
0AA5C:  BRA    AAEC
....................             printf("estado.txt=\"Revise Variadores\""); 
0AA5E:  MOVLW  60
0AA60:  MOVWF  FF6
0AA62:  MOVLW  09
0AA64:  MOVWF  FF7
0AA66:  MOVLW  00
0AA68:  MOVWF  FF8
0AA6A:  CALL   1E2E
....................             SendDataDisplay();   
0AA6E:  CALL   1E60
....................             printf("icon.pic=86"); 
0AA72:  MOVLW  80
0AA74:  MOVWF  FF6
0AA76:  MOVLW  09
0AA78:  MOVWF  FF7
0AA7A:  MOVLW  00
0AA7C:  MOVWF  FF8
0AA7E:  CALL   1E2E
....................             SendDataDisplay();   
0AA82:  CALL   1E60
....................             printf("icon2.pic=84"); 
0AA86:  MOVLW  8C
0AA88:  MOVWF  FF6
0AA8A:  MOVLW  09
0AA8C:  MOVWF  FF7
0AA8E:  MOVLW  00
0AA90:  MOVWF  FF8
0AA92:  CALL   1E2E
....................             SendDataDisplay();   
0AA96:  CALL   1E60
....................             printf("icon3.pic=84"); 
0AA9A:  MOVLW  9A
0AA9C:  MOVWF  FF6
0AA9E:  MOVLW  09
0AAA0:  MOVWF  FF7
0AAA2:  MOVLW  00
0AAA4:  MOVWF  FF8
0AAA6:  CALL   1E2E
....................             SendDataDisplay();   
0AAAA:  CALL   1E60
....................             printf("icon4.pic=84"); 
0AAAE:  MOVLW  A8
0AAB0:  MOVWF  FF6
0AAB2:  MOVLW  09
0AAB4:  MOVWF  FF7
0AAB6:  MOVLW  00
0AAB8:  MOVWF  FF8
0AABA:  CALL   1E2E
....................             SendDataDisplay();   
0AABE:  CALL   1E60
....................             printf("icon5.pic=84"); 
0AAC2:  MOVLW  B6
0AAC4:  MOVWF  FF6
0AAC6:  MOVLW  09
0AAC8:  MOVWF  FF7
0AACA:  MOVLW  00
0AACC:  MOVWF  FF8
0AACE:  CALL   1E2E
....................             SendDataDisplay();   
0AAD2:  CALL   1E60
....................             printf("cabina.pic=89"); 
0AAD6:  MOVLW  C4
0AAD8:  MOVWF  FF6
0AADA:  MOVLW  09
0AADC:  MOVWF  FF7
0AADE:  MOVLW  00
0AAE0:  MOVWF  FF8
0AAE2:  CALL   1E2E
....................             SendDataDisplay();  
0AAE6:  CALL   1E60
....................          }else if(Alarma==5){ 
0AAEA:  BRA    AB7E
0AAEC:  MOVF   x8D,W
0AAEE:  SUBLW  05
0AAF0:  BNZ   AB7E
....................             printf("estado.txt=\"Flujo Bajo\""); 
0AAF2:  MOVLW  D2
0AAF4:  MOVWF  FF6
0AAF6:  MOVLW  09
0AAF8:  MOVWF  FF7
0AAFA:  MOVLW  00
0AAFC:  MOVWF  FF8
0AAFE:  CALL   1E2E
....................             SendDataDisplay();   
0AB02:  CALL   1E60
....................             printf("icon.pic=87"); 
0AB06:  MOVLW  EA
0AB08:  MOVWF  FF6
0AB0A:  MOVLW  09
0AB0C:  MOVWF  FF7
0AB0E:  MOVLW  00
0AB10:  MOVWF  FF8
0AB12:  CALL   1E2E
....................             SendDataDisplay();   
0AB16:  CALL   1E60
....................             printf("icon2.pic=85"); 
0AB1A:  MOVLW  F6
0AB1C:  MOVWF  FF6
0AB1E:  MOVLW  09
0AB20:  MOVWF  FF7
0AB22:  MOVLW  00
0AB24:  MOVWF  FF8
0AB26:  CALL   1E2E
....................             SendDataDisplay();   
0AB2A:  CALL   1E60
....................             printf("icon3.pic=85"); 
0AB2E:  MOVLW  04
0AB30:  MOVWF  FF6
0AB32:  MOVLW  0A
0AB34:  MOVWF  FF7
0AB36:  MOVLW  00
0AB38:  MOVWF  FF8
0AB3A:  CALL   1E2E
....................             SendDataDisplay();   
0AB3E:  CALL   1E60
....................             printf("icon4.pic=85"); 
0AB42:  MOVLW  12
0AB44:  MOVWF  FF6
0AB46:  MOVLW  0A
0AB48:  MOVWF  FF7
0AB4A:  MOVLW  00
0AB4C:  MOVWF  FF8
0AB4E:  CALL   1E2E
....................             SendDataDisplay();   
0AB52:  CALL   1E60
....................             printf("icon5.pic=85"); 
0AB56:  MOVLW  20
0AB58:  MOVWF  FF6
0AB5A:  MOVLW  0A
0AB5C:  MOVWF  FF7
0AB5E:  MOVLW  00
0AB60:  MOVWF  FF8
0AB62:  CALL   1E2E
....................             SendDataDisplay();   
0AB66:  CALL   1E60
....................             printf("cabina.pic=89"); 
0AB6A:  MOVLW  2E
0AB6C:  MOVWF  FF6
0AB6E:  MOVLW  0A
0AB70:  MOVWF  FF7
0AB72:  MOVLW  00
0AB74:  MOVWF  FF8
0AB76:  CALL   1E2E
....................             SendDataDisplay();  
0AB7A:  CALL   1E60
....................          } 
....................       }else{  
0AB7E:  BRA    B024
....................          if((barraDn>=85 && barraDn<=95) || (barraIn>=85 && barraIn<=95)){ 
0AB80:  MOVLB  7
0AB82:  CLRF   x9B
0AB84:  CLRF   x9A
0AB86:  MOVLW  2A
0AB88:  MOVWF  x99
0AB8A:  MOVLW  85
0AB8C:  MOVWF  x98
0AB8E:  MOVFF  129,79F
0AB92:  MOVFF  128,79E
0AB96:  MOVFF  127,79D
0AB9A:  MOVFF  126,79C
0AB9E:  MOVLB  0
0ABA0:  CALL   2F26
0ABA4:  BC    ABA8
0ABA6:  BNZ   ABD0
0ABA8:  MOVFF  129,79B
0ABAC:  MOVFF  128,79A
0ABB0:  MOVFF  127,799
0ABB4:  MOVFF  126,798
0ABB8:  MOVLB  7
0ABBA:  CLRF   x9F
0ABBC:  CLRF   x9E
0ABBE:  MOVLW  3E
0ABC0:  MOVWF  x9D
0ABC2:  MOVLW  85
0ABC4:  MOVWF  x9C
0ABC6:  MOVLB  0
0ABC8:  CALL   2F26
0ABCC:  BC    AC24
0ABCE:  BZ    AC24
0ABD0:  MOVLB  7
0ABD2:  CLRF   x9B
0ABD4:  CLRF   x9A
0ABD6:  MOVLW  2A
0ABD8:  MOVWF  x99
0ABDA:  MOVLW  85
0ABDC:  MOVWF  x98
0ABDE:  MOVFF  12D,79F
0ABE2:  MOVFF  12C,79E
0ABE6:  MOVFF  12B,79D
0ABEA:  MOVFF  12A,79C
0ABEE:  MOVLB  0
0ABF0:  CALL   2F26
0ABF4:  BC    ABFA
0ABF6:  BTFSS  FD8.2
0ABF8:  BRA    ADBE
0ABFA:  MOVFF  12D,79B
0ABFE:  MOVFF  12C,79A
0AC02:  MOVFF  12B,799
0AC06:  MOVFF  12A,798
0AC0A:  MOVLB  7
0AC0C:  CLRF   x9F
0AC0E:  CLRF   x9E
0AC10:  MOVLW  3E
0AC12:  MOVWF  x9D
0AC14:  MOVLW  85
0AC16:  MOVWF  x9C
0AC18:  MOVLB  0
0AC1A:  CALL   2F26
0AC1E:  BC    AC24
0AC20:  BTFSS  FD8.2
0AC22:  BRA    ADBE
....................             if(silencio){ 
0AC24:  BTFSS  x81.0
0AC26:  BRA    AC9E
....................                printf("icon.pic=88"); 
0AC28:  MOVLW  3C
0AC2A:  MOVWF  FF6
0AC2C:  MOVLW  0A
0AC2E:  MOVWF  FF7
0AC30:  MOVLW  00
0AC32:  MOVWF  FF8
0AC34:  CALL   1E2E
....................                SendDataDisplay();  
0AC38:  CALL   1E60
....................                printf("estado.txt=\"Alarma Silenciada %02u:%02u\"",mSilencio,sSilencio); 
0AC3C:  MOVLW  48
0AC3E:  MOVWF  FF6
0AC40:  MOVLW  0A
0AC42:  MOVWF  FF7
0AC44:  MOVLW  00
0AC46:  MOVWF  FF8
0AC48:  MOVLW  1E
0AC4A:  MOVLB  7
0AC4C:  MOVWF  x5C
0AC4E:  MOVLB  0
0AC50:  CALL   71A4
0AC54:  MOVFF  C1,759
0AC58:  MOVLW  01
0AC5A:  MOVLB  7
0AC5C:  MOVWF  x5A
0AC5E:  MOVLB  0
0AC60:  CALL   7202
0AC64:  MOVLW  3A
0AC66:  BTFSS  F9E.4
0AC68:  BRA    AC66
0AC6A:  MOVWF  FAD
0AC6C:  MOVFF  C0,759
0AC70:  MOVLW  01
0AC72:  MOVLB  7
0AC74:  MOVWF  x5A
0AC76:  MOVLB  0
0AC78:  CALL   7202
0AC7C:  MOVLW  22
0AC7E:  BTFSS  F9E.4
0AC80:  BRA    AC7E
0AC82:  MOVWF  FAD
....................                SendDataDisplay();    
0AC84:  CALL   1E60
....................                printf("cabina.pic=89"); 
0AC88:  MOVLW  72
0AC8A:  MOVWF  FF6
0AC8C:  MOVLW  0A
0AC8E:  MOVWF  FF7
0AC90:  MOVLW  00
0AC92:  MOVWF  FF8
0AC94:  CALL   1E2E
....................                SendDataDisplay();  
0AC98:  CALL   1E60
....................             }else{ 
0AC9C:  BRA    ADB8
....................                if(barraDn>=85 && barraDn<=95){ 
0AC9E:  MOVLB  7
0ACA0:  CLRF   x9B
0ACA2:  CLRF   x9A
0ACA4:  MOVLW  2A
0ACA6:  MOVWF  x99
0ACA8:  MOVLW  85
0ACAA:  MOVWF  x98
0ACAC:  MOVFF  129,79F
0ACB0:  MOVFF  128,79E
0ACB4:  MOVFF  127,79D
0ACB8:  MOVFF  126,79C
0ACBC:  MOVLB  0
0ACBE:  CALL   2F26
0ACC2:  BC    ACC6
0ACC4:  BNZ   AD2C
0ACC6:  MOVFF  129,79B
0ACCA:  MOVFF  128,79A
0ACCE:  MOVFF  127,799
0ACD2:  MOVFF  126,798
0ACD6:  MOVLB  7
0ACD8:  CLRF   x9F
0ACDA:  CLRF   x9E
0ACDC:  MOVLW  3E
0ACDE:  MOVWF  x9D
0ACE0:  MOVLW  85
0ACE2:  MOVWF  x9C
0ACE4:  MOVLB  0
0ACE6:  CALL   2F26
0ACEA:  BC    ACEE
0ACEC:  BNZ   AD2C
....................                   printf("icon5.pic=85"); 
0ACEE:  MOVLW  80
0ACF0:  MOVWF  FF6
0ACF2:  MOVLW  0A
0ACF4:  MOVWF  FF7
0ACF6:  MOVLW  00
0ACF8:  MOVWF  FF8
0ACFA:  CALL   1E2E
....................                   SendDataDisplay(); 
0ACFE:  CALL   1E60
....................                   printf("estado.txt=\"Programe Cambio de Filtros\""); 
0AD02:  MOVLW  8E
0AD04:  MOVWF  FF6
0AD06:  MOVLW  0A
0AD08:  MOVWF  FF7
0AD0A:  MOVLW  00
0AD0C:  MOVWF  FF8
0AD0E:  CALL   1E2E
....................                   SendDataDisplay();     
0AD12:  CALL   1E60
....................                   printf("icon.pic=87"); 
0AD16:  MOVLW  B6
0AD18:  MOVWF  FF6
0AD1A:  MOVLW  0A
0AD1C:  MOVWF  FF7
0AD1E:  MOVLW  00
0AD20:  MOVWF  FF8
0AD22:  CALL   1E2E
....................                   SendDataDisplay();  
0AD26:  CALL   1E60
....................                }else if(barraIn>=85 && barraIn<=95){ 
0AD2A:  BRA    ADB8
0AD2C:  MOVLB  7
0AD2E:  CLRF   x9B
0AD30:  CLRF   x9A
0AD32:  MOVLW  2A
0AD34:  MOVWF  x99
0AD36:  MOVLW  85
0AD38:  MOVWF  x98
0AD3A:  MOVFF  12D,79F
0AD3E:  MOVFF  12C,79E
0AD42:  MOVFF  12B,79D
0AD46:  MOVFF  12A,79C
0AD4A:  MOVLB  0
0AD4C:  CALL   2F26
0AD50:  BC    AD54
0AD52:  BNZ   ADB8
0AD54:  MOVFF  12D,79B
0AD58:  MOVFF  12C,79A
0AD5C:  MOVFF  12B,799
0AD60:  MOVFF  12A,798
0AD64:  MOVLB  7
0AD66:  CLRF   x9F
0AD68:  CLRF   x9E
0AD6A:  MOVLW  3E
0AD6C:  MOVWF  x9D
0AD6E:  MOVLW  85
0AD70:  MOVWF  x9C
0AD72:  MOVLB  0
0AD74:  CALL   2F26
0AD78:  BC    AD7C
0AD7A:  BNZ   ADB8
....................                   printf("icon4.pic=85"); 
0AD7C:  MOVLW  C2
0AD7E:  MOVWF  FF6
0AD80:  MOVLW  0A
0AD82:  MOVWF  FF7
0AD84:  MOVLW  00
0AD86:  MOVWF  FF8
0AD88:  CALL   1E2E
....................                   SendDataDisplay(); 
0AD8C:  CALL   1E60
....................                   printf("estado.txt=\"Limpie Pre-Filtros\""); 
0AD90:  MOVLW  D0
0AD92:  MOVWF  FF6
0AD94:  MOVLW  0A
0AD96:  MOVWF  FF7
0AD98:  MOVLW  00
0AD9A:  MOVWF  FF8
0AD9C:  CALL   1E2E
....................                   SendDataDisplay();     
0ADA0:  CALL   1E60
....................                   printf("icon.pic=87"); 
0ADA4:  MOVLW  F0
0ADA6:  MOVWF  FF6
0ADA8:  MOVLW  0A
0ADAA:  MOVWF  FF7
0ADAC:  MOVLW  00
0ADAE:  MOVWF  FF8
0ADB0:  CALL   1E2E
....................                   SendDataDisplay();  
0ADB4:  CALL   1E60
....................                } 
....................             } 
....................             Alarma2=10; 
0ADB8:  MOVLW  0A
0ADBA:  MOVWF  x8E
....................          }else if (barraDn>95 || barraIn>95){ 
0ADBC:  BRA    B024
0ADBE:  MOVLB  7
0ADC0:  CLRF   x9B
0ADC2:  CLRF   x9A
0ADC4:  MOVLW  3E
0ADC6:  MOVWF  x99
0ADC8:  MOVLW  85
0ADCA:  MOVWF  x98
0ADCC:  MOVFF  129,79F
0ADD0:  MOVFF  128,79E
0ADD4:  MOVFF  127,79D
0ADD8:  MOVFF  126,79C
0ADDC:  MOVLB  0
0ADDE:  CALL   2F26
0ADE2:  BC    AE0C
0ADE4:  MOVLB  7
0ADE6:  CLRF   x9B
0ADE8:  CLRF   x9A
0ADEA:  MOVLW  3E
0ADEC:  MOVWF  x99
0ADEE:  MOVLW  85
0ADF0:  MOVWF  x98
0ADF2:  MOVFF  12D,79F
0ADF6:  MOVFF  12C,79E
0ADFA:  MOVFF  12B,79D
0ADFE:  MOVFF  12A,79C
0AE02:  MOVLB  0
0AE04:  CALL   2F26
0AE08:  BTFSS  FD8.0
0AE0A:  BRA    AF7A
....................             if(silencio){ 
0AE0C:  BTFSS  x81.0
0AE0E:  BRA    AE86
....................                printf("icon.pic=88"); 
0AE10:  MOVLW  FC
0AE12:  MOVWF  FF6
0AE14:  MOVLW  0A
0AE16:  MOVWF  FF7
0AE18:  MOVLW  00
0AE1A:  MOVWF  FF8
0AE1C:  CALL   1E2E
....................                SendDataDisplay();  
0AE20:  CALL   1E60
....................                printf("estado.txt=\"Alarma Silenciada %02u:%02u\"",mSilencio,sSilencio); 
0AE24:  MOVLW  08
0AE26:  MOVWF  FF6
0AE28:  MOVLW  0B
0AE2A:  MOVWF  FF7
0AE2C:  MOVLW  00
0AE2E:  MOVWF  FF8
0AE30:  MOVLW  1E
0AE32:  MOVLB  7
0AE34:  MOVWF  x5C
0AE36:  MOVLB  0
0AE38:  CALL   71A4
0AE3C:  MOVFF  C1,759
0AE40:  MOVLW  01
0AE42:  MOVLB  7
0AE44:  MOVWF  x5A
0AE46:  MOVLB  0
0AE48:  CALL   7202
0AE4C:  MOVLW  3A
0AE4E:  BTFSS  F9E.4
0AE50:  BRA    AE4E
0AE52:  MOVWF  FAD
0AE54:  MOVFF  C0,759
0AE58:  MOVLW  01
0AE5A:  MOVLB  7
0AE5C:  MOVWF  x5A
0AE5E:  MOVLB  0
0AE60:  CALL   7202
0AE64:  MOVLW  22
0AE66:  BTFSS  F9E.4
0AE68:  BRA    AE66
0AE6A:  MOVWF  FAD
....................                SendDataDisplay();    
0AE6C:  CALL   1E60
....................                printf("cabina.pic=90"); 
0AE70:  MOVLW  32
0AE72:  MOVWF  FF6
0AE74:  MOVLW  0B
0AE76:  MOVWF  FF7
0AE78:  MOVLW  00
0AE7A:  MOVWF  FF8
0AE7C:  CALL   1E2E
....................                SendDataDisplay();  
0AE80:  CALL   1E60
....................             }else{ 
0AE84:  BRA    AF74
....................                if(barraDn>95){ 
0AE86:  MOVLB  7
0AE88:  CLRF   x9B
0AE8A:  CLRF   x9A
0AE8C:  MOVLW  3E
0AE8E:  MOVWF  x99
0AE90:  MOVLW  85
0AE92:  MOVWF  x98
0AE94:  MOVFF  129,79F
0AE98:  MOVFF  128,79E
0AE9C:  MOVFF  127,79D
0AEA0:  MOVFF  126,79C
0AEA4:  MOVLB  0
0AEA6:  CALL   2F26
0AEAA:  BNC   AEFE
....................                   printf("estado.txt=\"Cambie los Filtros\""); 
0AEAC:  MOVLW  40
0AEAE:  MOVWF  FF6
0AEB0:  MOVLW  0B
0AEB2:  MOVWF  FF7
0AEB4:  MOVLW  00
0AEB6:  MOVWF  FF8
0AEB8:  CALL   1E2E
....................                   SendDataDisplay();     
0AEBC:  CALL   1E60
....................                   printf("icon.pic=86"); 
0AEC0:  MOVLW  60
0AEC2:  MOVWF  FF6
0AEC4:  MOVLW  0B
0AEC6:  MOVWF  FF7
0AEC8:  MOVLW  00
0AECA:  MOVWF  FF8
0AECC:  CALL   1E2E
....................                   SendDataDisplay();    
0AED0:  CALL   1E60
....................                   printf("icon5.pic=84"); 
0AED4:  MOVLW  6C
0AED6:  MOVWF  FF6
0AED8:  MOVLW  0B
0AEDA:  MOVWF  FF7
0AEDC:  MOVLW  00
0AEDE:  MOVWF  FF8
0AEE0:  CALL   1E2E
....................                   SendDataDisplay(); 
0AEE4:  CALL   1E60
....................                   printf("cabina.pic=90"); 
0AEE8:  MOVLW  7A
0AEEA:  MOVWF  FF6
0AEEC:  MOVLW  0B
0AEEE:  MOVWF  FF7
0AEF0:  MOVLW  00
0AEF2:  MOVWF  FF8
0AEF4:  CALL   1E2E
....................                   SendDataDisplay();  
0AEF8:  CALL   1E60
....................                }else if(barraIn>95){ 
0AEFC:  BRA    AF74
0AEFE:  MOVLB  7
0AF00:  CLRF   x9B
0AF02:  CLRF   x9A
0AF04:  MOVLW  3E
0AF06:  MOVWF  x99
0AF08:  MOVLW  85
0AF0A:  MOVWF  x98
0AF0C:  MOVFF  12D,79F
0AF10:  MOVFF  12C,79E
0AF14:  MOVFF  12B,79D
0AF18:  MOVFF  12A,79C
0AF1C:  MOVLB  0
0AF1E:  CALL   2F26
0AF22:  BNC   AF74
....................                   printf("estado.txt=\"Limpie Pre-Filtros\""); 
0AF24:  MOVLW  88
0AF26:  MOVWF  FF6
0AF28:  MOVLW  0B
0AF2A:  MOVWF  FF7
0AF2C:  MOVLW  00
0AF2E:  MOVWF  FF8
0AF30:  CALL   1E2E
....................                   SendDataDisplay();     
0AF34:  CALL   1E60
....................                   printf("icon.pic=86"); 
0AF38:  MOVLW  A8
0AF3A:  MOVWF  FF6
0AF3C:  MOVLW  0B
0AF3E:  MOVWF  FF7
0AF40:  MOVLW  00
0AF42:  MOVWF  FF8
0AF44:  CALL   1E2E
....................                   SendDataDisplay();    
0AF48:  CALL   1E60
....................                   printf("icon4.pic=84"); 
0AF4C:  MOVLW  B4
0AF4E:  MOVWF  FF6
0AF50:  MOVLW  0B
0AF52:  MOVWF  FF7
0AF54:  MOVLW  00
0AF56:  MOVWF  FF8
0AF58:  CALL   1E2E
....................                   SendDataDisplay(); 
0AF5C:  CALL   1E60
....................                   printf("cabina.pic=89"); 
0AF60:  MOVLW  C2
0AF62:  MOVWF  FF6
0AF64:  MOVLW  0B
0AF66:  MOVWF  FF7
0AF68:  MOVLW  00
0AF6A:  MOVWF  FF8
0AF6C:  CALL   1E2E
....................                   SendDataDisplay();  
0AF70:  CALL   1E60
....................                } 
....................             } 
....................             Alarma2=5; 
0AF74:  MOVLW  05
0AF76:  MOVWF  x8E
....................          }else{ 
0AF78:  BRA    B024
....................             printf("icon.pic=74"); 
0AF7A:  MOVLW  D0
0AF7C:  MOVWF  FF6
0AF7E:  MOVLW  0B
0AF80:  MOVWF  FF7
0AF82:  MOVLW  00
0AF84:  MOVWF  FF8
0AF86:  CALL   1E2E
....................             SendDataDisplay();  
0AF8A:  CALL   1E60
....................             printf("icon5.pic=75"); 
0AF8E:  MOVLW  DC
0AF90:  MOVWF  FF6
0AF92:  MOVLW  0B
0AF94:  MOVWF  FF7
0AF96:  MOVLW  00
0AF98:  MOVWF  FF8
0AF9A:  CALL   1E2E
....................             SendDataDisplay();  
0AF9E:  CALL   1E60
....................             printf("icon4.pic=75"); 
0AFA2:  MOVLW  EA
0AFA4:  MOVWF  FF6
0AFA6:  MOVLW  0B
0AFA8:  MOVWF  FF7
0AFAA:  MOVLW  00
0AFAC:  MOVWF  FF8
0AFAE:  CALL   1E2E
....................             SendDataDisplay();  
0AFB2:  CALL   1E60
....................             printf("icon2.pic=75"); 
0AFB6:  MOVLW  F8
0AFB8:  MOVWF  FF6
0AFBA:  MOVLW  0B
0AFBC:  MOVWF  FF7
0AFBE:  MOVLW  00
0AFC0:  MOVWF  FF8
0AFC2:  CALL   1E2E
....................             SendDataDisplay(); 
0AFC6:  CALL   1E60
....................             printf("icon3.pic=75"); 
0AFCA:  MOVLW  06
0AFCC:  MOVWF  FF6
0AFCE:  MOVLW  0C
0AFD0:  MOVWF  FF7
0AFD2:  MOVLW  00
0AFD4:  MOVWF  FF8
0AFD6:  CALL   1E2E
....................             SendDataDisplay(); 
0AFDA:  CALL   1E60
....................                          
....................             printf("estado.txt=\"Operacin Normal\""); 
0AFDE:  MOVLW  14
0AFE0:  MOVWF  FF6
0AFE2:  MOVLW  0C
0AFE4:  MOVWF  FF7
0AFE6:  MOVLW  00
0AFE8:  MOVWF  FF8
0AFEA:  CALL   1E2E
....................             SendDataDisplay();     
0AFEE:  CALL   1E60
....................             if(flag_luz){ 
0AFF2:  BTFSS  x7D.3
0AFF4:  BRA    B00C
....................                printf("cabina.pic=91"); 
0AFF6:  MOVLW  32
0AFF8:  MOVWF  FF6
0AFFA:  MOVLW  0C
0AFFC:  MOVWF  FF7
0AFFE:  MOVLW  00
0B000:  MOVWF  FF8
0B002:  CALL   1E2E
....................                SendDataDisplay();  
0B006:  CALL   1E60
....................             }else{ 
0B00A:  BRA    B020
....................                printf("cabina.pic=47"); 
0B00C:  MOVLW  40
0B00E:  MOVWF  FF6
0B010:  MOVLW  0C
0B012:  MOVWF  FF7
0B014:  MOVLW  00
0B016:  MOVWF  FF8
0B018:  CALL   1E2E
....................                SendDataDisplay();  
0B01C:  CALL   1E60
....................             }  
....................             Alarma2=10; 
0B020:  MOVLW  0A
0B022:  MOVWF  x8E
....................          } 
....................       }    
....................        
....................       if(flag_blower==1){ 
0B024:  BTFSS  x7D.1
0B026:  BRA    B1B2
....................          printf("b2.pic=59"); 
0B028:  MOVLW  4E
0B02A:  MOVWF  FF6
0B02C:  MOVLW  0C
0B02E:  MOVWF  FF7
0B030:  MOVLW  00
0B032:  MOVWF  FF8
0B034:  CALL   1E2E
....................          SendDataDisplay();  
0B038:  CALL   1E60
....................          tiempo_trabajo=1; 
0B03C:  BSF    x7E.0
....................          if(guardatrabajo==1){ 
0B03E:  BTFSS  x80.1
0B040:  BRA    B1A8
....................             guardatrabajo=0; 
0B042:  BCF    x80.1
....................             write_eeprom(37,make8(minutos_trabajo,0)); 
0B044:  MOVFF  CC,758
0B048:  CLRF   FAA
0B04A:  MOVLW  25
0B04C:  MOVWF  FA9
0B04E:  MOVFF  758,FA8
0B052:  BCF    FA6.6
0B054:  BCF    FA6.7
0B056:  BSF    FA6.2
0B058:  MOVF   FF2,W
0B05A:  MOVWF  00
0B05C:  BCF    FF2.6
0B05E:  BCF    FF2.7
0B060:  MOVLB  F
0B062:  MOVLW  55
0B064:  MOVWF  FA7
0B066:  MOVLW  AA
0B068:  MOVWF  FA7
0B06A:  BSF    FA6.1
0B06C:  BTFSC  FA6.1
0B06E:  BRA    B06C
0B070:  BCF    FA6.2
0B072:  MOVF   00,W
0B074:  IORWF  FF2,F
....................             delay_ms(20); 
0B076:  MOVLW  14
0B078:  MOVLB  7
0B07A:  MOVWF  x6C
0B07C:  MOVLB  0
0B07E:  CALL   15AA
....................             write_eeprom(38,make8(minutos_trabajo,1)); 
0B082:  MOVFF  CD,758
0B086:  CLRF   FAA
0B088:  MOVLW  26
0B08A:  MOVWF  FA9
0B08C:  MOVFF  758,FA8
0B090:  BCF    FA6.6
0B092:  BCF    FA6.7
0B094:  BSF    FA6.2
0B096:  MOVF   FF2,W
0B098:  MOVWF  00
0B09A:  BCF    FF2.6
0B09C:  BCF    FF2.7
0B09E:  MOVLB  F
0B0A0:  MOVLW  55
0B0A2:  MOVWF  FA7
0B0A4:  MOVLW  AA
0B0A6:  MOVWF  FA7
0B0A8:  BSF    FA6.1
0B0AA:  BTFSC  FA6.1
0B0AC:  BRA    B0AA
0B0AE:  BCF    FA6.2
0B0B0:  MOVF   00,W
0B0B2:  IORWF  FF2,F
....................             delay_ms(20); 
0B0B4:  MOVLW  14
0B0B6:  MOVLB  7
0B0B8:  MOVWF  x6C
0B0BA:  MOVLB  0
0B0BC:  CALL   15AA
....................             write_eeprom(16,Ttrabajo[0]); 
0B0C0:  CLRF   FAA
0B0C2:  MOVLW  10
0B0C4:  MOVWF  FA9
0B0C6:  MOVFF  DE,FA8
0B0CA:  BCF    FA6.6
0B0CC:  BCF    FA6.7
0B0CE:  BSF    FA6.2
0B0D0:  MOVF   FF2,W
0B0D2:  MOVWF  00
0B0D4:  BCF    FF2.6
0B0D6:  BCF    FF2.7
0B0D8:  MOVLB  F
0B0DA:  MOVLW  55
0B0DC:  MOVWF  FA7
0B0DE:  MOVLW  AA
0B0E0:  MOVWF  FA7
0B0E2:  BSF    FA6.1
0B0E4:  BTFSC  FA6.1
0B0E6:  BRA    B0E4
0B0E8:  BCF    FA6.2
0B0EA:  MOVF   00,W
0B0EC:  IORWF  FF2,F
....................             delay_ms(20); 
0B0EE:  MOVLW  14
0B0F0:  MOVLB  7
0B0F2:  MOVWF  x6C
0B0F4:  MOVLB  0
0B0F6:  CALL   15AA
....................             write_eeprom(17,Ttrabajo[1]); 
0B0FA:  CLRF   FAA
0B0FC:  MOVLW  11
0B0FE:  MOVWF  FA9
0B100:  MOVFF  DF,FA8
0B104:  BCF    FA6.6
0B106:  BCF    FA6.7
0B108:  BSF    FA6.2
0B10A:  MOVF   FF2,W
0B10C:  MOVWF  00
0B10E:  BCF    FF2.6
0B110:  BCF    FF2.7
0B112:  MOVLB  F
0B114:  MOVLW  55
0B116:  MOVWF  FA7
0B118:  MOVLW  AA
0B11A:  MOVWF  FA7
0B11C:  BSF    FA6.1
0B11E:  BTFSC  FA6.1
0B120:  BRA    B11E
0B122:  BCF    FA6.2
0B124:  MOVF   00,W
0B126:  IORWF  FF2,F
....................             delay_ms(20); 
0B128:  MOVLW  14
0B12A:  MOVLB  7
0B12C:  MOVWF  x6C
0B12E:  MOVLB  0
0B130:  CALL   15AA
....................             write_eeprom(18,Ttrabajo[2]); 
0B134:  CLRF   FAA
0B136:  MOVLW  12
0B138:  MOVWF  FA9
0B13A:  MOVFF  E0,FA8
0B13E:  BCF    FA6.6
0B140:  BCF    FA6.7
0B142:  BSF    FA6.2
0B144:  MOVF   FF2,W
0B146:  MOVWF  00
0B148:  BCF    FF2.6
0B14A:  BCF    FF2.7
0B14C:  MOVLB  F
0B14E:  MOVLW  55
0B150:  MOVWF  FA7
0B152:  MOVLW  AA
0B154:  MOVWF  FA7
0B156:  BSF    FA6.1
0B158:  BTFSC  FA6.1
0B15A:  BRA    B158
0B15C:  BCF    FA6.2
0B15E:  MOVF   00,W
0B160:  IORWF  FF2,F
....................             delay_ms(20); 
0B162:  MOVLW  14
0B164:  MOVLB  7
0B166:  MOVWF  x6C
0B168:  MOVLB  0
0B16A:  CALL   15AA
....................             write_eeprom(19,Ttrabajo[3]); 
0B16E:  CLRF   FAA
0B170:  MOVLW  13
0B172:  MOVWF  FA9
0B174:  MOVFF  E1,FA8
0B178:  BCF    FA6.6
0B17A:  BCF    FA6.7
0B17C:  BSF    FA6.2
0B17E:  MOVF   FF2,W
0B180:  MOVWF  00
0B182:  BCF    FF2.6
0B184:  BCF    FF2.7
0B186:  MOVLB  F
0B188:  MOVLW  55
0B18A:  MOVWF  FA7
0B18C:  MOVLW  AA
0B18E:  MOVWF  FA7
0B190:  BSF    FA6.1
0B192:  BTFSC  FA6.1
0B194:  BRA    B192
0B196:  BCF    FA6.2
0B198:  MOVF   00,W
0B19A:  IORWF  FF2,F
....................             delay_ms(20);             
0B19C:  MOVLW  14
0B19E:  MOVLB  7
0B1A0:  MOVWF  x6C
0B1A2:  MOVLB  0
0B1A4:  CALL   15AA
....................          } 
....................          VelocidadMotor(Vel1); 
0B1A8:  MOVFF  90,758
0B1AC:  CALL   1B50
....................       }else{ 
0B1B0:  BRA    B33C
....................          //Filtro_Downflow=0; 
....................          printf("b2.pic=58"); 
0B1B2:  MOVLW  58
0B1B4:  MOVWF  FF6
0B1B6:  MOVLW  0C
0B1B8:  MOVWF  FF7
0B1BA:  MOVLW  00
0B1BC:  MOVWF  FF8
0B1BE:  CALL   1E2E
....................          SendDataDisplay();  
0B1C2:  CALL   1E60
....................          tiempo_trabajo=0; 
0B1C6:  BCF    x7E.0
....................          VelocidadMotor(0); 
0B1C8:  MOVLB  7
0B1CA:  CLRF   x58
0B1CC:  MOVLB  0
0B1CE:  CALL   1B50
....................          if(guardatrabajo==0){ 
0B1D2:  BTFSC  x80.1
0B1D4:  BRA    B33C
....................             guardatrabajo=1; 
0B1D6:  BSF    x80.1
....................             write_eeprom(37,make8(minutos_trabajo,0)); 
0B1D8:  MOVFF  CC,758
0B1DC:  CLRF   FAA
0B1DE:  MOVLW  25
0B1E0:  MOVWF  FA9
0B1E2:  MOVFF  758,FA8
0B1E6:  BCF    FA6.6
0B1E8:  BCF    FA6.7
0B1EA:  BSF    FA6.2
0B1EC:  MOVF   FF2,W
0B1EE:  MOVWF  00
0B1F0:  BCF    FF2.6
0B1F2:  BCF    FF2.7
0B1F4:  MOVLB  F
0B1F6:  MOVLW  55
0B1F8:  MOVWF  FA7
0B1FA:  MOVLW  AA
0B1FC:  MOVWF  FA7
0B1FE:  BSF    FA6.1
0B200:  BTFSC  FA6.1
0B202:  BRA    B200
0B204:  BCF    FA6.2
0B206:  MOVF   00,W
0B208:  IORWF  FF2,F
....................             delay_ms(20); 
0B20A:  MOVLW  14
0B20C:  MOVLB  7
0B20E:  MOVWF  x6C
0B210:  MOVLB  0
0B212:  CALL   15AA
....................             write_eeprom(38,make8(minutos_trabajo,1)); 
0B216:  MOVFF  CD,758
0B21A:  CLRF   FAA
0B21C:  MOVLW  26
0B21E:  MOVWF  FA9
0B220:  MOVFF  758,FA8
0B224:  BCF    FA6.6
0B226:  BCF    FA6.7
0B228:  BSF    FA6.2
0B22A:  MOVF   FF2,W
0B22C:  MOVWF  00
0B22E:  BCF    FF2.6
0B230:  BCF    FF2.7
0B232:  MOVLB  F
0B234:  MOVLW  55
0B236:  MOVWF  FA7
0B238:  MOVLW  AA
0B23A:  MOVWF  FA7
0B23C:  BSF    FA6.1
0B23E:  BTFSC  FA6.1
0B240:  BRA    B23E
0B242:  BCF    FA6.2
0B244:  MOVF   00,W
0B246:  IORWF  FF2,F
....................             delay_ms(20); 
0B248:  MOVLW  14
0B24A:  MOVLB  7
0B24C:  MOVWF  x6C
0B24E:  MOVLB  0
0B250:  CALL   15AA
....................             write_eeprom(16,Ttrabajo[0]); 
0B254:  CLRF   FAA
0B256:  MOVLW  10
0B258:  MOVWF  FA9
0B25A:  MOVFF  DE,FA8
0B25E:  BCF    FA6.6
0B260:  BCF    FA6.7
0B262:  BSF    FA6.2
0B264:  MOVF   FF2,W
0B266:  MOVWF  00
0B268:  BCF    FF2.6
0B26A:  BCF    FF2.7
0B26C:  MOVLB  F
0B26E:  MOVLW  55
0B270:  MOVWF  FA7
0B272:  MOVLW  AA
0B274:  MOVWF  FA7
0B276:  BSF    FA6.1
0B278:  BTFSC  FA6.1
0B27A:  BRA    B278
0B27C:  BCF    FA6.2
0B27E:  MOVF   00,W
0B280:  IORWF  FF2,F
....................             delay_ms(20); 
0B282:  MOVLW  14
0B284:  MOVLB  7
0B286:  MOVWF  x6C
0B288:  MOVLB  0
0B28A:  CALL   15AA
....................             write_eeprom(17,Ttrabajo[1]); 
0B28E:  CLRF   FAA
0B290:  MOVLW  11
0B292:  MOVWF  FA9
0B294:  MOVFF  DF,FA8
0B298:  BCF    FA6.6
0B29A:  BCF    FA6.7
0B29C:  BSF    FA6.2
0B29E:  MOVF   FF2,W
0B2A0:  MOVWF  00
0B2A2:  BCF    FF2.6
0B2A4:  BCF    FF2.7
0B2A6:  MOVLB  F
0B2A8:  MOVLW  55
0B2AA:  MOVWF  FA7
0B2AC:  MOVLW  AA
0B2AE:  MOVWF  FA7
0B2B0:  BSF    FA6.1
0B2B2:  BTFSC  FA6.1
0B2B4:  BRA    B2B2
0B2B6:  BCF    FA6.2
0B2B8:  MOVF   00,W
0B2BA:  IORWF  FF2,F
....................             delay_ms(20); 
0B2BC:  MOVLW  14
0B2BE:  MOVLB  7
0B2C0:  MOVWF  x6C
0B2C2:  MOVLB  0
0B2C4:  CALL   15AA
....................             write_eeprom(18,Ttrabajo[2]); 
0B2C8:  CLRF   FAA
0B2CA:  MOVLW  12
0B2CC:  MOVWF  FA9
0B2CE:  MOVFF  E0,FA8
0B2D2:  BCF    FA6.6
0B2D4:  BCF    FA6.7
0B2D6:  BSF    FA6.2
0B2D8:  MOVF   FF2,W
0B2DA:  MOVWF  00
0B2DC:  BCF    FF2.6
0B2DE:  BCF    FF2.7
0B2E0:  MOVLB  F
0B2E2:  MOVLW  55
0B2E4:  MOVWF  FA7
0B2E6:  MOVLW  AA
0B2E8:  MOVWF  FA7
0B2EA:  BSF    FA6.1
0B2EC:  BTFSC  FA6.1
0B2EE:  BRA    B2EC
0B2F0:  BCF    FA6.2
0B2F2:  MOVF   00,W
0B2F4:  IORWF  FF2,F
....................             delay_ms(20); 
0B2F6:  MOVLW  14
0B2F8:  MOVLB  7
0B2FA:  MOVWF  x6C
0B2FC:  MOVLB  0
0B2FE:  CALL   15AA
....................             write_eeprom(19,Ttrabajo[3]); 
0B302:  CLRF   FAA
0B304:  MOVLW  13
0B306:  MOVWF  FA9
0B308:  MOVFF  E1,FA8
0B30C:  BCF    FA6.6
0B30E:  BCF    FA6.7
0B310:  BSF    FA6.2
0B312:  MOVF   FF2,W
0B314:  MOVWF  00
0B316:  BCF    FF2.6
0B318:  BCF    FF2.7
0B31A:  MOVLB  F
0B31C:  MOVLW  55
0B31E:  MOVWF  FA7
0B320:  MOVLW  AA
0B322:  MOVWF  FA7
0B324:  BSF    FA6.1
0B326:  BTFSC  FA6.1
0B328:  BRA    B326
0B32A:  BCF    FA6.2
0B32C:  MOVF   00,W
0B32E:  IORWF  FF2,F
....................             delay_ms(20); 
0B330:  MOVLW  14
0B332:  MOVLB  7
0B334:  MOVWF  x6C
0B336:  MOVLB  0
0B338:  CALL   15AA
....................          } 
....................       } 
....................        
....................       if(flag_toma==1){ // Si activo Toma 
0B33C:  BTFSS  x7D.2
0B33E:  BRA    B35A
....................          printf("b1.pic=55"); 
0B340:  MOVLW  62
0B342:  MOVWF  FF6
0B344:  MOVLW  0C
0B346:  MOVWF  FF7
0B348:  MOVLW  00
0B34A:  MOVWF  FF8
0B34C:  CALL   1E2E
....................          SendDataDisplay();  
0B350:  CALL   1E60
....................          Toma_on; 
0B354:  BSF    F8B.1
0B356:  BCF    F94.1
....................       }else{// Si desactivo Toma         
0B358:  BRA    B372
....................          printf("b1.pic=54"); 
0B35A:  MOVLW  6C
0B35C:  MOVWF  FF6
0B35E:  MOVLW  0C
0B360:  MOVWF  FF7
0B362:  MOVLW  00
0B364:  MOVWF  FF8
0B366:  CALL   1E2E
....................          SendDataDisplay();  
0B36A:  CALL   1E60
....................          Toma_off; 
0B36E:  BCF    F8B.1
0B370:  BCF    F94.1
....................       } 
....................              
....................       if(RX_Buffer[4]==0x01){          
0B372:  DECFSZ 35,W
0B374:  BRA    B37C
....................          flag_luz=!flag_luz; 
0B376:  BTG    x7D.3
....................          RX_Buffer[4]=0x00;   
0B378:  CLRF   35
....................          RX_Buffer2[4]=0x00; 
0B37A:  CLRF   40
....................       } 
....................        
....................       if(RX_Buffer[4]==0x02){ 
0B37C:  MOVF   35,W
0B37E:  SUBLW  02
0B380:  BNZ   B388
....................          flag_blower=!flag_blower; 
0B382:  BTG    x7D.1
....................          RX_Buffer[4]=0x00;   
0B384:  CLRF   35
....................          RX_Buffer2[4]=0x00; 
0B386:  CLRF   40
....................       } 
....................        
....................       if(RX_Buffer[4]==0x03){ 
0B388:  MOVF   35,W
0B38A:  SUBLW  03
0B38C:  BNZ   B394
....................          flag_toma=!flag_toma; 
0B38E:  BTG    x7D.2
....................          RX_Buffer[4]=0x00;   
0B390:  CLRF   35
....................          RX_Buffer2[4]=0x00; 
0B392:  CLRF   40
....................       } 
....................        
....................       if(RX_Buffer[4]==0x04){ 
0B394:  MOVF   35,W
0B396:  SUBLW  04
0B398:  BNZ   B3A0
....................          flag_uv=!flag_uv; 
0B39A:  BTG    x7D.5
....................          RX_Buffer[4]=0x00;   
0B39C:  CLRF   35
....................          RX_Buffer2[4]=0x00; 
0B39E:  CLRF   40
....................       } 
....................        
....................       if(Alarma2!=5 && Alarma!=5) 
0B3A0:  MOVF   x8E,W
0B3A2:  SUBLW  05
0B3A4:  BZ    B3AE
0B3A6:  MOVF   x8D,W
0B3A8:  SUBLW  05
0B3AA:  BZ    B3AE
....................          silencio=OFF; 
0B3AC:  BCF    x81.0
....................           
....................       if(RX_Buffer[4]==0x70 && (Alarma2==5 || Alarma==5)){ 
0B3AE:  MOVF   35,W
0B3B0:  SUBLW  70
0B3B2:  BNZ   B3C6
0B3B4:  MOVF   x8E,W
0B3B6:  SUBLW  05
0B3B8:  BZ    B3C0
0B3BA:  MOVF   x8D,W
0B3BC:  SUBLW  05
0B3BE:  BNZ   B3C6
....................          silencio=!silencio; 
0B3C0:  BTG    x81.0
....................          RX_Buffer[4]=0x00;   
0B3C2:  CLRF   35
....................          RX_Buffer2[4]=0x00; 
0B3C4:  CLRF   40
....................       } 
....................        
....................       leeTeclasLaterales(); 
0B3C6:  CALL   74EC
....................        
....................       if(RX_Buffer[4]==0x06){          
0B3CA:  MOVF   35,W
0B3CC:  SUBLW  06
0B3CE:  BNZ   B3EC
....................          printf("page PostPurga"); 
0B3D0:  MOVLW  76
0B3D2:  MOVWF  FF6
0B3D4:  MOVLW  0C
0B3D6:  MOVWF  FF7
0B3D8:  MOVLW  00
0B3DA:  MOVWF  FF8
0B3DC:  CALL   1E2E
....................          SendDataDisplay(); 
0B3E0:  CALL   1E60
....................          UP=OFF;DOWN=OFF;RIGHT=OFF;LEFT=OFF; 
0B3E4:  BCF    x7F.3
0B3E6:  BCF    x7F.4
0B3E8:  BCF    x7F.5
0B3EA:  BCF    x7F.6
....................       }             
....................     } 
.................... //_--------------------------------------------------------------------------------------------------------------------------------------------------------        
....................  
.................... //_-------------------------------------------------------------------------------------------------------------------------------------------------------- 
....................       if(Menu==6){//Menu de Post-Purga. 
0B3EC:  MOVF   x82,W
0B3EE:  SUBLW  06
0B3F0:  BTFSS  FD8.2
0B3F2:  BRA    B62E
....................          tiempo_postpurga=1; 
0B3F4:  BSF    x80.3
....................          LuzBlanca_off;LuzUV_off;Toma_off;Alarma_off;Aux_off; 
0B3F6:  BSF    F8C.0
0B3F8:  BCF    F95.0
0B3FA:  BSF    F8C.1
0B3FC:  BCF    F95.1
0B3FE:  BCF    F8B.1
0B400:  BCF    F94.1
0B402:  BCF    F8B.0
0B404:  BCF    F94.0
0B406:  BSF    F8C.2
0B408:  BCF    F95.2
....................          printf("minPurga.txt=\"%02u\"",mPPurga); 
0B40A:  MOVLW  86
0B40C:  MOVWF  FF6
0B40E:  MOVLW  0C
0B410:  MOVWF  FF7
0B412:  MOVLW  00
0B414:  MOVWF  FF8
0B416:  MOVLW  0E
0B418:  MOVLB  7
0B41A:  MOVWF  x5C
0B41C:  MOVLB  0
0B41E:  CALL   71A4
0B422:  MOVFF  B7,759
0B426:  MOVLW  01
0B428:  MOVLB  7
0B42A:  MOVWF  x5A
0B42C:  MOVLB  0
0B42E:  CALL   7202
0B432:  MOVLW  22
0B434:  BTFSS  F9E.4
0B436:  BRA    B434
0B438:  MOVWF  FAD
....................          SendDataDisplay(); 
0B43A:  CALL   1E60
....................          printf("secPurga.txt=\"%02u\"",sPPurga); 
0B43E:  MOVLW  9A
0B440:  MOVWF  FF6
0B442:  MOVLW  0C
0B444:  MOVWF  FF7
0B446:  MOVLW  00
0B448:  MOVWF  FF8
0B44A:  MOVLW  0E
0B44C:  MOVLB  7
0B44E:  MOVWF  x5C
0B450:  MOVLB  0
0B452:  CALL   71A4
0B456:  MOVFF  B5,759
0B45A:  MOVLW  01
0B45C:  MOVLB  7
0B45E:  MOVWF  x5A
0B460:  MOVLB  0
0B462:  CALL   7202
0B466:  MOVLW  22
0B468:  BTFSS  F9E.4
0B46A:  BRA    B468
0B46C:  MOVWF  FAD
....................          SendDataDisplay(); 
0B46E:  CALL   1E60
....................           
....................          if(RX_Buffer[4]==0x11){ 
0B472:  MOVF   35,W
0B474:  SUBLW  11
0B476:  BNZ   B4A4
....................             LEFT=OFF; 
0B478:  BCF    x7F.6
....................             tiempo_purga=0; 
0B47A:  BCF    x7D.7
....................             printf("page Principal"); 
0B47C:  MOVLW  AE
0B47E:  MOVWF  FF6
0B480:  MOVLW  0C
0B482:  MOVWF  FF7
0B484:  MOVLW  00
0B486:  MOVWF  FF8
0B488:  CALL   1E2E
....................             SendDataDisplay(); 
0B48C:  CALL   1E60
....................             UP=OFF;DOWN=OFF;RIGHT=OFF;LEFT=OFF; 
0B490:  BCF    x7F.3
0B492:  BCF    x7F.4
0B494:  BCF    x7F.5
0B496:  BCF    x7F.6
....................             flag_luz=1;flag_blower=1;flag_toma=1; 
0B498:  BSF    x7D.3
0B49A:  BSF    x7D.1
0B49C:  BSF    x7D.2
....................             tiempo_postpurga=0; 
0B49E:  BCF    x80.3
....................             mPPurga=0;sPPurga=0; 
0B4A0:  CLRF   xB7
0B4A2:  CLRF   xB5
....................          } 
....................           
....................          //if(VIDRIODN && Prendio==20) 
....................          //   Aux_on; 
....................          //else 
....................          //   Aux_off; 
....................           
....................          printf("fecha.txt=\"Fecha:%02u/%02u/20%02u    Hora: %02u:%02u:%02u  T:%02uC\"",Dia,Mes,Year,Hora,Minuto,Segundo,Temperatura); 
0B4A4:  MOVLW  BE
0B4A6:  MOVWF  FF6
0B4A8:  MOVLW  0C
0B4AA:  MOVWF  FF7
0B4AC:  MOVLW  00
0B4AE:  MOVWF  FF8
0B4B0:  MOVLW  11
0B4B2:  MOVLB  7
0B4B4:  MOVWF  x5C
0B4B6:  MOVLB  0
0B4B8:  CALL   71A4
0B4BC:  MOVFF  94,759
0B4C0:  MOVLW  01
0B4C2:  MOVLB  7
0B4C4:  MOVWF  x5A
0B4C6:  MOVLB  0
0B4C8:  CALL   7202
0B4CC:  MOVLW  2F
0B4CE:  BTFSS  F9E.4
0B4D0:  BRA    B4CE
0B4D2:  MOVWF  FAD
0B4D4:  MOVFF  93,759
0B4D8:  MOVLW  01
0B4DA:  MOVLB  7
0B4DC:  MOVWF  x5A
0B4DE:  MOVLB  0
0B4E0:  CALL   7202
0B4E4:  MOVLW  2F
0B4E6:  BTFSS  F9E.4
0B4E8:  BRA    B4E6
0B4EA:  MOVWF  FAD
0B4EC:  MOVLW  32
0B4EE:  BTFSS  F9E.4
0B4F0:  BRA    B4EE
0B4F2:  MOVWF  FAD
0B4F4:  MOVLW  30
0B4F6:  BTFSS  F9E.4
0B4F8:  BRA    B4F6
0B4FA:  MOVWF  FAD
0B4FC:  MOVFF  92,759
0B500:  MOVLW  01
0B502:  MOVLB  7
0B504:  MOVWF  x5A
0B506:  MOVLB  0
0B508:  CALL   7202
0B50C:  MOVLW  DF
0B50E:  MOVWF  FF6
0B510:  MOVLW  0C
0B512:  MOVWF  FF7
0B514:  MOVLW  00
0B516:  MOVWF  FF8
0B518:  MOVLW  0A
0B51A:  MOVLB  7
0B51C:  MOVWF  x5C
0B51E:  MOVLB  0
0B520:  CALL   71A4
0B524:  MOVFF  95,759
0B528:  MOVLW  01
0B52A:  MOVLB  7
0B52C:  MOVWF  x5A
0B52E:  MOVLB  0
0B530:  CALL   7202
0B534:  MOVLW  3A
0B536:  BTFSS  F9E.4
0B538:  BRA    B536
0B53A:  MOVWF  FAD
0B53C:  MOVFF  96,759
0B540:  MOVLW  01
0B542:  MOVLB  7
0B544:  MOVWF  x5A
0B546:  MOVLB  0
0B548:  CALL   7202
0B54C:  MOVLW  3A
0B54E:  BTFSS  F9E.4
0B550:  BRA    B54E
0B552:  MOVWF  FAD
0B554:  MOVFF  97,759
0B558:  MOVLW  01
0B55A:  MOVLB  7
0B55C:  MOVWF  x5A
0B55E:  MOVLB  0
0B560:  CALL   7202
0B564:  MOVLW  F7
0B566:  MOVWF  FF6
0B568:  MOVLW  0C
0B56A:  MOVWF  FF7
0B56C:  MOVLW  00
0B56E:  MOVWF  FF8
0B570:  MOVLW  04
0B572:  MOVLB  7
0B574:  MOVWF  x5C
0B576:  MOVLB  0
0B578:  CALL   71A4
0B57C:  MOVFF  283,759
0B580:  MOVLW  01
0B582:  MOVLB  7
0B584:  MOVWF  x5A
0B586:  MOVLB  0
0B588:  CALL   7202
0B58C:  MOVLW  B0
0B58E:  BTFSS  F9E.4
0B590:  BRA    B58E
0B592:  MOVWF  FAD
0B594:  MOVLW  43
0B596:  BTFSS  F9E.4
0B598:  BRA    B596
0B59A:  MOVWF  FAD
0B59C:  MOVLW  22
0B59E:  BTFSS  F9E.4
0B5A0:  BRA    B59E
0B5A2:  MOVWF  FAD
....................          SendDataDisplay(); 
0B5A4:  CALL   1E60
....................         
....................          if((sPPurga>=sPPurgap)&&(mPPurga>=mPPurgap)){ 
0B5A8:  MOVF   xB6,W
0B5AA:  SUBWF  xB5,W
0B5AC:  BNC   B626
0B5AE:  MOVF   xB8,W
0B5B0:  SUBWF  xB7,W
0B5B2:  BNC   B626
....................             tiempo_postpurga=0; 
0B5B4:  BCF    x80.3
....................             ApagaSalidas(); 
0B5B6:  CALL   67BC
....................             //Display_off; 
....................             Encendio=OFF; 
0B5BA:  BCF    x7F.2
....................             Prendio=10; 
0B5BC:  MOVLW  0A
0B5BE:  MOVLB  2
0B5C0:  MOVWF  x87
....................             VelMotor=0;VelMotor2=0;LuzBlanca_off;LuzUV_off;Toma_off;Alarma_off;Motor_off;Motor2_off;Aux_off; 
0B5C2:  CLRF   x85
0B5C4:  CLRF   x86
0B5C6:  BSF    F8C.0
0B5C8:  BCF    F95.0
0B5CA:  BSF    F8C.1
0B5CC:  BCF    F95.1
0B5CE:  BCF    F8B.1
0B5D0:  BCF    F94.1
0B5D2:  BCF    F8B.0
0B5D4:  BCF    F94.0
0B5D6:  BCF    F8B.3
0B5D8:  BCF    F94.3
0B5DA:  BCF    F8B.2
0B5DC:  BCF    F94.2
0B5DE:  BSF    F8C.2
0B5E0:  BCF    F95.2
....................             VelocidadMotor(0); 
0B5E2:  MOVLB  7
0B5E4:  CLRF   x58
0B5E6:  MOVLB  0
0B5E8:  CALL   1B50
....................             printf("page Off"); 
0B5EC:  MOVLW  04
0B5EE:  MOVWF  FF6
0B5F0:  MOVLW  0D
0B5F2:  MOVWF  FF7
0B5F4:  MOVLW  00
0B5F6:  MOVWF  FF8
0B5F8:  CALL   1E2E
....................             SendDataDisplay(); 
0B5FC:  CALL   1E60
....................             delay_ms(150); 
0B600:  MOVLW  96
0B602:  MOVLB  7
0B604:  MOVWF  x6C
0B606:  MOVLB  0
0B608:  CALL   15AA
....................             ApagaSalidas(); 
0B60C:  CALL   67BC
....................             //Display_off; 
....................             //delay_ms(150); 
....................             UP=OFF;DOWN=OFF;RIGHT=OFF;LEFT=OFF; 
0B610:  BCF    x7F.3
0B612:  BCF    x7F.4
0B614:  BCF    x7F.5
0B616:  BCF    x7F.6
....................             delay_ms(150); 
0B618:  MOVLW  96
0B61A:  MOVLB  7
0B61C:  MOVWF  x6C
0B61E:  MOVLB  0
0B620:  CALL   15AA
....................             //reset_cpu(); 
....................          }else{ 
0B624:  BRA    B62E
....................             VelocidadMotor(Vel1); 
0B626:  MOVFF  90,758
0B62A:  CALL   1B50
....................          } 
....................       } 
.................... //_--------------------------------------------------------------------------------------------------------------------------------------------------------        
....................  
.................... //_--------------------------------------------------------------------------------------------------------------------------------------------------------       
....................       if(Menu==7){ //Menu de Configuracin de Fecha y Hora 
0B62E:  MOVF   x82,W
0B630:  SUBLW  07
0B632:  BTFSS  FD8.2
0B634:  BRA    BC3E
....................          printf("fecha.txt=\"Fecha:%02u/%02u/20%02u    Hora: %02u:%02u:%02u  T:%02uC\"",Dia,Mes,Year,Hora,Minuto,Segundo,Temperatura); 
0B636:  MOVLW  0E
0B638:  MOVWF  FF6
0B63A:  MOVLW  0D
0B63C:  MOVWF  FF7
0B63E:  MOVLW  00
0B640:  MOVWF  FF8
0B642:  MOVLW  11
0B644:  MOVLB  7
0B646:  MOVWF  x5C
0B648:  MOVLB  0
0B64A:  CALL   71A4
0B64E:  MOVFF  94,759
0B652:  MOVLW  01
0B654:  MOVLB  7
0B656:  MOVWF  x5A
0B658:  MOVLB  0
0B65A:  CALL   7202
0B65E:  MOVLW  2F
0B660:  BTFSS  F9E.4
0B662:  BRA    B660
0B664:  MOVWF  FAD
0B666:  MOVFF  93,759
0B66A:  MOVLW  01
0B66C:  MOVLB  7
0B66E:  MOVWF  x5A
0B670:  MOVLB  0
0B672:  CALL   7202
0B676:  MOVLW  2F
0B678:  BTFSS  F9E.4
0B67A:  BRA    B678
0B67C:  MOVWF  FAD
0B67E:  MOVLW  32
0B680:  BTFSS  F9E.4
0B682:  BRA    B680
0B684:  MOVWF  FAD
0B686:  MOVLW  30
0B688:  BTFSS  F9E.4
0B68A:  BRA    B688
0B68C:  MOVWF  FAD
0B68E:  MOVFF  92,759
0B692:  MOVLW  01
0B694:  MOVLB  7
0B696:  MOVWF  x5A
0B698:  MOVLB  0
0B69A:  CALL   7202
0B69E:  MOVLW  2F
0B6A0:  MOVWF  FF6
0B6A2:  MOVLW  0D
0B6A4:  MOVWF  FF7
0B6A6:  MOVLW  00
0B6A8:  MOVWF  FF8
0B6AA:  MOVLW  0A
0B6AC:  MOVLB  7
0B6AE:  MOVWF  x5C
0B6B0:  MOVLB  0
0B6B2:  CALL   71A4
0B6B6:  MOVFF  95,759
0B6BA:  MOVLW  01
0B6BC:  MOVLB  7
0B6BE:  MOVWF  x5A
0B6C0:  MOVLB  0
0B6C2:  CALL   7202
0B6C6:  MOVLW  3A
0B6C8:  BTFSS  F9E.4
0B6CA:  BRA    B6C8
0B6CC:  MOVWF  FAD
0B6CE:  MOVFF  96,759
0B6D2:  MOVLW  01
0B6D4:  MOVLB  7
0B6D6:  MOVWF  x5A
0B6D8:  MOVLB  0
0B6DA:  CALL   7202
0B6DE:  MOVLW  3A
0B6E0:  BTFSS  F9E.4
0B6E2:  BRA    B6E0
0B6E4:  MOVWF  FAD
0B6E6:  MOVFF  97,759
0B6EA:  MOVLW  01
0B6EC:  MOVLB  7
0B6EE:  MOVWF  x5A
0B6F0:  MOVLB  0
0B6F2:  CALL   7202
0B6F6:  MOVLW  47
0B6F8:  MOVWF  FF6
0B6FA:  MOVLW  0D
0B6FC:  MOVWF  FF7
0B6FE:  MOVLW  00
0B700:  MOVWF  FF8
0B702:  MOVLW  04
0B704:  MOVLB  7
0B706:  MOVWF  x5C
0B708:  MOVLB  0
0B70A:  CALL   71A4
0B70E:  MOVFF  283,759
0B712:  MOVLW  01
0B714:  MOVLB  7
0B716:  MOVWF  x5A
0B718:  MOVLB  0
0B71A:  CALL   7202
0B71E:  MOVLW  B0
0B720:  BTFSS  F9E.4
0B722:  BRA    B720
0B724:  MOVWF  FAD
0B726:  MOVLW  43
0B728:  BTFSS  F9E.4
0B72A:  BRA    B728
0B72C:  MOVWF  FAD
0B72E:  MOVLW  22
0B730:  BTFSS  F9E.4
0B732:  BRA    B730
0B734:  MOVWF  FAD
....................          SendDataDisplay(); 
0B736:  CALL   1E60
....................          leeTeclasLaterales(); 
0B73A:  CALL   74EC
....................          leeEstados(); 
0B73E:  CALL   768E
....................           
....................          if(RX_Buffer[4]==0x0a){//Selecciono Hora 
0B742:  MOVF   35,W
0B744:  SUBLW  0A
0B746:  BNZ   B74C
....................             Opcion=4; 
0B748:  MOVLW  04
0B74A:  MOVWF  x83
....................          } 
....................           
....................          if(RX_Buffer[4]==0x0b){//Selecciono Minuto 
0B74C:  MOVF   35,W
0B74E:  SUBLW  0B
0B750:  BNZ   B756
....................             Opcion=5; 
0B752:  MOVLW  05
0B754:  MOVWF  x83
....................          } 
....................           
....................          if(RX_Buffer[4]==0x0c){//Selecciono Dia 
0B756:  MOVF   35,W
0B758:  SUBLW  0C
0B75A:  BNZ   B760
....................             Opcion=1; 
0B75C:  MOVLW  01
0B75E:  MOVWF  x83
....................          } 
....................           
....................          if(RX_Buffer[4]==0x0d){//Selecciono Hora 
0B760:  MOVF   35,W
0B762:  SUBLW  0D
0B764:  BNZ   B76A
....................             Opcion=2; 
0B766:  MOVLW  02
0B768:  MOVWF  x83
....................          } 
....................           
....................          if(RX_Buffer[4]==0x0e){//Selecciono Year 
0B76A:  MOVF   35,W
0B76C:  SUBLW  0E
0B76E:  BNZ   B774
....................             Opcion=3; 
0B770:  MOVLW  03
0B772:  MOVWF  x83
....................          } 
....................           
....................          if(RIGHT){ 
0B774:  BTFSS  x7F.5
0B776:  BRA    B78C
....................             delay_ms(200); 
0B778:  MOVLW  C8
0B77A:  MOVLB  7
0B77C:  MOVWF  x6C
0B77E:  MOVLB  0
0B780:  CALL   15AA
....................             if(RIGHT){ 
0B784:  BTFSS  x7F.5
0B786:  BRA    B78C
....................                RIGHT=OFF; 
0B788:  BCF    x7F.5
....................                Opcion++; 
0B78A:  INCF   x83,F
....................             } 
....................          } 
....................          if(Opcion>5) 
0B78C:  MOVF   x83,W
0B78E:  SUBLW  05
0B790:  BC    B796
....................             Opcion=1; 
0B792:  MOVLW  01
0B794:  MOVWF  x83
....................          if(Opcion<1) 
0B796:  MOVF   x83,F
0B798:  BNZ   B79E
....................             Opcion=5; 
0B79A:  MOVLW  05
0B79C:  MOVWF  x83
....................              
....................          if(Opcion==1){ 
0B79E:  DECFSZ x83,W
0B7A0:  BRA    B808
....................             printf("tdia.pco=65535"); 
0B7A2:  MOVLW  54
0B7A4:  MOVWF  FF6
0B7A6:  MOVLW  0D
0B7A8:  MOVWF  FF7
0B7AA:  MOVLW  00
0B7AC:  MOVWF  FF8
0B7AE:  CALL   1E2E
....................             SendDataDisplay();   
0B7B2:  CALL   1E60
....................             printf("tmes.pco=0"); 
0B7B6:  MOVLW  64
0B7B8:  MOVWF  FF6
0B7BA:  MOVLW  0D
0B7BC:  MOVWF  FF7
0B7BE:  MOVLW  00
0B7C0:  MOVWF  FF8
0B7C2:  CALL   1E2E
....................             SendDataDisplay();  
0B7C6:  CALL   1E60
....................             printf("tyear.pco=0"); 
0B7CA:  MOVLW  70
0B7CC:  MOVWF  FF6
0B7CE:  MOVLW  0D
0B7D0:  MOVWF  FF7
0B7D2:  MOVLW  00
0B7D4:  MOVWF  FF8
0B7D6:  CALL   1E2E
....................             SendDataDisplay();  
0B7DA:  CALL   1E60
....................             printf("thora.pco=0"); 
0B7DE:  MOVLW  7C
0B7E0:  MOVWF  FF6
0B7E2:  MOVLW  0D
0B7E4:  MOVWF  FF7
0B7E6:  MOVLW  00
0B7E8:  MOVWF  FF8
0B7EA:  CALL   1E2E
....................             SendDataDisplay();  
0B7EE:  CALL   1E60
....................             printf("tminutos.pco=0"); 
0B7F2:  MOVLW  88
0B7F4:  MOVWF  FF6
0B7F6:  MOVLW  0D
0B7F8:  MOVWF  FF7
0B7FA:  MOVLW  00
0B7FC:  MOVWF  FF8
0B7FE:  CALL   1E2E
....................             SendDataDisplay();  
0B802:  CALL   1E60
....................          }else if(Opcion==2){ 
0B806:  BRA    B9B6
0B808:  MOVF   x83,W
0B80A:  SUBLW  02
0B80C:  BNZ   B874
....................             printf("tdia.pco=0"); 
0B80E:  MOVLW  98
0B810:  MOVWF  FF6
0B812:  MOVLW  0D
0B814:  MOVWF  FF7
0B816:  MOVLW  00
0B818:  MOVWF  FF8
0B81A:  CALL   1E2E
....................             SendDataDisplay();   
0B81E:  CALL   1E60
....................             printf("tmes.pco=65535"); 
0B822:  MOVLW  A4
0B824:  MOVWF  FF6
0B826:  MOVLW  0D
0B828:  MOVWF  FF7
0B82A:  MOVLW  00
0B82C:  MOVWF  FF8
0B82E:  CALL   1E2E
....................             SendDataDisplay();  
0B832:  CALL   1E60
....................             printf("tyear.pco=0"); 
0B836:  MOVLW  B4
0B838:  MOVWF  FF6
0B83A:  MOVLW  0D
0B83C:  MOVWF  FF7
0B83E:  MOVLW  00
0B840:  MOVWF  FF8
0B842:  CALL   1E2E
....................             SendDataDisplay();  
0B846:  CALL   1E60
....................             printf("thora.pco=0"); 
0B84A:  MOVLW  C0
0B84C:  MOVWF  FF6
0B84E:  MOVLW  0D
0B850:  MOVWF  FF7
0B852:  MOVLW  00
0B854:  MOVWF  FF8
0B856:  CALL   1E2E
....................             SendDataDisplay();  
0B85A:  CALL   1E60
....................             printf("tminutos.pco=0"); 
0B85E:  MOVLW  CC
0B860:  MOVWF  FF6
0B862:  MOVLW  0D
0B864:  MOVWF  FF7
0B866:  MOVLW  00
0B868:  MOVWF  FF8
0B86A:  CALL   1E2E
....................             SendDataDisplay();  
0B86E:  CALL   1E60
....................          }else if(Opcion==3){ 
0B872:  BRA    B9B6
0B874:  MOVF   x83,W
0B876:  SUBLW  03
0B878:  BNZ   B8E0
....................             printf("tdia.pco=0"); 
0B87A:  MOVLW  DC
0B87C:  MOVWF  FF6
0B87E:  MOVLW  0D
0B880:  MOVWF  FF7
0B882:  MOVLW  00
0B884:  MOVWF  FF8
0B886:  CALL   1E2E
....................             SendDataDisplay();   
0B88A:  CALL   1E60
....................             printf("tmes.pco=0"); 
0B88E:  MOVLW  E8
0B890:  MOVWF  FF6
0B892:  MOVLW  0D
0B894:  MOVWF  FF7
0B896:  MOVLW  00
0B898:  MOVWF  FF8
0B89A:  CALL   1E2E
....................             SendDataDisplay();  
0B89E:  CALL   1E60
....................             printf("tyear.pco=65535"); 
0B8A2:  MOVLW  F4
0B8A4:  MOVWF  FF6
0B8A6:  MOVLW  0D
0B8A8:  MOVWF  FF7
0B8AA:  MOVLW  00
0B8AC:  MOVWF  FF8
0B8AE:  CALL   1E2E
....................             SendDataDisplay();  
0B8B2:  CALL   1E60
....................             printf("thora.pco=0"); 
0B8B6:  MOVLW  04
0B8B8:  MOVWF  FF6
0B8BA:  MOVLW  0E
0B8BC:  MOVWF  FF7
0B8BE:  MOVLW  00
0B8C0:  MOVWF  FF8
0B8C2:  CALL   1E2E
....................             SendDataDisplay();  
0B8C6:  CALL   1E60
....................             printf("tminutos.pco=0"); 
0B8CA:  MOVLW  10
0B8CC:  MOVWF  FF6
0B8CE:  MOVLW  0E
0B8D0:  MOVWF  FF7
0B8D2:  MOVLW  00
0B8D4:  MOVWF  FF8
0B8D6:  CALL   1E2E
....................             SendDataDisplay(); 
0B8DA:  CALL   1E60
....................          }else if(Opcion==4){ 
0B8DE:  BRA    B9B6
0B8E0:  MOVF   x83,W
0B8E2:  SUBLW  04
0B8E4:  BNZ   B94C
....................             printf("tdia.pco=0"); 
0B8E6:  MOVLW  20
0B8E8:  MOVWF  FF6
0B8EA:  MOVLW  0E
0B8EC:  MOVWF  FF7
0B8EE:  MOVLW  00
0B8F0:  MOVWF  FF8
0B8F2:  CALL   1E2E
....................             SendDataDisplay();   
0B8F6:  CALL   1E60
....................             printf("tmes.pco=0"); 
0B8FA:  MOVLW  2C
0B8FC:  MOVWF  FF6
0B8FE:  MOVLW  0E
0B900:  MOVWF  FF7
0B902:  MOVLW  00
0B904:  MOVWF  FF8
0B906:  CALL   1E2E
....................             SendDataDisplay();  
0B90A:  CALL   1E60
....................             printf("tyear.pco=0"); 
0B90E:  MOVLW  38
0B910:  MOVWF  FF6
0B912:  MOVLW  0E
0B914:  MOVWF  FF7
0B916:  MOVLW  00
0B918:  MOVWF  FF8
0B91A:  CALL   1E2E
....................             SendDataDisplay();  
0B91E:  CALL   1E60
....................             printf("thora.pco=65535"); 
0B922:  MOVLW  44
0B924:  MOVWF  FF6
0B926:  MOVLW  0E
0B928:  MOVWF  FF7
0B92A:  MOVLW  00
0B92C:  MOVWF  FF8
0B92E:  CALL   1E2E
....................             SendDataDisplay();  
0B932:  CALL   1E60
....................             printf("tminutos.pco=0"); 
0B936:  MOVLW  54
0B938:  MOVWF  FF6
0B93A:  MOVLW  0E
0B93C:  MOVWF  FF7
0B93E:  MOVLW  00
0B940:  MOVWF  FF8
0B942:  CALL   1E2E
....................             SendDataDisplay(); 
0B946:  CALL   1E60
....................          }else if(Opcion==5){ 
0B94A:  BRA    B9B6
0B94C:  MOVF   x83,W
0B94E:  SUBLW  05
0B950:  BNZ   B9B6
....................             printf("tdia.pco=0"); 
0B952:  MOVLW  64
0B954:  MOVWF  FF6
0B956:  MOVLW  0E
0B958:  MOVWF  FF7
0B95A:  MOVLW  00
0B95C:  MOVWF  FF8
0B95E:  CALL   1E2E
....................             SendDataDisplay();   
0B962:  CALL   1E60
....................             printf("tmes.pco=0"); 
0B966:  MOVLW  70
0B968:  MOVWF  FF6
0B96A:  MOVLW  0E
0B96C:  MOVWF  FF7
0B96E:  MOVLW  00
0B970:  MOVWF  FF8
0B972:  CALL   1E2E
....................             SendDataDisplay();  
0B976:  CALL   1E60
....................             printf("tyear.pco=0"); 
0B97A:  MOVLW  7C
0B97C:  MOVWF  FF6
0B97E:  MOVLW  0E
0B980:  MOVWF  FF7
0B982:  MOVLW  00
0B984:  MOVWF  FF8
0B986:  CALL   1E2E
....................             SendDataDisplay();  
0B98A:  CALL   1E60
....................             printf("thora.pco=0"); 
0B98E:  MOVLW  88
0B990:  MOVWF  FF6
0B992:  MOVLW  0E
0B994:  MOVWF  FF7
0B996:  MOVLW  00
0B998:  MOVWF  FF8
0B99A:  CALL   1E2E
....................             SendDataDisplay();  
0B99E:  CALL   1E60
....................             printf("tminutos.pco=65535"); 
0B9A2:  MOVLW  94
0B9A4:  MOVWF  FF6
0B9A6:  MOVLW  0E
0B9A8:  MOVWF  FF7
0B9AA:  MOVLW  00
0B9AC:  MOVWF  FF8
0B9AE:  CALL   1E2E
....................             SendDataDisplay(); 
0B9B2:  CALL   1E60
....................          } 
....................           
....................          if((RX_Buffer[4]==0x2a)|| UP){//Tecla Arriba Oprimida 
0B9B6:  MOVF   35,W
0B9B8:  SUBLW  2A
0B9BA:  BZ    B9C0
0B9BC:  BTFSS  x7F.3
0B9BE:  BRA    BAB4
....................             delay_ms(200); 
0B9C0:  MOVLW  C8
0B9C2:  MOVLB  7
0B9C4:  MOVWF  x6C
0B9C6:  MOVLB  0
0B9C8:  CALL   15AA
....................             if((RX_Buffer[4]==0x2a)|| UP){    
0B9CC:  MOVF   35,W
0B9CE:  SUBLW  2A
0B9D0:  BZ    B9D6
0B9D2:  BTFSS  x7F.3
0B9D4:  BRA    BAB4
....................                UP=OFF; 
0B9D6:  BCF    x7F.3
....................                if(Opcion==1){ 
0B9D8:  DECFSZ x83,W
0B9DA:  BRA    BA60
....................                   if(MesTx==2){ 
0B9DC:  MOVF   xA4,W
0B9DE:  SUBLW  02
0B9E0:  BNZ   BA0E
....................                      if(esBisiesto(YearTx)){ 
0B9E2:  MOVFF  A3,758
0B9E6:  CALL   72C8
0B9EA:  MOVF   01,F
0B9EC:  BZ    B9FE
....................                         if(DiaTx<29) 
0B9EE:  MOVF   xA5,W
0B9F0:  SUBLW  1C
0B9F2:  BNC   B9F8
....................                            DiaTx++; 
0B9F4:  INCF   xA5,F
....................                         else 
0B9F6:  BRA    B9FC
....................                            DiaTx=1;    
0B9F8:  MOVLW  01
0B9FA:  MOVWF  xA5
....................                      }else{ 
0B9FC:  BRA    BA0C
....................                         if(DiaTx<28) 
0B9FE:  MOVF   xA5,W
0BA00:  SUBLW  1B
0BA02:  BNC   BA08
....................                            DiaTx++; 
0BA04:  INCF   xA5,F
....................                         else 
0BA06:  BRA    BA0C
....................                            DiaTx=1;    
0BA08:  MOVLW  01
0BA0A:  MOVWF  xA5
....................                      } 
....................                   }else{ 
0BA0C:  BRA    BA5E
....................                      if(MesTx<=7){ 
0BA0E:  MOVF   xA4,W
0BA10:  SUBLW  07
0BA12:  BNC   BA3A
....................                         if(MesTx % 2 ==0){ 
0BA14:  MOVF   xA4,W
0BA16:  ANDLW  01
0BA18:  BNZ   BA2A
....................                            if(DiaTx<30) 
0BA1A:  MOVF   xA5,W
0BA1C:  SUBLW  1D
0BA1E:  BNC   BA24
....................                               DiaTx++;     
0BA20:  INCF   xA5,F
....................                            else 
0BA22:  BRA    BA28
....................                               DiaTx=1;    
0BA24:  MOVLW  01
0BA26:  MOVWF  xA5
....................                         }else{ 
0BA28:  BRA    BA38
....................                            if(DiaTx<31) 
0BA2A:  MOVF   xA5,W
0BA2C:  SUBLW  1E
0BA2E:  BNC   BA34
....................                               DiaTx++;     
0BA30:  INCF   xA5,F
....................                            else 
0BA32:  BRA    BA38
....................                               DiaTx=1;    
0BA34:  MOVLW  01
0BA36:  MOVWF  xA5
....................                         }     
....................                      }else{ 
0BA38:  BRA    BA5E
....................                         if(MesTx % 2 ==0){ 
0BA3A:  MOVF   xA4,W
0BA3C:  ANDLW  01
0BA3E:  BNZ   BA50
....................                            if(DiaTx<31) 
0BA40:  MOVF   xA5,W
0BA42:  SUBLW  1E
0BA44:  BNC   BA4A
....................                               DiaTx++;   
0BA46:  INCF   xA5,F
....................                            else 
0BA48:  BRA    BA4E
....................                               DiaTx=1; 
0BA4A:  MOVLW  01
0BA4C:  MOVWF  xA5
....................                         }else{ 
0BA4E:  BRA    BA5E
....................                            if(DiaTx<30) 
0BA50:  MOVF   xA5,W
0BA52:  SUBLW  1D
0BA54:  BNC   BA5A
....................                               DiaTx++;     
0BA56:  INCF   xA5,F
....................                            else 
0BA58:  BRA    BA5E
....................                               DiaTx=1; 
0BA5A:  MOVLW  01
0BA5C:  MOVWF  xA5
....................                         }     
....................                      } 
....................                   } 
....................                }else if(Opcion==2){ 
0BA5E:  BRA    BAB0
0BA60:  MOVF   x83,W
0BA62:  SUBLW  02
0BA64:  BNZ   BA76
....................                   if(MesTx<12) 
0BA66:  MOVF   xA4,W
0BA68:  SUBLW  0B
0BA6A:  BNC   BA70
....................                      MesTx++; 
0BA6C:  INCF   xA4,F
....................                   else 
0BA6E:  BRA    BA74
....................                      MesTx=1; 
0BA70:  MOVLW  01
0BA72:  MOVWF  xA4
....................                }else if(Opcion==3){ 
0BA74:  BRA    BAB0
0BA76:  MOVF   x83,W
0BA78:  SUBLW  03
0BA7A:  BNZ   BA8A
....................                   if(YearTx<99) 
0BA7C:  MOVF   xA3,W
0BA7E:  SUBLW  62
0BA80:  BNC   BA86
....................                      YearTx++; 
0BA82:  INCF   xA3,F
....................                   else  
0BA84:  BRA    BA88
....................                      YearTx=0; 
0BA86:  CLRF   xA3
....................                }else if(Opcion==4){ 
0BA88:  BRA    BAB0
0BA8A:  MOVF   x83,W
0BA8C:  SUBLW  04
0BA8E:  BNZ   BA9E
....................                   if(HoraTx<24) 
0BA90:  MOVF   xA6,W
0BA92:  SUBLW  17
0BA94:  BNC   BA9A
....................                      HoraTx++; 
0BA96:  INCF   xA6,F
....................                   else 
0BA98:  BRA    BA9C
....................                      HoraTx=0; 
0BA9A:  CLRF   xA6
....................                }else if(Opcion==5){ 
0BA9C:  BRA    BAB0
0BA9E:  MOVF   x83,W
0BAA0:  SUBLW  05
0BAA2:  BNZ   BAB0
....................                   if(MinutoTx<59) 
0BAA4:  MOVF   xA7,W
0BAA6:  SUBLW  3A
0BAA8:  BNC   BAAE
....................                      MinutoTx++; 
0BAAA:  INCF   xA7,F
....................                   else 
0BAAC:  BRA    BAB0
....................                      MinutoTx=0; 
0BAAE:  CLRF   xA7
....................                } 
....................                RX_Buffer[4]=0x00; 
0BAB0:  CLRF   35
....................                RX_Buffer2[4]=0x00; 
0BAB2:  CLRF   40
....................             } 
....................          } 
....................           
....................          if(RX_Buffer[4]==0x2b || DOWN){//Tecla Abajo Oprimida 
0BAB4:  MOVF   35,W
0BAB6:  SUBLW  2B
0BAB8:  BZ    BABE
0BABA:  BTFSS  x7F.4
0BABC:  BRA    BB36
....................             delay_ms(200); 
0BABE:  MOVLW  C8
0BAC0:  MOVLB  7
0BAC2:  MOVWF  x6C
0BAC4:  MOVLB  0
0BAC6:  CALL   15AA
....................             if(RX_Buffer[4]==0x2b || DOWN){    
0BACA:  MOVF   35,W
0BACC:  SUBLW  2B
0BACE:  BZ    BAD4
0BAD0:  BTFSS  x7F.4
0BAD2:  BRA    BB36
....................                DOWN=OFF; 
0BAD4:  BCF    x7F.4
....................                if(Opcion==1){ 
0BAD6:  DECFSZ x83,W
0BAD8:  BRA    BAE2
....................                   if(DiaTx>0) 
0BADA:  MOVF   xA5,F
0BADC:  BZ    BAE0
....................                      DiaTx--; 
0BADE:  DECF   xA5,F
....................                }else if(Opcion==2){ 
0BAE0:  BRA    BB32
0BAE2:  MOVF   x83,W
0BAE4:  SUBLW  02
0BAE6:  BNZ   BAF8
....................                   if(MesTx>1) 
0BAE8:  MOVF   xA4,W
0BAEA:  SUBLW  01
0BAEC:  BC    BAF2
....................                      MesTx--; 
0BAEE:  DECF   xA4,F
....................                   else 
0BAF0:  BRA    BAF6
....................                      MesTx=12; 
0BAF2:  MOVLW  0C
0BAF4:  MOVWF  xA4
....................                }else if(Opcion==3){ 
0BAF6:  BRA    BB32
0BAF8:  MOVF   x83,W
0BAFA:  SUBLW  03
0BAFC:  BNZ   BB0C
....................                   if(YearTx>0) 
0BAFE:  MOVF   xA3,F
0BB00:  BZ    BB06
....................                      YearTx--; 
0BB02:  DECF   xA3,F
....................                   else 
0BB04:  BRA    BB0A
....................                      YearTx=99; 
0BB06:  MOVLW  63
0BB08:  MOVWF  xA3
....................                }else if(Opcion==4){ 
0BB0A:  BRA    BB32
0BB0C:  MOVF   x83,W
0BB0E:  SUBLW  04
0BB10:  BNZ   BB20
....................                   if(HoraTx>0) 
0BB12:  MOVF   xA6,F
0BB14:  BZ    BB1A
....................                      HoraTx--; 
0BB16:  DECF   xA6,F
....................                   else 
0BB18:  BRA    BB1E
....................                      HoraTx=23; 
0BB1A:  MOVLW  17
0BB1C:  MOVWF  xA6
....................                }else if(Opcion==5){ 
0BB1E:  BRA    BB32
0BB20:  MOVF   x83,W
0BB22:  SUBLW  05
0BB24:  BNZ   BB32
....................                   if(MinutoTx>0) 
0BB26:  MOVF   xA7,F
0BB28:  BZ    BB2E
....................                      MinutoTx--; 
0BB2A:  DECF   xA7,F
....................                   else 
0BB2C:  BRA    BB32
....................                      MinutoTx=59; 
0BB2E:  MOVLW  3B
0BB30:  MOVWF  xA7
....................                } 
....................                RX_Buffer[4]=0x00; 
0BB32:  CLRF   35
....................                RX_Buffer2[4]=0x00; 
0BB34:  CLRF   40
....................             } 
....................          } 
....................        
....................       printf("thora.txt=\"%02u\"",HoraTx); 
0BB36:  MOVLW  A8
0BB38:  MOVWF  FF6
0BB3A:  MOVLW  0E
0BB3C:  MOVWF  FF7
0BB3E:  MOVLW  00
0BB40:  MOVWF  FF8
0BB42:  MOVLW  0B
0BB44:  MOVLB  7
0BB46:  MOVWF  x5C
0BB48:  MOVLB  0
0BB4A:  CALL   71A4
0BB4E:  MOVFF  A6,759
0BB52:  MOVLW  01
0BB54:  MOVLB  7
0BB56:  MOVWF  x5A
0BB58:  MOVLB  0
0BB5A:  CALL   7202
0BB5E:  MOVLW  22
0BB60:  BTFSS  F9E.4
0BB62:  BRA    BB60
0BB64:  MOVWF  FAD
....................       SendDataDisplay(); 
0BB66:  CALL   1E60
....................       printf("tminutos.txt=\"%02u\"",MinutoTx); 
0BB6A:  MOVLW  BA
0BB6C:  MOVWF  FF6
0BB6E:  MOVLW  0E
0BB70:  MOVWF  FF7
0BB72:  MOVLW  00
0BB74:  MOVWF  FF8
0BB76:  MOVLW  0E
0BB78:  MOVLB  7
0BB7A:  MOVWF  x5C
0BB7C:  MOVLB  0
0BB7E:  CALL   71A4
0BB82:  MOVFF  A7,759
0BB86:  MOVLW  01
0BB88:  MOVLB  7
0BB8A:  MOVWF  x5A
0BB8C:  MOVLB  0
0BB8E:  CALL   7202
0BB92:  MOVLW  22
0BB94:  BTFSS  F9E.4
0BB96:  BRA    BB94
0BB98:  MOVWF  FAD
....................       SendDataDisplay(); 
0BB9A:  CALL   1E60
....................       printf("tdia.txt=\"%02u\"",DiaTx); 
0BB9E:  MOVLW  CE
0BBA0:  MOVWF  FF6
0BBA2:  MOVLW  0E
0BBA4:  MOVWF  FF7
0BBA6:  MOVLW  00
0BBA8:  MOVWF  FF8
0BBAA:  MOVLW  0A
0BBAC:  MOVLB  7
0BBAE:  MOVWF  x5C
0BBB0:  MOVLB  0
0BBB2:  CALL   71A4
0BBB6:  MOVFF  A5,759
0BBBA:  MOVLW  01
0BBBC:  MOVLB  7
0BBBE:  MOVWF  x5A
0BBC0:  MOVLB  0
0BBC2:  CALL   7202
0BBC6:  MOVLW  22
0BBC8:  BTFSS  F9E.4
0BBCA:  BRA    BBC8
0BBCC:  MOVWF  FAD
....................       SendDataDisplay(); 
0BBCE:  CALL   1E60
....................       printf("tmes.txt=\"%02u\"",MesTx); 
0BBD2:  MOVLW  DE
0BBD4:  MOVWF  FF6
0BBD6:  MOVLW  0E
0BBD8:  MOVWF  FF7
0BBDA:  MOVLW  00
0BBDC:  MOVWF  FF8
0BBDE:  MOVLW  0A
0BBE0:  MOVLB  7
0BBE2:  MOVWF  x5C
0BBE4:  MOVLB  0
0BBE6:  CALL   71A4
0BBEA:  MOVFF  A4,759
0BBEE:  MOVLW  01
0BBF0:  MOVLB  7
0BBF2:  MOVWF  x5A
0BBF4:  MOVLB  0
0BBF6:  CALL   7202
0BBFA:  MOVLW  22
0BBFC:  BTFSS  F9E.4
0BBFE:  BRA    BBFC
0BC00:  MOVWF  FAD
....................       SendDataDisplay(); 
0BC02:  CALL   1E60
....................       printf("tyear.txt=\"%02u\"",YearTx); 
0BC06:  MOVLW  EE
0BC08:  MOVWF  FF6
0BC0A:  MOVLW  0E
0BC0C:  MOVWF  FF7
0BC0E:  MOVLW  00
0BC10:  MOVWF  FF8
0BC12:  MOVLW  0B
0BC14:  MOVLB  7
0BC16:  MOVWF  x5C
0BC18:  MOVLB  0
0BC1A:  CALL   71A4
0BC1E:  MOVFF  A3,759
0BC22:  MOVLW  01
0BC24:  MOVLB  7
0BC26:  MOVWF  x5A
0BC28:  MOVLB  0
0BC2A:  CALL   7202
0BC2E:  MOVLW  22
0BC30:  BTFSS  F9E.4
0BC32:  BRA    BC30
0BC34:  MOVWF  FAD
....................       SendDataDisplay(); 
0BC36:  CALL   1E60
....................       LimitaDia();   
0BC3A:  GOTO   87E4
....................     } 
.................... //_--------------------------------------------------------------------------------------------------------------------------------------------------------        
....................  
.................... //_--------------------------------------------------------------------------------------------------------------------------------------------------------       
....................     if(Menu==8){//Menu de off 
0BC3E:  MOVF   x82,W
0BC40:  SUBLW  08
0BC42:  BNZ   BCAC
....................       VelMotor=0;VelMotor2=0;LuzBlanca_off;LuzUV_off;Toma_off;Alarma_off;Motor_off;Motor2_off;Aux_off; 
0BC44:  MOVLB  2
0BC46:  CLRF   x85
0BC48:  CLRF   x86
0BC4A:  BSF    F8C.0
0BC4C:  BCF    F95.0
0BC4E:  BSF    F8C.1
0BC50:  BCF    F95.1
0BC52:  BCF    F8B.1
0BC54:  BCF    F94.1
0BC56:  BCF    F8B.0
0BC58:  BCF    F94.0
0BC5A:  BCF    F8B.3
0BC5C:  BCF    F94.3
0BC5E:  BCF    F8B.2
0BC60:  BCF    F94.2
0BC62:  BSF    F8C.2
0BC64:  BCF    F95.2
....................       mPurga=0;sPurga=0;mPPurga=0;sPPurga=0;mUV=0;sUV=0;flagClave=0;tClave=0; 
0BC66:  MOVLB  0
0BC68:  CLRF   xB3
0BC6A:  CLRF   xB1
0BC6C:  CLRF   xB7
0BC6E:  CLRF   xB5
0BC70:  CLRF   xBA
0BC72:  CLRF   xB9
0BC74:  BCF    x7F.1
0BC76:  CLRF   xD1
0BC78:  CLRF   xD0
....................       tiempo_purga=0;tiempo_postpurga=0;TipoClave=0;tEncendido=0;VelocidadMotor(0); 
0BC7A:  BCF    x7D.7
0BC7C:  BCF    x80.3
0BC7E:  CLRF   xAC
0BC80:  MOVLB  2
0BC82:  CLRF   x84
0BC84:  MOVLB  7
0BC86:  CLRF   x58
0BC88:  MOVLB  0
0BC8A:  CALL   1B50
....................        
....................       Display_on; 
0BC8E:  BSF    F8C.5
0BC90:  BCF    F95.5
....................        
....................       if(RX_Buffer[4]==0x11){ 
0BC92:  MOVF   35,W
0BC94:  SUBLW  11
0BC96:  BNZ   BCAC
....................          printf("page Bienvenida"); 
0BC98:  MOVLW  00
0BC9A:  MOVWF  FF6
0BC9C:  MOVLW  0F
0BC9E:  MOVWF  FF7
0BCA0:  MOVLW  00
0BCA2:  MOVWF  FF8
0BCA4:  CALL   1E2E
....................          SendDataDisplay();                   
0BCA8:  CALL   1E60
....................       } 
....................     } 
.................... //_--------------------------------------------------------------------------------------------------------------------------------------------------------        
....................  
.................... //_-------------------------------------------------------------------------------------------------------------------------------------------------------- 
....................       if(Menu==9){ //Menu de Tiempo de UV 
0BCAC:  MOVF   x82,W
0BCAE:  SUBLW  09
0BCB0:  BTFSS  FD8.2
0BCB2:  BRA    C00A
....................           
....................          printf("fecha.txt=\"Fecha:%02u/%02u/20%02u    Hora: %02u:%02u:%02u  T:%02uC\"",Dia,Mes,Year,Hora,Minuto,Segundo,Temperatura); 
0BCB4:  MOVLW  10
0BCB6:  MOVWF  FF6
0BCB8:  MOVLW  0F
0BCBA:  MOVWF  FF7
0BCBC:  MOVLW  00
0BCBE:  MOVWF  FF8
0BCC0:  MOVLW  11
0BCC2:  MOVLB  7
0BCC4:  MOVWF  x5C
0BCC6:  MOVLB  0
0BCC8:  CALL   71A4
0BCCC:  MOVFF  94,759
0BCD0:  MOVLW  01
0BCD2:  MOVLB  7
0BCD4:  MOVWF  x5A
0BCD6:  MOVLB  0
0BCD8:  CALL   7202
0BCDC:  MOVLW  2F
0BCDE:  BTFSS  F9E.4
0BCE0:  BRA    BCDE
0BCE2:  MOVWF  FAD
0BCE4:  MOVFF  93,759
0BCE8:  MOVLW  01
0BCEA:  MOVLB  7
0BCEC:  MOVWF  x5A
0BCEE:  MOVLB  0
0BCF0:  CALL   7202
0BCF4:  MOVLW  2F
0BCF6:  BTFSS  F9E.4
0BCF8:  BRA    BCF6
0BCFA:  MOVWF  FAD
0BCFC:  MOVLW  32
0BCFE:  BTFSS  F9E.4
0BD00:  BRA    BCFE
0BD02:  MOVWF  FAD
0BD04:  MOVLW  30
0BD06:  BTFSS  F9E.4
0BD08:  BRA    BD06
0BD0A:  MOVWF  FAD
0BD0C:  MOVFF  92,759
0BD10:  MOVLW  01
0BD12:  MOVLB  7
0BD14:  MOVWF  x5A
0BD16:  MOVLB  0
0BD18:  CALL   7202
0BD1C:  MOVLW  31
0BD1E:  MOVWF  FF6
0BD20:  MOVLW  0F
0BD22:  MOVWF  FF7
0BD24:  MOVLW  00
0BD26:  MOVWF  FF8
0BD28:  MOVLW  0A
0BD2A:  MOVLB  7
0BD2C:  MOVWF  x5C
0BD2E:  MOVLB  0
0BD30:  CALL   71A4
0BD34:  MOVFF  95,759
0BD38:  MOVLW  01
0BD3A:  MOVLB  7
0BD3C:  MOVWF  x5A
0BD3E:  MOVLB  0
0BD40:  CALL   7202
0BD44:  MOVLW  3A
0BD46:  BTFSS  F9E.4
0BD48:  BRA    BD46
0BD4A:  MOVWF  FAD
0BD4C:  MOVFF  96,759
0BD50:  MOVLW  01
0BD52:  MOVLB  7
0BD54:  MOVWF  x5A
0BD56:  MOVLB  0
0BD58:  CALL   7202
0BD5C:  MOVLW  3A
0BD5E:  BTFSS  F9E.4
0BD60:  BRA    BD5E
0BD62:  MOVWF  FAD
0BD64:  MOVFF  97,759
0BD68:  MOVLW  01
0BD6A:  MOVLB  7
0BD6C:  MOVWF  x5A
0BD6E:  MOVLB  0
0BD70:  CALL   7202
0BD74:  MOVLW  49
0BD76:  MOVWF  FF6
0BD78:  MOVLW  0F
0BD7A:  MOVWF  FF7
0BD7C:  MOVLW  00
0BD7E:  MOVWF  FF8
0BD80:  MOVLW  04
0BD82:  MOVLB  7
0BD84:  MOVWF  x5C
0BD86:  MOVLB  0
0BD88:  CALL   71A4
0BD8C:  MOVFF  283,759
0BD90:  MOVLW  01
0BD92:  MOVLB  7
0BD94:  MOVWF  x5A
0BD96:  MOVLB  0
0BD98:  CALL   7202
0BD9C:  MOVLW  B0
0BD9E:  BTFSS  F9E.4
0BDA0:  BRA    BD9E
0BDA2:  MOVWF  FAD
0BDA4:  MOVLW  43
0BDA6:  BTFSS  F9E.4
0BDA8:  BRA    BDA6
0BDAA:  MOVWF  FAD
0BDAC:  MOVLW  22
0BDAE:  BTFSS  F9E.4
0BDB0:  BRA    BDAE
0BDB2:  MOVWF  FAD
....................          SendDataDisplay(); 
0BDB4:  CALL   1E60
....................          if(RX_Buffer[4]==0x0a){//Selecciono Minutos 
0BDB8:  MOVF   35,W
0BDBA:  SUBLW  0A
0BDBC:  BNZ   BDC2
....................             Minutos=ON; 
0BDBE:  BSF    x7E.4
....................             Segundos=OFF; 
0BDC0:  BCF    x7E.5
....................          } 
....................           
....................          if(RX_Buffer[4]==0x0b){//Selecciono Segundos 
0BDC2:  MOVF   35,W
0BDC4:  SUBLW  0B
0BDC6:  BNZ   BDCC
....................             Segundos=ON; 
0BDC8:  BSF    x7E.5
....................             Minutos=OFF; 
0BDCA:  BCF    x7E.4
....................          }     
....................           
....................          if(RIGHT){ 
0BDCC:  BTFSS  x7F.5
0BDCE:  BRA    BE44
....................             delay_ms(200); 
0BDD0:  MOVLW  C8
0BDD2:  MOVLB  7
0BDD4:  MOVWF  x6C
0BDD6:  MOVLB  0
0BDD8:  CALL   15AA
....................             if(RIGHT){ 
0BDDC:  BTFSS  x7F.5
0BDDE:  BRA    BE44
....................                RIGHT=OFF; 
0BDE0:  BCF    x7F.5
....................                if(!Segundos){ 
0BDE2:  BTFSC  x7E.5
0BDE4:  BRA    BE14
....................                   Segundos=ON; 
0BDE6:  BSF    x7E.5
....................                   Minutos=OFF; 
0BDE8:  BCF    x7E.4
....................                   printf("tsecest.pco=65535"); 
0BDEA:  MOVLW  56
0BDEC:  MOVWF  FF6
0BDEE:  MOVLW  0F
0BDF0:  MOVWF  FF7
0BDF2:  MOVLW  00
0BDF4:  MOVWF  FF8
0BDF6:  CALL   1E2E
....................                   SendDataDisplay();   
0BDFA:  CALL   1E60
....................                   printf("tminest.pco=0"); 
0BDFE:  MOVLW  68
0BE00:  MOVWF  FF6
0BE02:  MOVLW  0F
0BE04:  MOVWF  FF7
0BE06:  MOVLW  00
0BE08:  MOVWF  FF8
0BE0A:  CALL   1E2E
....................                   SendDataDisplay();   
0BE0E:  CALL   1E60
....................                }else if(!Minutos){ 
0BE12:  BRA    BE44
0BE14:  BTFSC  x7E.4
0BE16:  BRA    BE44
....................                   Segundos=OFF; 
0BE18:  BCF    x7E.5
....................                   Minutos=ON; 
0BE1A:  BSF    x7E.4
....................                   printf("tsecest.pco=0"); 
0BE1C:  MOVLW  76
0BE1E:  MOVWF  FF6
0BE20:  MOVLW  0F
0BE22:  MOVWF  FF7
0BE24:  MOVLW  00
0BE26:  MOVWF  FF8
0BE28:  CALL   1E2E
....................                   SendDataDisplay();   
0BE2C:  CALL   1E60
....................                   printf("tminest.pco=65535"); 
0BE30:  MOVLW  84
0BE32:  MOVWF  FF6
0BE34:  MOVLW  0F
0BE36:  MOVWF  FF7
0BE38:  MOVLW  00
0BE3A:  MOVWF  FF8
0BE3C:  CALL   1E2E
....................                   SendDataDisplay();   
0BE40:  CALL   1E60
....................                } 
....................             } 
....................          } 
....................           
....................          if(RX_Buffer[4]==0x11 || LEFT){//Selecciono Regresar 
0BE44:  MOVF   35,W
0BE46:  SUBLW  11
0BE48:  BZ    BE4E
0BE4A:  BTFSS  x7F.6
0BE4C:  BRA    BF08
....................             delay_ms(200); 
0BE4E:  MOVLW  C8
0BE50:  MOVLB  7
0BE52:  MOVWF  x6C
0BE54:  MOVLB  0
0BE56:  CALL   15AA
....................             if(RX_Buffer[4]==0x11 || LEFT){ 
0BE5A:  MOVF   35,W
0BE5C:  SUBLW  11
0BE5E:  BZ    BE64
0BE60:  BTFSS  x7F.6
0BE62:  BRA    BF08
....................                LEFT=OFF; 
0BE64:  BCF    x7F.6
....................                Segundos=OFF; 
0BE66:  BCF    x7E.5
....................                Minutos=OFF; 
0BE68:  BCF    x7E.4
....................                printf("page Tiempos"); 
0BE6A:  MOVLW  96
0BE6C:  MOVWF  FF6
0BE6E:  MOVLW  0F
0BE70:  MOVWF  FF7
0BE72:  MOVLW  00
0BE74:  MOVWF  FF8
0BE76:  CALL   1E2E
....................                SendDataDisplay(); 
0BE7A:  CALL   1E60
....................                UP=OFF;DOWN=OFF;RIGHT=OFF;LEFT=OFF; 
0BE7E:  BCF    x7F.3
0BE80:  BCF    x7F.4
0BE82:  BCF    x7F.5
0BE84:  BCF    x7F.6
....................                if(!GuardaEEPROM){ 
0BE86:  BTFSC  x7E.3
0BE88:  BRA    BF08
....................                   write_eeprom(8,mUVp); 
0BE8A:  CLRF   FAA
0BE8C:  MOVLW  08
0BE8E:  MOVWF  FA9
0BE90:  MOVFF  BC,FA8
0BE94:  BCF    FA6.6
0BE96:  BCF    FA6.7
0BE98:  BSF    FA6.2
0BE9A:  MOVF   FF2,W
0BE9C:  MOVWF  00
0BE9E:  BCF    FF2.6
0BEA0:  BCF    FF2.7
0BEA2:  MOVLB  F
0BEA4:  MOVLW  55
0BEA6:  MOVWF  FA7
0BEA8:  MOVLW  AA
0BEAA:  MOVWF  FA7
0BEAC:  BSF    FA6.1
0BEAE:  BTFSC  FA6.1
0BEB0:  BRA    BEAE
0BEB2:  BCF    FA6.2
0BEB4:  MOVF   00,W
0BEB6:  IORWF  FF2,F
....................                   delay_ms(10); 
0BEB8:  MOVLW  0A
0BEBA:  MOVLB  7
0BEBC:  MOVWF  x6C
0BEBE:  MOVLB  0
0BEC0:  CALL   15AA
....................                   write_eeprom(9,sUVp); 
0BEC4:  CLRF   FAA
0BEC6:  MOVLW  09
0BEC8:  MOVWF  FA9
0BECA:  MOVFF  BB,FA8
0BECE:  BCF    FA6.6
0BED0:  BCF    FA6.7
0BED2:  BSF    FA6.2
0BED4:  MOVF   FF2,W
0BED6:  MOVWF  00
0BED8:  BCF    FF2.6
0BEDA:  BCF    FF2.7
0BEDC:  MOVLB  F
0BEDE:  MOVLW  55
0BEE0:  MOVWF  FA7
0BEE2:  MOVLW  AA
0BEE4:  MOVWF  FA7
0BEE6:  BSF    FA6.1
0BEE8:  BTFSC  FA6.1
0BEEA:  BRA    BEE8
0BEEC:  BCF    FA6.2
0BEEE:  MOVF   00,W
0BEF0:  IORWF  FF2,F
....................                   delay_ms(10); 
0BEF2:  MOVLW  0A
0BEF4:  MOVLB  7
0BEF6:  MOVWF  x6C
0BEF8:  MOVLB  0
0BEFA:  CALL   15AA
....................                   mUV=mUVp; 
0BEFE:  MOVFF  BC,BA
....................                   sUV=sUVp; 
0BF02:  MOVFF  BB,B9
....................                   GuardaEEPROM=ON; 
0BF06:  BSF    x7E.3
....................                } 
....................             } 
....................          } 
....................           
....................          if(RX_Buffer[4]==0x0c || RX_Buffer[4]==0x0d || UP){//Tecla arriba Oprimida 
0BF08:  MOVF   35,W
0BF0A:  SUBLW  0C
0BF0C:  BZ    BF18
0BF0E:  MOVF   35,W
0BF10:  SUBLW  0D
0BF12:  BZ    BF18
0BF14:  BTFSS  x7F.3
0BF16:  BRA    BF46
....................             delay_ms(10); 
0BF18:  MOVLW  0A
0BF1A:  MOVLB  7
0BF1C:  MOVWF  x6C
0BF1E:  MOVLB  0
0BF20:  CALL   15AA
....................             if(RX_Buffer[4]==0x0c || RX_Buffer[4]==0x0d || UP){//Tecla arriba Oprimida 
0BF24:  MOVF   35,W
0BF26:  SUBLW  0C
0BF28:  BZ    BF34
0BF2A:  MOVF   35,W
0BF2C:  SUBLW  0D
0BF2E:  BZ    BF34
0BF30:  BTFSS  x7F.3
0BF32:  BRA    BF46
....................                UP=OFF; 
0BF34:  BCF    x7F.3
....................                if(Segundos){ 
0BF36:  BTFSS  x7E.5
0BF38:  BRA    BF3C
....................                   sUVp++; 
0BF3A:  INCF   xBB,F
....................                } 
....................                if(Minutos){ 
0BF3C:  BTFSS  x7E.4
0BF3E:  BRA    BF42
....................                   mUVp++; 
0BF40:  INCF   xBC,F
....................                }   
....................                RX_Buffer[4]=0x00;   
0BF42:  CLRF   35
....................                RX_Buffer2[4]=0x00; 
0BF44:  CLRF   40
....................             } 
....................          } 
....................           
....................          if(RX_Buffer[4]==0x0f || RX_Buffer[4]==0x0e || DOWN){//Tecla abajo oprimida 
0BF46:  MOVF   35,W
0BF48:  SUBLW  0F
0BF4A:  BZ    BF56
0BF4C:  MOVF   35,W
0BF4E:  SUBLW  0E
0BF50:  BZ    BF56
0BF52:  BTFSS  x7F.4
0BF54:  BRA    BF88
....................             delay_ms(10); 
0BF56:  MOVLW  0A
0BF58:  MOVLB  7
0BF5A:  MOVWF  x6C
0BF5C:  MOVLB  0
0BF5E:  CALL   15AA
....................             if(RX_Buffer[4]==0x0f || RX_Buffer[4]==0x0e || DOWN){//Tecla abajo oprimida 
0BF62:  MOVF   35,W
0BF64:  SUBLW  0F
0BF66:  BZ    BF72
0BF68:  MOVF   35,W
0BF6A:  SUBLW  0E
0BF6C:  BZ    BF72
0BF6E:  BTFSS  x7F.4
0BF70:  BRA    BF88
....................                DOWN=OFF; 
0BF72:  BCF    x7F.4
....................                if(Segundos && sUVp>0){ 
0BF74:  BTFSS  x7E.5
0BF76:  BRA    BF7E
0BF78:  MOVF   xBB,F
0BF7A:  BZ    BF7E
....................                   sUVp--; 
0BF7C:  DECF   xBB,F
....................                } 
....................                if(Minutos){ 
0BF7E:  BTFSS  x7E.4
0BF80:  BRA    BF84
....................                   mUVp--; 
0BF82:  DECF   xBC,F
....................                } 
....................                RX_Buffer[4]=0x00;   
0BF84:  CLRF   35
....................                RX_Buffer2[4]=0x00; 
0BF86:  CLRF   40
....................             } 
....................          } 
....................           
....................          if(mUVp<1)mUVp=99; 
0BF88:  MOVF   xBC,F
0BF8A:  BNZ   BF90
0BF8C:  MOVLW  63
0BF8E:  MOVWF  xBC
....................          if(mUVp>99)mUVp=1; 
0BF90:  MOVF   xBC,W
0BF92:  SUBLW  63
0BF94:  BC    BF9A
0BF96:  MOVLW  01
0BF98:  MOVWF  xBC
....................          if(sUVp>59)sUVp=0; 
0BF9A:  MOVF   xBB,W
0BF9C:  SUBLW  3B
0BF9E:  BTFSS  FD8.0
0BFA0:  CLRF   xBB
....................              
....................          printf("tminest.txt=\"%02u\"",mUVp); 
0BFA2:  MOVLW  A4
0BFA4:  MOVWF  FF6
0BFA6:  MOVLW  0F
0BFA8:  MOVWF  FF7
0BFAA:  MOVLW  00
0BFAC:  MOVWF  FF8
0BFAE:  MOVLW  0D
0BFB0:  MOVLB  7
0BFB2:  MOVWF  x5C
0BFB4:  MOVLB  0
0BFB6:  CALL   71A4
0BFBA:  MOVFF  BC,759
0BFBE:  MOVLW  01
0BFC0:  MOVLB  7
0BFC2:  MOVWF  x5A
0BFC4:  MOVLB  0
0BFC6:  CALL   7202
0BFCA:  MOVLW  22
0BFCC:  BTFSS  F9E.4
0BFCE:  BRA    BFCC
0BFD0:  MOVWF  FAD
....................          SendDataDisplay(); 
0BFD2:  CALL   1E60
....................          printf("tsecest.txt=\"%02u\"",sUVp); 
0BFD6:  MOVLW  B8
0BFD8:  MOVWF  FF6
0BFDA:  MOVLW  0F
0BFDC:  MOVWF  FF7
0BFDE:  MOVLW  00
0BFE0:  MOVWF  FF8
0BFE2:  MOVLW  0D
0BFE4:  MOVLB  7
0BFE6:  MOVWF  x5C
0BFE8:  MOVLB  0
0BFEA:  CALL   71A4
0BFEE:  MOVFF  BB,759
0BFF2:  MOVLW  01
0BFF4:  MOVLB  7
0BFF6:  MOVWF  x5A
0BFF8:  MOVLB  0
0BFFA:  CALL   7202
0BFFE:  MOVLW  22
0C000:  BTFSS  F9E.4
0C002:  BRA    C000
0C004:  MOVWF  FAD
....................          SendDataDisplay(); 
0C006:  CALL   1E60
....................     } 
.................... //_--------------------------------------------------------------------------------------------------------------------------------------------------------        
....................  
.................... //_--------------------------------------------------------------------------------------------------------------------------------------------------------       
....................     if(Menu==10){ // Menu de Mantenimiento 
0C00A:  MOVF   x82,W
0C00C:  SUBLW  0A
0C00E:  BTFSS  FD8.2
0C010:  GOTO   C876
....................          Lectura_Esclavos(); 
0C014:  CALL   163C
....................          printf("fecha.txt=\"Fecha:%02u/%02u/20%02u    Hora: %02u:%02u:%02u  T:%02uC\"",Dia,Mes,Year,Hora,Minuto,Segundo,Temperatura); 
0C018:  MOVLW  CC
0C01A:  MOVWF  FF6
0C01C:  MOVLW  0F
0C01E:  MOVWF  FF7
0C020:  MOVLW  00
0C022:  MOVWF  FF8
0C024:  MOVLW  11
0C026:  MOVLB  7
0C028:  MOVWF  x5C
0C02A:  MOVLB  0
0C02C:  CALL   71A4
0C030:  MOVFF  94,759
0C034:  MOVLW  01
0C036:  MOVLB  7
0C038:  MOVWF  x5A
0C03A:  MOVLB  0
0C03C:  CALL   7202
0C040:  MOVLW  2F
0C042:  BTFSS  F9E.4
0C044:  BRA    C042
0C046:  MOVWF  FAD
0C048:  MOVFF  93,759
0C04C:  MOVLW  01
0C04E:  MOVLB  7
0C050:  MOVWF  x5A
0C052:  MOVLB  0
0C054:  CALL   7202
0C058:  MOVLW  2F
0C05A:  BTFSS  F9E.4
0C05C:  BRA    C05A
0C05E:  MOVWF  FAD
0C060:  MOVLW  32
0C062:  BTFSS  F9E.4
0C064:  BRA    C062
0C066:  MOVWF  FAD
0C068:  MOVLW  30
0C06A:  BTFSS  F9E.4
0C06C:  BRA    C06A
0C06E:  MOVWF  FAD
0C070:  MOVFF  92,759
0C074:  MOVLW  01
0C076:  MOVLB  7
0C078:  MOVWF  x5A
0C07A:  MOVLB  0
0C07C:  CALL   7202
0C080:  MOVLW  ED
0C082:  MOVWF  FF6
0C084:  MOVLW  0F
0C086:  MOVWF  FF7
0C088:  MOVLW  00
0C08A:  MOVWF  FF8
0C08C:  MOVLW  0A
0C08E:  MOVLB  7
0C090:  MOVWF  x5C
0C092:  MOVLB  0
0C094:  CALL   71A4
0C098:  MOVFF  95,759
0C09C:  MOVLW  01
0C09E:  MOVLB  7
0C0A0:  MOVWF  x5A
0C0A2:  MOVLB  0
0C0A4:  CALL   7202
0C0A8:  MOVLW  3A
0C0AA:  BTFSS  F9E.4
0C0AC:  BRA    C0AA
0C0AE:  MOVWF  FAD
0C0B0:  MOVFF  96,759
0C0B4:  MOVLW  01
0C0B6:  MOVLB  7
0C0B8:  MOVWF  x5A
0C0BA:  MOVLB  0
0C0BC:  CALL   7202
0C0C0:  MOVLW  3A
0C0C2:  BTFSS  F9E.4
0C0C4:  BRA    C0C2
0C0C6:  MOVWF  FAD
0C0C8:  MOVFF  97,759
0C0CC:  MOVLW  01
0C0CE:  MOVLB  7
0C0D0:  MOVWF  x5A
0C0D2:  MOVLB  0
0C0D4:  CALL   7202
0C0D8:  MOVLW  05
0C0DA:  MOVWF  FF6
0C0DC:  MOVLW  10
0C0DE:  MOVWF  FF7
0C0E0:  MOVLW  00
0C0E2:  MOVWF  FF8
0C0E4:  MOVLW  04
0C0E6:  MOVLB  7
0C0E8:  MOVWF  x5C
0C0EA:  MOVLB  0
0C0EC:  CALL   71A4
0C0F0:  MOVFF  283,759
0C0F4:  MOVLW  01
0C0F6:  MOVLB  7
0C0F8:  MOVWF  x5A
0C0FA:  MOVLB  0
0C0FC:  CALL   7202
0C100:  MOVLW  B0
0C102:  BTFSS  F9E.4
0C104:  BRA    C102
0C106:  MOVWF  FAD
0C108:  MOVLW  43
0C10A:  BTFSS  F9E.4
0C10C:  BRA    C10A
0C10E:  MOVWF  FAD
0C110:  MOVLW  22
0C112:  BTFSS  F9E.4
0C114:  BRA    C112
0C116:  MOVWF  FAD
....................          SendDataDisplay(); 
0C118:  CALL   1E60
....................          LuzBlanca_on; 
0C11C:  BCF    F8C.0
0C11E:  BCF    F95.0
....................          flag_luz=1; 
0C120:  BSF    x7D.3
....................          leeEstados(); 
0C122:  CALL   768E
....................          leeTeclasLaterales();          
0C126:  CALL   74EC
....................          UVTime=Tuv[0]+(Tuv[1]*10)+(Tuv[2]*100)+(Tuv[3]*1000);    
0C12A:  MOVFF  DB,759
0C12E:  MOVLW  0A
0C130:  MOVLB  7
0C132:  MOVWF  x5A
0C134:  MOVLB  0
0C136:  CALL   7A3A
0C13A:  MOVF   01,W
0C13C:  ADDWF  xDA,W
0C13E:  MOVLB  7
0C140:  MOVWF  x58
0C142:  MOVFF  DC,759
0C146:  MOVLW  64
0C148:  MOVWF  x5A
0C14A:  MOVLB  0
0C14C:  CALL   7A3A
0C150:  MOVF   01,W
0C152:  MOVLB  7
0C154:  ADDWF  x58,F
0C156:  CLRF   03
0C158:  MOVLB  0
0C15A:  MOVF   xDD,W
0C15C:  MOVWF  00
0C15E:  BTFSC  FE8.7
0C160:  DECF   03,F
0C162:  MOVLB  7
0C164:  MOVWF  x59
0C166:  MOVFF  03,75A
0C16A:  MOVFF  03,75C
0C16E:  MOVWF  x5B
0C170:  MOVLW  03
0C172:  MOVWF  x5E
0C174:  MOVLW  E8
0C176:  MOVWF  x5D
0C178:  MOVLB  0
0C17A:  CALL   7A88
0C17E:  MOVFF  02,03
0C182:  MOVF   01,W
0C184:  MOVLB  7
0C186:  ADDWF  x58,W
0C188:  MOVWF  01
0C18A:  MOVLW  00
0C18C:  ADDWFC 03,F
0C18E:  MOVFF  01,78E
0C192:  MOVFF  03,78F
0C196:  MOVLB  0
0C198:  CALL   4648
0C19C:  MOVFF  03,121
0C1A0:  MOVFF  02,120
0C1A4:  MOVFF  01,11F
0C1A8:  MOVFF  00,11E
....................          TrabajoTime=Ttrabajo[0]+(Ttrabajo[1]*10)+(Ttrabajo[2]*100)+(Ttrabajo[3]*1000); 
0C1AC:  MOVFF  DF,759
0C1B0:  MOVLW  0A
0C1B2:  MOVLB  7
0C1B4:  MOVWF  x5A
0C1B6:  MOVLB  0
0C1B8:  CALL   7A3A
0C1BC:  MOVF   01,W
0C1BE:  ADDWF  xDE,W
0C1C0:  MOVLB  7
0C1C2:  MOVWF  x58
0C1C4:  MOVFF  E0,759
0C1C8:  MOVLW  64
0C1CA:  MOVWF  x5A
0C1CC:  MOVLB  0
0C1CE:  CALL   7A3A
0C1D2:  MOVF   01,W
0C1D4:  MOVLB  7
0C1D6:  ADDWF  x58,F
0C1D8:  CLRF   03
0C1DA:  MOVLB  0
0C1DC:  MOVF   xE1,W
0C1DE:  MOVWF  00
0C1E0:  BTFSC  FE8.7
0C1E2:  DECF   03,F
0C1E4:  MOVLB  7
0C1E6:  MOVWF  x59
0C1E8:  MOVFF  03,75A
0C1EC:  MOVFF  03,75C
0C1F0:  MOVWF  x5B
0C1F2:  MOVLW  03
0C1F4:  MOVWF  x5E
0C1F6:  MOVLW  E8
0C1F8:  MOVWF  x5D
0C1FA:  MOVLB  0
0C1FC:  CALL   7A88
0C200:  MOVFF  02,03
0C204:  MOVF   01,W
0C206:  MOVLB  7
0C208:  ADDWF  x58,W
0C20A:  MOVWF  01
0C20C:  MOVLW  00
0C20E:  ADDWFC 03,F
0C210:  MOVFF  01,78E
0C214:  MOVFF  03,78F
0C218:  MOVLB  0
0C21A:  CALL   4648
0C21E:  MOVFF  03,125
0C222:  MOVFF  02,124
0C226:  MOVFF  01,123
0C22A:  MOVFF  00,122
....................  
....................          readHolding(); 
0C22E:  CALL   1854
....................           
....................          printf("b00.txt=\"UV(horas):%05Lu\"",(int16)UVTime); 
0C232:  MOVFF  121,79B
0C236:  MOVFF  120,79A
0C23A:  MOVFF  11F,799
0C23E:  MOVFF  11E,798
0C242:  CALL   1B14
0C246:  MOVFF  02,759
0C24A:  MOVFF  01,758
0C24E:  MOVLW  12
0C250:  MOVWF  FF6
0C252:  MOVLW  10
0C254:  MOVWF  FF7
0C256:  MOVLW  00
0C258:  MOVWF  FF8
0C25A:  MOVLW  13
0C25C:  MOVLB  7
0C25E:  MOVWF  x5C
0C260:  MOVLB  0
0C262:  CALL   71A4
0C266:  MOVLW  08
0C268:  MOVWF  FE9
0C26A:  MOVFF  759,75D
0C26E:  MOVFF  758,75C
0C272:  CALL   886E
0C276:  MOVLW  22
0C278:  BTFSS  F9E.4
0C27A:  BRA    C278
0C27C:  MOVWF  FAD
....................          SendDataDisplay(); 
0C27E:  CALL   1E60
....................          printf("b60.txt=\"Filtro(horas):%05Lu\"",(int16)TrabajoTime); 
0C282:  MOVFF  125,79B
0C286:  MOVFF  124,79A
0C28A:  MOVFF  123,799
0C28E:  MOVFF  122,798
0C292:  CALL   1B14
0C296:  MOVFF  02,759
0C29A:  MOVFF  01,758
0C29E:  MOVLW  2C
0C2A0:  MOVWF  FF6
0C2A2:  MOVLW  10
0C2A4:  MOVWF  FF7
0C2A6:  MOVLW  00
0C2A8:  MOVWF  FF8
0C2AA:  MOVLW  17
0C2AC:  MOVLB  7
0C2AE:  MOVWF  x5C
0C2B0:  MOVLB  0
0C2B2:  CALL   71A4
0C2B6:  MOVLW  08
0C2B8:  MOVWF  FE9
0C2BA:  MOVFF  759,75D
0C2BE:  MOVFF  758,75C
0C2C2:  CALL   886E
0C2C6:  MOVLW  22
0C2C8:  BTFSS  F9E.4
0C2CA:  BRA    C2C8
0C2CC:  MOVWF  FAD
....................          SendDataDisplay(); 
0C2CE:  CALL   1E60
....................           
....................          printf("ceroIn.txt=\"R4:%05Lu  R5:%05Lu\"",make16(txbuf[9],txbuf[10]),make16(txbuf[11],txbuf[12])); 
0C2D2:  MOVFF  2B1,759
0C2D6:  MOVFF  2B2,758
0C2DA:  MOVFF  2B3,75B
0C2DE:  MOVFF  2B4,75A
0C2E2:  MOVLW  4A
0C2E4:  MOVWF  FF6
0C2E6:  MOVLW  10
0C2E8:  MOVWF  FF7
0C2EA:  MOVLW  00
0C2EC:  MOVWF  FF8
0C2EE:  MOVLW  0F
0C2F0:  MOVLB  7
0C2F2:  MOVWF  x5C
0C2F4:  MOVLB  0
0C2F6:  CALL   71A4
0C2FA:  MOVLW  08
0C2FC:  MOVWF  FE9
0C2FE:  MOVFF  759,75D
0C302:  MOVFF  758,75C
0C306:  CALL   886E
0C30A:  MOVLW  5E
0C30C:  MOVWF  FF6
0C30E:  MOVLW  10
0C310:  MOVWF  FF7
0C312:  MOVLW  00
0C314:  MOVWF  FF8
0C316:  MOVLW  05
0C318:  MOVLB  7
0C31A:  MOVWF  x5C
0C31C:  MOVLB  0
0C31E:  CALL   71A4
0C322:  MOVLW  08
0C324:  MOVWF  FE9
0C326:  MOVFF  75B,75D
0C32A:  MOVFF  75A,75C
0C32E:  CALL   886E
0C332:  MOVLW  22
0C334:  BTFSS  F9E.4
0C336:  BRA    C334
0C338:  MOVWF  FAD
....................          SendDataDisplay(); 
0C33A:  CALL   1E60
....................          printf("ceroDn.txt=\"R6:%05Lu  R7:%05Lu\"",make16(txbuf[13],txbuf[14]),make16(txbuf[15],txbuf[16])); 
0C33E:  MOVFF  2B5,759
0C342:  MOVFF  2B6,758
0C346:  MOVFF  2B7,75B
0C34A:  MOVFF  2B8,75A
0C34E:  MOVLW  6A
0C350:  MOVWF  FF6
0C352:  MOVLW  10
0C354:  MOVWF  FF7
0C356:  MOVLW  00
0C358:  MOVWF  FF8
0C35A:  MOVLW  0F
0C35C:  MOVLB  7
0C35E:  MOVWF  x5C
0C360:  MOVLB  0
0C362:  CALL   71A4
0C366:  MOVLW  08
0C368:  MOVWF  FE9
0C36A:  MOVFF  759,75D
0C36E:  MOVFF  758,75C
0C372:  CALL   886E
0C376:  MOVLW  7E
0C378:  MOVWF  FF6
0C37A:  MOVLW  10
0C37C:  MOVWF  FF7
0C37E:  MOVLW  00
0C380:  MOVWF  FF8
0C382:  MOVLW  05
0C384:  MOVLB  7
0C386:  MOVWF  x5C
0C388:  MOVLB  0
0C38A:  CALL   71A4
0C38E:  MOVLW  08
0C390:  MOVWF  FE9
0C392:  MOVFF  75B,75D
0C396:  MOVFF  75A,75C
0C39A:  CALL   886E
0C39E:  MOVLW  22
0C3A0:  BTFSS  F9E.4
0C3A2:  BRA    C3A0
0C3A4:  MOVWF  FAD
....................          SendDataDisplay(); 
0C3A6:  CALL   1E60
....................          printf("ajusteIn.txt=\"R7:%05Lu  R8:%05Lu\"",make16(txbuf[17],txbuf[18]),make16(txbuf[19],txbuf[20])); 
0C3AA:  MOVFF  2B9,759
0C3AE:  MOVFF  2BA,758
0C3B2:  MOVFF  2BB,75B
0C3B6:  MOVFF  2BC,75A
0C3BA:  MOVLW  8A
0C3BC:  MOVWF  FF6
0C3BE:  MOVLW  10
0C3C0:  MOVWF  FF7
0C3C2:  MOVLW  00
0C3C4:  MOVWF  FF8
0C3C6:  MOVLW  11
0C3C8:  MOVLB  7
0C3CA:  MOVWF  x5C
0C3CC:  MOVLB  0
0C3CE:  CALL   71A4
0C3D2:  MOVLW  08
0C3D4:  MOVWF  FE9
0C3D6:  MOVFF  759,75D
0C3DA:  MOVFF  758,75C
0C3DE:  CALL   886E
0C3E2:  MOVLW  A0
0C3E4:  MOVWF  FF6
0C3E6:  MOVLW  10
0C3E8:  MOVWF  FF7
0C3EA:  MOVLW  00
0C3EC:  MOVWF  FF8
0C3EE:  MOVLW  05
0C3F0:  MOVLB  7
0C3F2:  MOVWF  x5C
0C3F4:  MOVLB  0
0C3F6:  CALL   71A4
0C3FA:  MOVLW  08
0C3FC:  MOVWF  FE9
0C3FE:  MOVFF  75B,75D
0C402:  MOVFF  75A,75C
0C406:  CALL   886E
0C40A:  MOVLW  22
0C40C:  BTFSS  F9E.4
0C40E:  BRA    C40C
0C410:  MOVWF  FAD
....................          SendDataDisplay(); 
0C412:  CALL   1E60
....................          printf("ajusteDn.txt=\"R9:%05Lu  R10:%05Lu\"",make16(txbuf[21],txbuf[22]),make16(txbuf[23],txbuf[24])); 
0C416:  MOVFF  2BD,759
0C41A:  MOVFF  2BE,758
0C41E:  MOVFF  2BF,75B
0C422:  MOVFF  2C0,75A
0C426:  MOVLW  AC
0C428:  MOVWF  FF6
0C42A:  MOVLW  10
0C42C:  MOVWF  FF7
0C42E:  MOVLW  00
0C430:  MOVWF  FF8
0C432:  MOVLW  11
0C434:  MOVLB  7
0C436:  MOVWF  x5C
0C438:  MOVLB  0
0C43A:  CALL   71A4
0C43E:  MOVLW  08
0C440:  MOVWF  FE9
0C442:  MOVFF  759,75D
0C446:  MOVFF  758,75C
0C44A:  CALL   886E
0C44E:  MOVLW  C2
0C450:  MOVWF  FF6
0C452:  MOVLW  10
0C454:  MOVWF  FF7
0C456:  MOVLW  00
0C458:  MOVWF  FF8
0C45A:  MOVLW  06
0C45C:  MOVLB  7
0C45E:  MOVWF  x5C
0C460:  MOVLB  0
0C462:  CALL   71A4
0C466:  MOVLW  08
0C468:  MOVWF  FE9
0C46A:  MOVFF  75B,75D
0C46E:  MOVFF  75A,75C
0C472:  CALL   886E
0C476:  MOVLW  22
0C478:  BTFSS  F9E.4
0C47A:  BRA    C478
0C47C:  MOVWF  FAD
....................          SendDataDisplay(); 
0C47E:  CALL   1E60
....................          printf("inflow.txt=\"tx[0]:%03u tx[49]:%03u\"",txbuf[0],txbuf[49]); 
0C482:  MOVLW  D0
0C484:  MOVWF  FF6
0C486:  MOVLW  10
0C488:  MOVWF  FF7
0C48A:  MOVLW  00
0C48C:  MOVWF  FF8
0C48E:  MOVLW  12
0C490:  MOVLB  7
0C492:  MOVWF  x5C
0C494:  MOVLB  0
0C496:  CALL   71A4
0C49A:  MOVFF  2A8,759
0C49E:  MOVLW  03
0C4A0:  MOVLB  7
0C4A2:  MOVWF  x5A
0C4A4:  MOVLB  0
0C4A6:  CALL   7202
0C4AA:  MOVLW  E6
0C4AC:  MOVWF  FF6
0C4AE:  MOVLW  10
0C4B0:  MOVWF  FF7
0C4B2:  MOVLW  00
0C4B4:  MOVWF  FF8
0C4B6:  MOVLW  08
0C4B8:  MOVLB  7
0C4BA:  MOVWF  x5C
0C4BC:  MOVLB  0
0C4BE:  CALL   71A4
0C4C2:  MOVFF  2D9,759
0C4C6:  MOVLW  03
0C4C8:  MOVLB  7
0C4CA:  MOVWF  x5A
0C4CC:  MOVLB  0
0C4CE:  CALL   7202
0C4D2:  MOVLW  22
0C4D4:  BTFSS  F9E.4
0C4D6:  BRA    C4D4
0C4D8:  MOVWF  FAD
....................          SendDataDisplay(); 
0C4DA:  CALL   1E60
....................          printf("downflow.txt=\"DownFlow: %2.2f Pd:%2.2f\"",DownFlow,Filtro_Downflow); 
0C4DE:  MOVLW  F4
0C4E0:  MOVWF  FF6
0C4E2:  MOVLW  10
0C4E4:  MOVWF  FF7
0C4E6:  MOVLW  00
0C4E8:  MOVWF  FF8
0C4EA:  MOVLW  18
0C4EC:  MOVLB  7
0C4EE:  MOVWF  x5C
0C4F0:  MOVLB  0
0C4F2:  CALL   71A4
0C4F6:  MOVLW  89
0C4F8:  MOVWF  FE9
0C4FA:  MOVFF  F1,75D
0C4FE:  MOVFF  F0,75C
0C502:  MOVFF  EF,75B
0C506:  MOVFF  EE,75A
0C50A:  MOVLW  02
0C50C:  MOVLB  7
0C50E:  MOVWF  x5E
0C510:  MOVLB  0
0C512:  CALL   7BA0
0C516:  MOVLW  11
0C518:  MOVWF  FF6
0C51A:  MOVLW  11
0C51C:  MOVWF  FF7
0C51E:  MOVLW  00
0C520:  MOVWF  FF8
0C522:  MOVLW  04
0C524:  MOVLB  7
0C526:  MOVWF  x5C
0C528:  MOVLB  0
0C52A:  CALL   71A4
0C52E:  MOVLW  89
0C530:  MOVWF  FE9
0C532:  MOVFF  F5,75D
0C536:  MOVFF  F4,75C
0C53A:  MOVFF  F3,75B
0C53E:  MOVFF  F2,75A
0C542:  MOVLW  02
0C544:  MOVLB  7
0C546:  MOVWF  x5E
0C548:  MOVLB  0
0C54A:  CALL   7BA0
0C54E:  MOVLW  22
0C550:  BTFSS  F9E.4
0C552:  BRA    C550
0C554:  MOVWF  FAD
....................          SendDataDisplay(); 
0C556:  CALL   1E60
....................          printf("adcin.txt=\"ADCIn: %04Lu \"",(int16)Flujo[1].adc); 
0C55A:  MOVLW  1C
0C55C:  MOVWF  FF6
0C55E:  MOVLW  11
0C560:  MOVWF  FF7
0C562:  MOVLW  00
0C564:  MOVWF  FF8
0C566:  MOVLW  12
0C568:  MOVLB  7
0C56A:  MOVWF  x5C
0C56C:  MOVLB  0
0C56E:  CALL   71A4
0C572:  MOVLW  09
0C574:  MOVWF  FE9
0C576:  MOVFF  381,75D
0C57A:  MOVFF  380,75C
0C57E:  CALL   886E
0C582:  MOVLW  20
0C584:  BTFSS  F9E.4
0C586:  BRA    C584
0C588:  MOVWF  FAD
0C58A:  MOVLW  22
0C58C:  BTFSS  F9E.4
0C58E:  BRA    C58C
0C590:  MOVWF  FAD
....................          SendDataDisplay(); 
0C592:  CALL   1E60
....................          printf("adcdn.txt=\"ADCDn: %04Lu d:%2.2f\"",sensores(2),densidad); 
0C596:  MOVLW  02
0C598:  MOVLB  7
0C59A:  MOVWF  x69
0C59C:  MOVLB  0
0C59E:  CALL   40F2
0C5A2:  MOVFF  02,759
0C5A6:  MOVFF  01,758
0C5AA:  MOVLW  36
0C5AC:  MOVWF  FF6
0C5AE:  MOVLW  11
0C5B0:  MOVWF  FF7
0C5B2:  MOVLW  00
0C5B4:  MOVWF  FF8
0C5B6:  MOVLW  12
0C5B8:  MOVLB  7
0C5BA:  MOVWF  x5C
0C5BC:  MOVLB  0
0C5BE:  CALL   71A4
0C5C2:  MOVLW  09
0C5C4:  MOVWF  FE9
0C5C6:  MOVFF  759,75D
0C5CA:  MOVFF  758,75C
0C5CE:  CALL   886E
0C5D2:  MOVLW  20
0C5D4:  BTFSS  F9E.4
0C5D6:  BRA    C5D4
0C5D8:  MOVWF  FAD
0C5DA:  MOVLW  64
0C5DC:  BTFSS  F9E.4
0C5DE:  BRA    C5DC
0C5E0:  MOVWF  FAD
0C5E2:  MOVLW  3A
0C5E4:  BTFSS  F9E.4
0C5E6:  BRA    C5E4
0C5E8:  MOVWF  FAD
0C5EA:  MOVLW  89
0C5EC:  MOVWF  FE9
0C5EE:  MOVFF  26D,75D
0C5F2:  MOVFF  26C,75C
0C5F6:  MOVFF  26B,75B
0C5FA:  MOVFF  26A,75A
0C5FE:  MOVLW  02
0C600:  MOVLB  7
0C602:  MOVWF  x5E
0C604:  MOVLB  0
0C606:  CALL   7BA0
0C60A:  MOVLW  22
0C60C:  BTFSS  F9E.4
0C60E:  BRA    C60C
0C610:  MOVWF  FAD
....................          SendDataDisplay(); 
0C612:  CALL   1E60
....................           
....................          if(RX_Buffer[4]==0x0a){ // Reinicia Tiempo de Luz UV          
0C616:  MOVF   35,W
0C618:  SUBLW  0A
0C61A:  BTFSS  FD8.2
0C61C:  BRA    C746
....................             delay_ms(2000);  
0C61E:  MOVLW  08
0C620:  MOVLB  7
0C622:  MOVWF  x58
0C624:  MOVLW  FA
0C626:  MOVWF  x6C
0C628:  MOVLB  0
0C62A:  CALL   15AA
0C62E:  MOVLB  7
0C630:  DECFSZ x58,F
0C632:  BRA    C624
....................             UP=OFF;RIGHT=OFF; 
0C634:  MOVLB  0
0C636:  BCF    x7F.3
0C638:  BCF    x7F.5
....................             write_eeprom(12,0); 
0C63A:  CLRF   FAA
0C63C:  MOVLW  0C
0C63E:  MOVWF  FA9
0C640:  CLRF   FA8
0C642:  BCF    FA6.6
0C644:  BCF    FA6.7
0C646:  BSF    FA6.2
0C648:  MOVF   FF2,W
0C64A:  MOVWF  00
0C64C:  BCF    FF2.6
0C64E:  BCF    FF2.7
0C650:  MOVLB  F
0C652:  MOVLW  55
0C654:  MOVWF  FA7
0C656:  MOVLW  AA
0C658:  MOVWF  FA7
0C65A:  BSF    FA6.1
0C65C:  BTFSC  FA6.1
0C65E:  BRA    C65C
0C660:  BCF    FA6.2
0C662:  MOVF   00,W
0C664:  IORWF  FF2,F
....................             delay_ms(20); 
0C666:  MOVLW  14
0C668:  MOVLB  7
0C66A:  MOVWF  x6C
0C66C:  MOVLB  0
0C66E:  CALL   15AA
....................             write_eeprom(13,0); 
0C672:  CLRF   FAA
0C674:  MOVLW  0D
0C676:  MOVWF  FA9
0C678:  CLRF   FA8
0C67A:  BCF    FA6.6
0C67C:  BCF    FA6.7
0C67E:  BSF    FA6.2
0C680:  MOVF   FF2,W
0C682:  MOVWF  00
0C684:  BCF    FF2.6
0C686:  BCF    FF2.7
0C688:  MOVLB  F
0C68A:  MOVLW  55
0C68C:  MOVWF  FA7
0C68E:  MOVLW  AA
0C690:  MOVWF  FA7
0C692:  BSF    FA6.1
0C694:  BTFSC  FA6.1
0C696:  BRA    C694
0C698:  BCF    FA6.2
0C69A:  MOVF   00,W
0C69C:  IORWF  FF2,F
....................             delay_ms(20); 
0C69E:  MOVLW  14
0C6A0:  MOVLB  7
0C6A2:  MOVWF  x6C
0C6A4:  MOVLB  0
0C6A6:  CALL   15AA
....................             write_eeprom(14,0); 
0C6AA:  CLRF   FAA
0C6AC:  MOVLW  0E
0C6AE:  MOVWF  FA9
0C6B0:  CLRF   FA8
0C6B2:  BCF    FA6.6
0C6B4:  BCF    FA6.7
0C6B6:  BSF    FA6.2
0C6B8:  MOVF   FF2,W
0C6BA:  MOVWF  00
0C6BC:  BCF    FF2.6
0C6BE:  BCF    FF2.7
0C6C0:  MOVLB  F
0C6C2:  MOVLW  55
0C6C4:  MOVWF  FA7
0C6C6:  MOVLW  AA
0C6C8:  MOVWF  FA7
0C6CA:  BSF    FA6.1
0C6CC:  BTFSC  FA6.1
0C6CE:  BRA    C6CC
0C6D0:  BCF    FA6.2
0C6D2:  MOVF   00,W
0C6D4:  IORWF  FF2,F
....................             delay_ms(20); 
0C6D6:  MOVLW  14
0C6D8:  MOVLB  7
0C6DA:  MOVWF  x6C
0C6DC:  MOVLB  0
0C6DE:  CALL   15AA
....................             write_eeprom(15,0); 
0C6E2:  CLRF   FAA
0C6E4:  MOVLW  0F
0C6E6:  MOVWF  FA9
0C6E8:  CLRF   FA8
0C6EA:  BCF    FA6.6
0C6EC:  BCF    FA6.7
0C6EE:  BSF    FA6.2
0C6F0:  MOVF   FF2,W
0C6F2:  MOVWF  00
0C6F4:  BCF    FF2.6
0C6F6:  BCF    FF2.7
0C6F8:  MOVLB  F
0C6FA:  MOVLW  55
0C6FC:  MOVWF  FA7
0C6FE:  MOVLW  AA
0C700:  MOVWF  FA7
0C702:  BSF    FA6.1
0C704:  BTFSC  FA6.1
0C706:  BRA    C704
0C708:  BCF    FA6.2
0C70A:  MOVF   00,W
0C70C:  IORWF  FF2,F
....................             delay_ms(20); 
0C70E:  MOVLW  14
0C710:  MOVLB  7
0C712:  MOVWF  x6C
0C714:  MOVLB  0
0C716:  CALL   15AA
....................             Tuv[3]=0;Tuv[2]=0;Tuv[1]=0;Tuv[0]=0; 
0C71A:  CLRF   xDD
0C71C:  CLRF   xDC
0C71E:  CLRF   xDB
0C720:  CLRF   xDA
....................             LuzBlanca_off; 
0C722:  BSF    F8C.0
0C724:  BCF    F95.0
....................             RX_Buffer[4]=0x00;   
0C726:  CLRF   35
....................             RX_Buffer2[4]=0x00; 
0C728:  CLRF   40
....................             printf("page Principal"); 
0C72A:  MOVLW  58
0C72C:  MOVWF  FF6
0C72E:  MOVLW  11
0C730:  MOVWF  FF7
0C732:  MOVLW  00
0C734:  MOVWF  FF8
0C736:  CALL   1E2E
....................             SendDataDisplay(); 
0C73A:  CALL   1E60
....................             UP=OFF;DOWN=OFF;RIGHT=OFF;LEFT=OFF; 
0C73E:  BCF    x7F.3
0C740:  BCF    x7F.4
0C742:  BCF    x7F.5
0C744:  BCF    x7F.6
....................          } 
....................        
....................          if(RX_Buffer[4]==0x0b){ // Reinicia Tiempo de Trabajo         
0C746:  MOVF   35,W
0C748:  SUBLW  0B
0C74A:  BTFSS  FD8.2
0C74C:  BRA    C876
....................             delay_ms(2000);  
0C74E:  MOVLW  08
0C750:  MOVLB  7
0C752:  MOVWF  x58
0C754:  MOVLW  FA
0C756:  MOVWF  x6C
0C758:  MOVLB  0
0C75A:  CALL   15AA
0C75E:  MOVLB  7
0C760:  DECFSZ x58,F
0C762:  BRA    C754
....................             DOWN=OFF;RIGHT=OFF; 
0C764:  MOVLB  0
0C766:  BCF    x7F.4
0C768:  BCF    x7F.5
....................             write_eeprom(16,0); 
0C76A:  CLRF   FAA
0C76C:  MOVLW  10
0C76E:  MOVWF  FA9
0C770:  CLRF   FA8
0C772:  BCF    FA6.6
0C774:  BCF    FA6.7
0C776:  BSF    FA6.2
0C778:  MOVF   FF2,W
0C77A:  MOVWF  00
0C77C:  BCF    FF2.6
0C77E:  BCF    FF2.7
0C780:  MOVLB  F
0C782:  MOVLW  55
0C784:  MOVWF  FA7
0C786:  MOVLW  AA
0C788:  MOVWF  FA7
0C78A:  BSF    FA6.1
0C78C:  BTFSC  FA6.1
0C78E:  BRA    C78C
0C790:  BCF    FA6.2
0C792:  MOVF   00,W
0C794:  IORWF  FF2,F
....................             delay_ms(20); 
0C796:  MOVLW  14
0C798:  MOVLB  7
0C79A:  MOVWF  x6C
0C79C:  MOVLB  0
0C79E:  CALL   15AA
....................             write_eeprom(17,0); 
0C7A2:  CLRF   FAA
0C7A4:  MOVLW  11
0C7A6:  MOVWF  FA9
0C7A8:  CLRF   FA8
0C7AA:  BCF    FA6.6
0C7AC:  BCF    FA6.7
0C7AE:  BSF    FA6.2
0C7B0:  MOVF   FF2,W
0C7B2:  MOVWF  00
0C7B4:  BCF    FF2.6
0C7B6:  BCF    FF2.7
0C7B8:  MOVLB  F
0C7BA:  MOVLW  55
0C7BC:  MOVWF  FA7
0C7BE:  MOVLW  AA
0C7C0:  MOVWF  FA7
0C7C2:  BSF    FA6.1
0C7C4:  BTFSC  FA6.1
0C7C6:  BRA    C7C4
0C7C8:  BCF    FA6.2
0C7CA:  MOVF   00,W
0C7CC:  IORWF  FF2,F
....................             delay_ms(20); 
0C7CE:  MOVLW  14
0C7D0:  MOVLB  7
0C7D2:  MOVWF  x6C
0C7D4:  MOVLB  0
0C7D6:  CALL   15AA
....................             write_eeprom(18,0); 
0C7DA:  CLRF   FAA
0C7DC:  MOVLW  12
0C7DE:  MOVWF  FA9
0C7E0:  CLRF   FA8
0C7E2:  BCF    FA6.6
0C7E4:  BCF    FA6.7
0C7E6:  BSF    FA6.2
0C7E8:  MOVF   FF2,W
0C7EA:  MOVWF  00
0C7EC:  BCF    FF2.6
0C7EE:  BCF    FF2.7
0C7F0:  MOVLB  F
0C7F2:  MOVLW  55
0C7F4:  MOVWF  FA7
0C7F6:  MOVLW  AA
0C7F8:  MOVWF  FA7
0C7FA:  BSF    FA6.1
0C7FC:  BTFSC  FA6.1
0C7FE:  BRA    C7FC
0C800:  BCF    FA6.2
0C802:  MOVF   00,W
0C804:  IORWF  FF2,F
....................             delay_ms(20); 
0C806:  MOVLW  14
0C808:  MOVLB  7
0C80A:  MOVWF  x6C
0C80C:  MOVLB  0
0C80E:  CALL   15AA
....................             write_eeprom(19,0); 
0C812:  CLRF   FAA
0C814:  MOVLW  13
0C816:  MOVWF  FA9
0C818:  CLRF   FA8
0C81A:  BCF    FA6.6
0C81C:  BCF    FA6.7
0C81E:  BSF    FA6.2
0C820:  MOVF   FF2,W
0C822:  MOVWF  00
0C824:  BCF    FF2.6
0C826:  BCF    FF2.7
0C828:  MOVLB  F
0C82A:  MOVLW  55
0C82C:  MOVWF  FA7
0C82E:  MOVLW  AA
0C830:  MOVWF  FA7
0C832:  BSF    FA6.1
0C834:  BTFSC  FA6.1
0C836:  BRA    C834
0C838:  BCF    FA6.2
0C83A:  MOVF   00,W
0C83C:  IORWF  FF2,F
....................             delay_ms(20); 
0C83E:  MOVLW  14
0C840:  MOVLB  7
0C842:  MOVWF  x6C
0C844:  MOVLB  0
0C846:  CALL   15AA
....................             Ttrabajo[3]=0;Ttrabajo[2]=0;Ttrabajo[1]=0;Ttrabajo[0]=0; 
0C84A:  CLRF   xE1
0C84C:  CLRF   xE0
0C84E:  CLRF   xDF
0C850:  CLRF   xDE
....................             LuzBlanca_off; 
0C852:  BSF    F8C.0
0C854:  BCF    F95.0
....................             RX_Buffer[4]=0x00;   
0C856:  CLRF   35
....................             RX_Buffer2[4]=0x00; 
0C858:  CLRF   40
....................             printf("page Principal"); 
0C85A:  MOVLW  68
0C85C:  MOVWF  FF6
0C85E:  MOVLW  11
0C860:  MOVWF  FF7
0C862:  MOVLW  00
0C864:  MOVWF  FF8
0C866:  CALL   1E2E
....................             SendDataDisplay(); 
0C86A:  CALL   1E60
....................             UP=OFF;DOWN=OFF;RIGHT=OFF;LEFT=OFF; 
0C86E:  BCF    x7F.3
0C870:  BCF    x7F.4
0C872:  BCF    x7F.5
0C874:  BCF    x7F.6
....................          } 
....................           
....................      } 
.................... //_--------------------------------------------------------------------------------------------------------------------------------------------------------     
....................  
.................... //_--------------------------------------------------------------------------------------------------------------------------------------------------------       
....................     if(Menu==15){//Menu de Clave Correcta 
0C876:  MOVF   x82,W
0C878:  SUBLW  0F
0C87A:  BTFSS  FD8.2
0C87C:  BRA    C9CA
....................       if(!entro){ 
0C87E:  BTFSC  x7E.2
0C880:  BRA    C89C
....................          delay_ms(2000); 
0C882:  MOVLW  08
0C884:  MOVLB  7
0C886:  MOVWF  x58
0C888:  MOVLW  FA
0C88A:  MOVWF  x6C
0C88C:  MOVLB  0
0C88E:  CALL   15AA
0C892:  MOVLB  7
0C894:  DECFSZ x58,F
0C896:  BRA    C888
....................          entro=ON; 
0C898:  MOVLB  0
0C89A:  BSF    x7E.2
....................       } 
....................       printf("page Purga"); 
0C89C:  MOVLW  78
0C89E:  MOVWF  FF6
0C8A0:  MOVLW  11
0C8A2:  MOVWF  FF7
0C8A4:  MOVLW  00
0C8A6:  MOVWF  FF8
0C8A8:  CALL   1E2E
....................       SendDataDisplay(); 
0C8AC:  CALL   1E60
....................       UP=OFF;DOWN=OFF;RIGHT=OFF;LEFT=OFF; 
0C8B0:  BCF    x7F.3
0C8B2:  BCF    x7F.4
0C8B4:  BCF    x7F.5
0C8B6:  BCF    x7F.6
....................       tempo=((float)Vel1/(1.6666666))*10.0; 
0C8B8:  MOVLB  7
0C8BA:  CLRF   x9D
0C8BC:  MOVFF  90,79C
0C8C0:  MOVLB  0
0C8C2:  CALL   188A
0C8C6:  MOVFF  00,758
0C8CA:  MOVFF  01,759
0C8CE:  MOVFF  02,75A
0C8D2:  MOVFF  03,75B
0C8D6:  MOVFF  03,79B
0C8DA:  MOVFF  02,79A
0C8DE:  MOVFF  01,799
0C8E2:  MOVFF  00,798
0C8E6:  MOVLW  55
0C8E8:  MOVLB  7
0C8EA:  MOVWF  x9F
0C8EC:  MOVWF  x9E
0C8EE:  MOVWF  x9D
0C8F0:  MOVLW  7F
0C8F2:  MOVWF  x9C
0C8F4:  MOVLB  0
0C8F6:  CALL   18C0
0C8FA:  MOVFF  00,758
0C8FE:  MOVFF  01,759
0C902:  MOVFF  02,75A
0C906:  MOVFF  03,75B
0C90A:  MOVFF  03,79B
0C90E:  MOVFF  02,79A
0C912:  MOVFF  01,799
0C916:  MOVFF  00,798
0C91A:  MOVLB  7
0C91C:  CLRF   x9F
0C91E:  CLRF   x9E
0C920:  MOVLW  20
0C922:  MOVWF  x9D
0C924:  MOVLW  82
0C926:  MOVWF  x9C
0C928:  MOVLB  0
0C92A:  CALL   1A1E
0C92E:  MOVFF  03,115
0C932:  MOVFF  02,114
0C936:  MOVFF  01,113
0C93A:  MOVFF  00,112
....................       readHolding();  
0C93E:  CALL   1854
....................       reg=(int16)tempo; 
0C942:  MOVFF  115,79B
0C946:  MOVFF  114,79A
0C94A:  MOVFF  113,799
0C94E:  MOVFF  112,798
0C952:  CALL   1B14
0C956:  MOVFF  02,D9
0C95A:  MOVFF  01,D8
....................       writeCommand(5,1,reg); 
0C95E:  MOVLW  05
0C960:  MOVLB  7
0C962:  MOVWF  x5D
0C964:  MOVLW  01
0C966:  MOVWF  x5E
0C968:  MOVFF  D9,760
0C96C:  MOVFF  D8,75F
0C970:  MOVLB  0
0C972:  CALL   1870
....................       delay_ms(10);  
0C976:  MOVLW  0A
0C978:  MOVLB  7
0C97A:  MOVWF  x6C
0C97C:  MOVLB  0
0C97E:  CALL   15AA
....................       writeCommand(5,1,reg); 
0C982:  MOVLW  05
0C984:  MOVLB  7
0C986:  MOVWF  x5D
0C988:  MOVLW  01
0C98A:  MOVWF  x5E
0C98C:  MOVFF  D9,760
0C990:  MOVFF  D8,75F
0C994:  MOVLB  0
0C996:  CALL   1870
....................       delay_ms(10);  
0C99A:  MOVLW  0A
0C99C:  MOVLB  7
0C99E:  MOVWF  x6C
0C9A0:  MOVLB  0
0C9A2:  CALL   15AA
....................       writeCommand(5,1,reg); 
0C9A6:  MOVLW  05
0C9A8:  MOVLB  7
0C9AA:  MOVWF  x5D
0C9AC:  MOVLW  01
0C9AE:  MOVWF  x5E
0C9B0:  MOVFF  D9,760
0C9B4:  MOVFF  D8,75F
0C9B8:  MOVLB  0
0C9BA:  CALL   1870
....................       delay_ms(10);  
0C9BE:  MOVLW  0A
0C9C0:  MOVLB  7
0C9C2:  MOVWF  x6C
0C9C4:  MOVLB  0
0C9C6:  CALL   15AA
....................    } 
.................... //_--------------------------------------------------------------------------------------------------------------------------------------------------------       
....................  
.................... //_--------------------------------------------------------------------------------------------------------------------------------------------------------       
....................     if(Menu==16){//Menu de Clave InCorrecta 
0C9CA:  MOVF   x82,W
0C9CC:  SUBLW  10
0C9CE:  BNZ   CA0A
....................       if(!entro){ 
0C9D0:  BTFSC  x7E.2
0C9D2:  BRA    C9EE
....................          delay_ms(2000); 
0C9D4:  MOVLW  08
0C9D6:  MOVLB  7
0C9D8:  MOVWF  x58
0C9DA:  MOVLW  FA
0C9DC:  MOVWF  x6C
0C9DE:  MOVLB  0
0C9E0:  CALL   15AA
0C9E4:  MOVLB  7
0C9E6:  DECFSZ x58,F
0C9E8:  BRA    C9DA
....................          entro=ON; 
0C9EA:  MOVLB  0
0C9EC:  BSF    x7E.2
....................       } 
....................       printf("page Clave"); 
0C9EE:  MOVLW  84
0C9F0:  MOVWF  FF6
0C9F2:  MOVLW  11
0C9F4:  MOVWF  FF7
0C9F6:  MOVLW  00
0C9F8:  MOVWF  FF8
0C9FA:  CALL   1E2E
....................       SendDataDisplay(); 
0C9FE:  CALL   1E60
....................       UP=OFF;DOWN=OFF;RIGHT=OFF;LEFT=OFF; 
0CA02:  BCF    x7F.3
0CA04:  BCF    x7F.4
0CA06:  BCF    x7F.5
0CA08:  BCF    x7F.6
....................    } 
.................... //_--------------------------------------------------------------------------------------------------------------------------------------------------------       
....................  
.................... //_-------------------------------------------------------------------------------------------------------------------------------------------------------- 
....................       if(Menu==17){ //Menu de Tiempo de Silencio Alarmas 
0CA0A:  MOVF   x82,W
0CA0C:  SUBLW  11
0CA0E:  BTFSS  FD8.2
0CA10:  BRA    CCC2
....................           
....................          printf("fecha.txt=\"Fecha:%02u/%02u/20%02u    Hora: %02u:%02u:%02u  T:%02uC\"",Dia,Mes,Year,Hora,Minuto,Segundo,Temperatura); 
0CA12:  MOVLW  90
0CA14:  MOVWF  FF6
0CA16:  MOVLW  11
0CA18:  MOVWF  FF7
0CA1A:  MOVLW  00
0CA1C:  MOVWF  FF8
0CA1E:  MOVLW  11
0CA20:  MOVLB  7
0CA22:  MOVWF  x5C
0CA24:  MOVLB  0
0CA26:  CALL   71A4
0CA2A:  MOVFF  94,759
0CA2E:  MOVLW  01
0CA30:  MOVLB  7
0CA32:  MOVWF  x5A
0CA34:  MOVLB  0
0CA36:  CALL   7202
0CA3A:  MOVLW  2F
0CA3C:  BTFSS  F9E.4
0CA3E:  BRA    CA3C
0CA40:  MOVWF  FAD
0CA42:  MOVFF  93,759
0CA46:  MOVLW  01
0CA48:  MOVLB  7
0CA4A:  MOVWF  x5A
0CA4C:  MOVLB  0
0CA4E:  CALL   7202
0CA52:  MOVLW  2F
0CA54:  BTFSS  F9E.4
0CA56:  BRA    CA54
0CA58:  MOVWF  FAD
0CA5A:  MOVLW  32
0CA5C:  BTFSS  F9E.4
0CA5E:  BRA    CA5C
0CA60:  MOVWF  FAD
0CA62:  MOVLW  30
0CA64:  BTFSS  F9E.4
0CA66:  BRA    CA64
0CA68:  MOVWF  FAD
0CA6A:  MOVFF  92,759
0CA6E:  MOVLW  01
0CA70:  MOVLB  7
0CA72:  MOVWF  x5A
0CA74:  MOVLB  0
0CA76:  CALL   7202
0CA7A:  MOVLW  B1
0CA7C:  MOVWF  FF6
0CA7E:  MOVLW  11
0CA80:  MOVWF  FF7
0CA82:  MOVLW  00
0CA84:  MOVWF  FF8
0CA86:  MOVLW  0A
0CA88:  MOVLB  7
0CA8A:  MOVWF  x5C
0CA8C:  MOVLB  0
0CA8E:  CALL   71A4
0CA92:  MOVFF  95,759
0CA96:  MOVLW  01
0CA98:  MOVLB  7
0CA9A:  MOVWF  x5A
0CA9C:  MOVLB  0
0CA9E:  CALL   7202
0CAA2:  MOVLW  3A
0CAA4:  BTFSS  F9E.4
0CAA6:  BRA    CAA4
0CAA8:  MOVWF  FAD
0CAAA:  MOVFF  96,759
0CAAE:  MOVLW  01
0CAB0:  MOVLB  7
0CAB2:  MOVWF  x5A
0CAB4:  MOVLB  0
0CAB6:  CALL   7202
0CABA:  MOVLW  3A
0CABC:  BTFSS  F9E.4
0CABE:  BRA    CABC
0CAC0:  MOVWF  FAD
0CAC2:  MOVFF  97,759
0CAC6:  MOVLW  01
0CAC8:  MOVLB  7
0CACA:  MOVWF  x5A
0CACC:  MOVLB  0
0CACE:  CALL   7202
0CAD2:  MOVLW  C9
0CAD4:  MOVWF  FF6
0CAD6:  MOVLW  11
0CAD8:  MOVWF  FF7
0CADA:  MOVLW  00
0CADC:  MOVWF  FF8
0CADE:  MOVLW  04
0CAE0:  MOVLB  7
0CAE2:  MOVWF  x5C
0CAE4:  MOVLB  0
0CAE6:  CALL   71A4
0CAEA:  MOVFF  283,759
0CAEE:  MOVLW  01
0CAF0:  MOVLB  7
0CAF2:  MOVWF  x5A
0CAF4:  MOVLB  0
0CAF6:  CALL   7202
0CAFA:  MOVLW  B0
0CAFC:  BTFSS  F9E.4
0CAFE:  BRA    CAFC
0CB00:  MOVWF  FAD
0CB02:  MOVLW  43
0CB04:  BTFSS  F9E.4
0CB06:  BRA    CB04
0CB08:  MOVWF  FAD
0CB0A:  MOVLW  22
0CB0C:  BTFSS  F9E.4
0CB0E:  BRA    CB0C
0CB10:  MOVWF  FAD
....................          SendDataDisplay(); 
0CB12:  CALL   1E60
....................          if(RX_Buffer[4]==0x0a){//Selecciono Minutos 
0CB16:  MOVF   35,W
0CB18:  SUBLW  0A
0CB1A:  BNZ   CB20
....................             Minutos=ON; 
0CB1C:  BSF    x7E.4
....................             Segundos=OFF; 
0CB1E:  BCF    x7E.5
....................          } 
....................           
....................          if(RX_Buffer[4]==0x0b){//Selecciono Segundos 
0CB20:  MOVF   35,W
0CB22:  SUBLW  0B
0CB24:  BNZ   CB2A
....................             Segundos=ON; 
0CB26:  BSF    x7E.5
....................             Minutos=OFF; 
0CB28:  BCF    x7E.4
....................          } 
....................  
....................          if(RX_Buffer[4]==0x11 || LEFT){ 
0CB2A:  MOVF   35,W
0CB2C:  SUBLW  11
0CB2E:  BZ    CB34
0CB30:  BTFSS  x7F.6
0CB32:  BRA    CBD0
....................             LEFT=OFF; 
0CB34:  BCF    x7F.6
....................             Segundos=OFF; 
0CB36:  BCF    x7E.5
....................             Minutos=OFF; 
0CB38:  BCF    x7E.4
....................             printf("page Tiempos"); 
0CB3A:  MOVLW  D6
0CB3C:  MOVWF  FF6
0CB3E:  MOVLW  11
0CB40:  MOVWF  FF7
0CB42:  MOVLW  00
0CB44:  MOVWF  FF8
0CB46:  CALL   1E2E
....................             SendDataDisplay();   
0CB4A:  CALL   1E60
....................             UP=OFF;DOWN=OFF;RIGHT=OFF;LEFT=OFF; 
0CB4E:  BCF    x7F.3
0CB50:  BCF    x7F.4
0CB52:  BCF    x7F.5
0CB54:  BCF    x7F.6
....................             if(!GuardaEEPROM){ 
0CB56:  BTFSC  x7E.3
0CB58:  BRA    CBD0
....................                write_eeprom(60,mSilenciop); 
0CB5A:  CLRF   FAA
0CB5C:  MOVLW  3C
0CB5E:  MOVWF  FA9
0CB60:  MOVFF  C3,FA8
0CB64:  BCF    FA6.6
0CB66:  BCF    FA6.7
0CB68:  BSF    FA6.2
0CB6A:  MOVF   FF2,W
0CB6C:  MOVWF  00
0CB6E:  BCF    FF2.6
0CB70:  BCF    FF2.7
0CB72:  MOVLB  F
0CB74:  MOVLW  55
0CB76:  MOVWF  FA7
0CB78:  MOVLW  AA
0CB7A:  MOVWF  FA7
0CB7C:  BSF    FA6.1
0CB7E:  BTFSC  FA6.1
0CB80:  BRA    CB7E
0CB82:  BCF    FA6.2
0CB84:  MOVF   00,W
0CB86:  IORWF  FF2,F
....................                delay_ms(10); 
0CB88:  MOVLW  0A
0CB8A:  MOVLB  7
0CB8C:  MOVWF  x6C
0CB8E:  MOVLB  0
0CB90:  CALL   15AA
....................                write_eeprom(61,sSilenciop); 
0CB94:  CLRF   FAA
0CB96:  MOVLW  3D
0CB98:  MOVWF  FA9
0CB9A:  MOVFF  C2,FA8
0CB9E:  BCF    FA6.6
0CBA0:  BCF    FA6.7
0CBA2:  BSF    FA6.2
0CBA4:  MOVF   FF2,W
0CBA6:  MOVWF  00
0CBA8:  BCF    FF2.6
0CBAA:  BCF    FF2.7
0CBAC:  MOVLB  F
0CBAE:  MOVLW  55
0CBB0:  MOVWF  FA7
0CBB2:  MOVLW  AA
0CBB4:  MOVWF  FA7
0CBB6:  BSF    FA6.1
0CBB8:  BTFSC  FA6.1
0CBBA:  BRA    CBB8
0CBBC:  BCF    FA6.2
0CBBE:  MOVF   00,W
0CBC0:  IORWF  FF2,F
....................                delay_ms(10); 
0CBC2:  MOVLW  0A
0CBC4:  MOVLB  7
0CBC6:  MOVWF  x6C
0CBC8:  MOVLB  0
0CBCA:  CALL   15AA
....................                GuardaEEPROM=ON; 
0CBCE:  BSF    x7E.3
....................             } 
....................          }         
....................           
....................          if(RX_Buffer[4]==0x0c || RX_Buffer[4]==0x0d){//Tecla arriba Oprimida 
0CBD0:  MOVF   35,W
0CBD2:  SUBLW  0C
0CBD4:  BZ    CBDC
0CBD6:  MOVF   35,W
0CBD8:  SUBLW  0D
0CBDA:  BNZ   CC06
....................             delay_ms(10); 
0CBDC:  MOVLW  0A
0CBDE:  MOVLB  7
0CBE0:  MOVWF  x6C
0CBE2:  MOVLB  0
0CBE4:  CALL   15AA
....................             if(RX_Buffer[4]==0x0c || RX_Buffer[4]==0x0d){//Tecla arriba Oprimida 
0CBE8:  MOVF   35,W
0CBEA:  SUBLW  0C
0CBEC:  BZ    CBF4
0CBEE:  MOVF   35,W
0CBF0:  SUBLW  0D
0CBF2:  BNZ   CC06
....................                UP=OFF; 
0CBF4:  BCF    x7F.3
....................                if(Segundos){ 
0CBF6:  BTFSS  x7E.5
0CBF8:  BRA    CBFC
....................                   sSilenciop++; 
0CBFA:  INCF   xC2,F
....................                } 
....................                if(Minutos){ 
0CBFC:  BTFSS  x7E.4
0CBFE:  BRA    CC02
....................                   mSilenciop++; 
0CC00:  INCF   xC3,F
....................                }   
....................                RX_Buffer[4]=0x00;   
0CC02:  CLRF   35
....................                RX_Buffer2[4]=0x00; 
0CC04:  CLRF   40
....................             } 
....................          } 
....................           
....................          if(RX_Buffer[4]==0x0f || RX_Buffer[4]==0x0e){//Tecla abajo oprimida 
0CC06:  MOVF   35,W
0CC08:  SUBLW  0F
0CC0A:  BZ    CC12
0CC0C:  MOVF   35,W
0CC0E:  SUBLW  0E
0CC10:  BNZ   CC40
....................             delay_ms(10); 
0CC12:  MOVLW  0A
0CC14:  MOVLB  7
0CC16:  MOVWF  x6C
0CC18:  MOVLB  0
0CC1A:  CALL   15AA
....................             if(RX_Buffer[4]==0x0f || RX_Buffer[4]==0x0e){//Tecla abajo oprimida 
0CC1E:  MOVF   35,W
0CC20:  SUBLW  0F
0CC22:  BZ    CC2A
0CC24:  MOVF   35,W
0CC26:  SUBLW  0E
0CC28:  BNZ   CC40
....................                DOWN=OFF; 
0CC2A:  BCF    x7F.4
....................                if(Segundos && sSilenciop>0){ 
0CC2C:  BTFSS  x7E.5
0CC2E:  BRA    CC36
0CC30:  MOVF   xC2,F
0CC32:  BZ    CC36
....................                   sSilenciop--; 
0CC34:  DECF   xC2,F
....................                } 
....................                if(Minutos){ 
0CC36:  BTFSS  x7E.4
0CC38:  BRA    CC3C
....................                   mSilenciop--; 
0CC3A:  DECF   xC3,F
....................                } 
....................                RX_Buffer[4]=0x00;   
0CC3C:  CLRF   35
....................                RX_Buffer2[4]=0x00; 
0CC3E:  CLRF   40
....................             } 
....................          } 
....................           
....................          if(mSilenciop<1)mSilenciop=99; 
0CC40:  MOVF   xC3,F
0CC42:  BNZ   CC48
0CC44:  MOVLW  63
0CC46:  MOVWF  xC3
....................          if(mSilenciop>99)mSilenciop=1; 
0CC48:  MOVF   xC3,W
0CC4A:  SUBLW  63
0CC4C:  BC    CC52
0CC4E:  MOVLW  01
0CC50:  MOVWF  xC3
....................          if(sSilenciop>59)sSilenciop=0; 
0CC52:  MOVF   xC2,W
0CC54:  SUBLW  3B
0CC56:  BTFSS  FD8.0
0CC58:  CLRF   xC2
....................              
....................          printf("tminest.txt=\"%02u\"",mSilenciop); 
0CC5A:  MOVLW  E4
0CC5C:  MOVWF  FF6
0CC5E:  MOVLW  11
0CC60:  MOVWF  FF7
0CC62:  MOVLW  00
0CC64:  MOVWF  FF8
0CC66:  MOVLW  0D
0CC68:  MOVLB  7
0CC6A:  MOVWF  x5C
0CC6C:  MOVLB  0
0CC6E:  CALL   71A4
0CC72:  MOVFF  C3,759
0CC76:  MOVLW  01
0CC78:  MOVLB  7
0CC7A:  MOVWF  x5A
0CC7C:  MOVLB  0
0CC7E:  CALL   7202
0CC82:  MOVLW  22
0CC84:  BTFSS  F9E.4
0CC86:  BRA    CC84
0CC88:  MOVWF  FAD
....................          SendDataDisplay(); 
0CC8A:  CALL   1E60
....................          printf("tsecest.txt=\"%02u\"",sSilenciop); 
0CC8E:  MOVLW  F8
0CC90:  MOVWF  FF6
0CC92:  MOVLW  11
0CC94:  MOVWF  FF7
0CC96:  MOVLW  00
0CC98:  MOVWF  FF8
0CC9A:  MOVLW  0D
0CC9C:  MOVLB  7
0CC9E:  MOVWF  x5C
0CCA0:  MOVLB  0
0CCA2:  CALL   71A4
0CCA6:  MOVFF  C2,759
0CCAA:  MOVLW  01
0CCAC:  MOVLB  7
0CCAE:  MOVWF  x5A
0CCB0:  MOVLB  0
0CCB2:  CALL   7202
0CCB6:  MOVLW  22
0CCB8:  BTFSS  F9E.4
0CCBA:  BRA    CCB8
0CCBC:  MOVWF  FAD
....................          SendDataDisplay(); 
0CCBE:  CALL   1E60
....................     } 
.................... //_--------------------------------------------------------------------------------------------------------------------------------------------------------        
....................  
.................... //_-------------------------------------------------------------------------------------------------------------------------------------------------------- 
....................       if(Menu==100){ //Menu de Configuracin de Parametros de Control 
0CCC2:  MOVF   x82,W
0CCC4:  SUBLW  64
0CCC6:  BTFSS  FD8.2
0CCC8:  GOTO   E3A6
....................       if(Opcion2>11) 
0CCCC:  MOVF   xBF,W
0CCCE:  SUBLW  0B
0CCD0:  BC    CCD6
....................          Opcion2=1; 
0CCD2:  MOVLW  01
0CCD4:  MOVWF  xBF
....................       if(Opcion2<1) 
0CCD6:  MOVF   xBF,F
0CCD8:  BNZ   CCDE
....................          Opcion2=11; 
0CCDA:  MOVLW  0B
0CCDC:  MOVWF  xBF
....................        
....................       if(Opcion2==1){ 
0CCDE:  DECFSZ xBF,W
0CCE0:  BRA    CE62
....................          printf("Config.t2c.txt=\"Velocidad\""); 
0CCE2:  MOVLW  0C
0CCE4:  MOVWF  FF6
0CCE6:  MOVLW  12
0CCE8:  MOVWF  FF7
0CCEA:  MOVLW  00
0CCEC:  MOVWF  FF8
0CCEE:  CALL   1E2E
....................          SendDataDisplay();       
0CCF2:  CALL   1E60
....................          printf("t3c.txt=\"%03u\"",Vel1); 
0CCF6:  MOVLW  28
0CCF8:  MOVWF  FF6
0CCFA:  MOVLW  12
0CCFC:  MOVWF  FF7
0CCFE:  MOVLW  00
0CD00:  MOVWF  FF8
0CD02:  MOVLW  09
0CD04:  MOVLB  7
0CD06:  MOVWF  x5C
0CD08:  MOVLB  0
0CD0A:  CALL   71A4
0CD0E:  MOVFF  90,759
0CD12:  MOVLW  03
0CD14:  MOVLB  7
0CD16:  MOVWF  x5A
0CD18:  MOVLB  0
0CD1A:  CALL   7202
0CD1E:  MOVLW  22
0CD20:  BTFSS  F9E.4
0CD22:  BRA    CD20
0CD24:  MOVWF  FAD
....................          SendDataDisplay(); 
0CD26:  CALL   1E60
....................          if(RX_Buffer[4]==0x0a || UP){//Tecla Arriba Oprimida 
0CD2A:  MOVF   35,W
0CD2C:  SUBLW  0A
0CD2E:  BZ    CD34
0CD30:  BTFSS  x7F.3
0CD32:  BRA    CD3E
....................                UP=OFF; 
0CD34:  BCF    x7F.3
....................                Vel1+=1; 
0CD36:  MOVLW  01
0CD38:  ADDWF  x90,F
....................                RX_Buffer[4]=0x00;   
0CD3A:  CLRF   35
....................                RX_Buffer2[4]=0x00;             
0CD3C:  CLRF   40
....................                //BorraBuffer(); 
....................          } 
....................              
....................          if(RX_Buffer[4]==0x0b || DOWN){//Tecla Abajo Oprimida 
0CD3E:  MOVF   35,W
0CD40:  SUBLW  0B
0CD42:  BZ    CD48
0CD44:  BTFSS  x7F.4
0CD46:  BRA    CD52
....................                DOWN=OFF; 
0CD48:  BCF    x7F.4
....................                Vel1-=1; 
0CD4A:  MOVLW  01
0CD4C:  SUBWF  x90,F
....................                RX_Buffer[4]=0x00; 
0CD4E:  CLRF   35
....................                RX_Buffer2[4]=0x00;             
0CD50:  CLRF   40
....................                //BorraBuffer(); 
....................          } 
....................          //VelocidadMotor(Vel1); 
....................           
....................          tempo=((float)Vel1/(1.6666666))*10.0; 
0CD52:  MOVLB  7
0CD54:  CLRF   x9D
0CD56:  MOVFF  90,79C
0CD5A:  MOVLB  0
0CD5C:  CALL   188A
0CD60:  MOVFF  00,758
0CD64:  MOVFF  01,759
0CD68:  MOVFF  02,75A
0CD6C:  MOVFF  03,75B
0CD70:  MOVFF  03,79B
0CD74:  MOVFF  02,79A
0CD78:  MOVFF  01,799
0CD7C:  MOVFF  00,798
0CD80:  MOVLW  55
0CD82:  MOVLB  7
0CD84:  MOVWF  x9F
0CD86:  MOVWF  x9E
0CD88:  MOVWF  x9D
0CD8A:  MOVLW  7F
0CD8C:  MOVWF  x9C
0CD8E:  MOVLB  0
0CD90:  CALL   18C0
0CD94:  MOVFF  00,758
0CD98:  MOVFF  01,759
0CD9C:  MOVFF  02,75A
0CDA0:  MOVFF  03,75B
0CDA4:  MOVFF  03,79B
0CDA8:  MOVFF  02,79A
0CDAC:  MOVFF  01,799
0CDB0:  MOVFF  00,798
0CDB4:  MOVLB  7
0CDB6:  CLRF   x9F
0CDB8:  CLRF   x9E
0CDBA:  MOVLW  20
0CDBC:  MOVWF  x9D
0CDBE:  MOVLW  82
0CDC0:  MOVWF  x9C
0CDC2:  MOVLB  0
0CDC4:  CALL   1A1E
0CDC8:  MOVFF  03,115
0CDCC:  MOVFF  02,114
0CDD0:  MOVFF  01,113
0CDD4:  MOVFF  00,112
....................          readHolding();  
0CDD8:  CALL   1854
....................          reg=(int16)tempo; 
0CDDC:  MOVFF  115,79B
0CDE0:  MOVFF  114,79A
0CDE4:  MOVFF  113,799
0CDE8:  MOVFF  112,798
0CDEC:  CALL   1B14
0CDF0:  MOVFF  02,D9
0CDF4:  MOVFF  01,D8
....................          //if(reg!=make16(txbuf[17],txbuf[18])){//Compara Registro 1 con el valor de activacion de variador 
....................          if(reg!=make16(txbuf[3],txbuf[4])){ 
0CDF8:  MOVFF  2AB,03
0CDFC:  MOVLB  2
0CDFE:  MOVF   xAC,W
0CE00:  MOVLB  0
0CE02:  SUBWF  xD8,W
0CE04:  BNZ   CE0C
0CE06:  MOVF   03,W
0CE08:  SUBWF  xD9,W
0CE0A:  BZ    CE32
....................             writeCommand(5,1,reg); 
0CE0C:  MOVLW  05
0CE0E:  MOVLB  7
0CE10:  MOVWF  x5D
0CE12:  MOVLW  01
0CE14:  MOVWF  x5E
0CE16:  MOVFF  D9,760
0CE1A:  MOVFF  D8,75F
0CE1E:  MOVLB  0
0CE20:  CALL   1870
....................             delay_ms(10);        
0CE24:  MOVLW  0A
0CE26:  MOVLB  7
0CE28:  MOVWF  x6C
0CE2A:  MOVLB  0
0CE2C:  CALL   15AA
....................          }else{ 
0CE30:  BRA    CE4A
....................             Alarma_off; 
0CE32:  BCF    F8B.0
0CE34:  BCF    F94.0
....................             Aux_off; 
0CE36:  BSF    F8C.2
0CE38:  BCF    F95.2
....................             writeCommand(0,0,0); 
0CE3A:  MOVLB  7
0CE3C:  CLRF   x5D
0CE3E:  CLRF   x5E
0CE40:  CLRF   x60
0CE42:  CLRF   x5F
0CE44:  MOVLB  0
0CE46:  CALL   1870
....................          } 
....................           
....................          if(Vel1>100) 
0CE4A:  MOVF   x90,W
0CE4C:  SUBLW  64
0CE4E:  BC    CE54
....................             Vel1=20; 
0CE50:  MOVLW  14
0CE52:  MOVWF  x90
....................          if(Vel1<20) 
0CE54:  MOVF   x90,W
0CE56:  SUBLW  13
0CE58:  BNC   CE5E
....................             Vel1=100; 
0CE5A:  MOVLW  64
0CE5C:  MOVWF  x90
....................       }else if(Opcion2==2){ 
0CE5E:  GOTO   DB5E
0CE62:  MOVF   xBF,W
0CE64:  SUBLW  02
0CE66:  BTFSS  FD8.2
0CE68:  BRA    CFCC
....................          printf("Config.t2c.txt=\"P Inicial Pre-Fil\""); 
0CE6A:  MOVLW  38
0CE6C:  MOVWF  FF6
0CE6E:  MOVLW  12
0CE70:  MOVWF  FF7
0CE72:  MOVLW  00
0CE74:  MOVWF  FF8
0CE76:  CALL   1E2E
....................          SendDataDisplay();       
0CE7A:  CALL   1E60
....................          printf("t3c.txt=\"%2.2f\"",pInIn); 
0CE7E:  MOVLW  5C
0CE80:  MOVWF  FF6
0CE82:  MOVLW  12
0CE84:  MOVWF  FF7
0CE86:  MOVLW  00
0CE88:  MOVWF  FF8
0CE8A:  MOVLW  09
0CE8C:  MOVLB  7
0CE8E:  MOVWF  x5C
0CE90:  MOVLB  0
0CE92:  CALL   71A4
0CE96:  MOVLW  89
0CE98:  MOVWF  FE9
0CE9A:  MOVFF  135,75D
0CE9E:  MOVFF  134,75C
0CEA2:  MOVFF  133,75B
0CEA6:  MOVFF  132,75A
0CEAA:  MOVLW  02
0CEAC:  MOVLB  7
0CEAE:  MOVWF  x5E
0CEB0:  MOVLB  0
0CEB2:  CALL   7BA0
0CEB6:  MOVLW  22
0CEB8:  BTFSS  F9E.4
0CEBA:  BRA    CEB8
0CEBC:  MOVWF  FAD
....................          SendDataDisplay(); 
0CEBE:  CALL   1E60
....................          if(RX_Buffer[4]==0x0a || UP){//Tecla Arriba Oprimida 
0CEC2:  MOVF   35,W
0CEC4:  SUBLW  0A
0CEC6:  BZ    CECC
0CEC8:  BTFSS  x7F.3
0CECA:  BRA    CF0C
....................                UP=OFF; 
0CECC:  BCF    x7F.3
....................                pInIn+=0.01; 
0CECE:  BCF    FD8.1
0CED0:  MOVFF  135,79F
0CED4:  MOVFF  134,79E
0CED8:  MOVFF  133,79D
0CEDC:  MOVFF  132,79C
0CEE0:  MOVLW  0A
0CEE2:  MOVLB  7
0CEE4:  MOVWF  xA3
0CEE6:  MOVLW  D7
0CEE8:  MOVWF  xA2
0CEEA:  MOVLW  23
0CEEC:  MOVWF  xA1
0CEEE:  MOVLW  78
0CEF0:  MOVWF  xA0
0CEF2:  MOVLB  0
0CEF4:  CALL   1E96
0CEF8:  MOVFF  03,135
0CEFC:  MOVFF  02,134
0CF00:  MOVFF  01,133
0CF04:  MOVFF  00,132
....................                RX_Buffer[4]=0x00;   
0CF08:  CLRF   35
....................                RX_Buffer2[4]=0x00;             
0CF0A:  CLRF   40
....................                //BorraBuffer(); 
....................          } 
....................              
....................          if(RX_Buffer[4]==0x0b || DOWN){//Tecla Abajo Oprimida 
0CF0C:  MOVF   35,W
0CF0E:  SUBLW  0B
0CF10:  BZ    CF16
0CF12:  BTFSS  x7F.4
0CF14:  BRA    CF56
....................                DOWN=OFF; 
0CF16:  BCF    x7F.4
....................                pInIn-=0.01; 
0CF18:  BSF    FD8.1
0CF1A:  MOVFF  135,79F
0CF1E:  MOVFF  134,79E
0CF22:  MOVFF  133,79D
0CF26:  MOVFF  132,79C
0CF2A:  MOVLW  0A
0CF2C:  MOVLB  7
0CF2E:  MOVWF  xA3
0CF30:  MOVLW  D7
0CF32:  MOVWF  xA2
0CF34:  MOVLW  23
0CF36:  MOVWF  xA1
0CF38:  MOVLW  78
0CF3A:  MOVWF  xA0
0CF3C:  MOVLB  0
0CF3E:  CALL   1E96
0CF42:  MOVFF  03,135
0CF46:  MOVFF  02,134
0CF4A:  MOVFF  01,133
0CF4E:  MOVFF  00,132
....................                RX_Buffer[4]=0x00; 
0CF52:  CLRF   35
....................                RX_Buffer2[4]=0x00;             
0CF54:  CLRF   40
....................                //BorraBuffer(); 
....................          } 
....................          if(pInIn>1.8)pInIn=0.2; 
0CF56:  MOVLW  66
0CF58:  MOVLB  7
0CF5A:  MOVWF  x9B
0CF5C:  MOVWF  x9A
0CF5E:  MOVWF  x99
0CF60:  MOVLW  7F
0CF62:  MOVWF  x98
0CF64:  MOVFF  135,79F
0CF68:  MOVFF  134,79E
0CF6C:  MOVFF  133,79D
0CF70:  MOVFF  132,79C
0CF74:  MOVLB  0
0CF76:  CALL   2F26
0CF7A:  BNC   CF8E
0CF7C:  MOVLW  CD
0CF7E:  MOVLB  1
0CF80:  MOVWF  x35
0CF82:  MOVLW  CC
0CF84:  MOVWF  x34
0CF86:  MOVLW  4C
0CF88:  MOVWF  x33
0CF8A:  MOVLW  7C
0CF8C:  MOVWF  x32
....................          if(pInIn<0.2)pInIn=1.8; 
0CF8E:  MOVFF  135,79B
0CF92:  MOVFF  134,79A
0CF96:  MOVFF  133,799
0CF9A:  MOVFF  132,798
0CF9E:  MOVLW  CD
0CFA0:  MOVLB  7
0CFA2:  MOVWF  x9F
0CFA4:  MOVLW  CC
0CFA6:  MOVWF  x9E
0CFA8:  MOVLW  4C
0CFAA:  MOVWF  x9D
0CFAC:  MOVLW  7C
0CFAE:  MOVWF  x9C
0CFB0:  MOVLB  0
0CFB2:  CALL   2F26
0CFB6:  BNC   CFC8
0CFB8:  MOVLW  66
0CFBA:  MOVLB  1
0CFBC:  MOVWF  x35
0CFBE:  MOVWF  x34
0CFC0:  MOVWF  x33
0CFC2:  MOVLW  7F
0CFC4:  MOVWF  x32
0CFC6:  MOVLB  0
....................       }else if(Opcion2==3){ 
0CFC8:  GOTO   DB5E
0CFCC:  MOVF   xBF,W
0CFCE:  SUBLW  03
0CFD0:  BTFSS  FD8.2
0CFD2:  BRA    D13E
....................          printf("Config.t2c.txt=\"P Inicial DownFlow\""); 
0CFD4:  MOVLW  6C
0CFD6:  MOVWF  FF6
0CFD8:  MOVLW  12
0CFDA:  MOVWF  FF7
0CFDC:  MOVLW  00
0CFDE:  MOVWF  FF8
0CFE0:  CALL   1E2E
....................          SendDataDisplay();       
0CFE4:  CALL   1E60
....................          printf("t3c.txt=\"%2.2f\"",pInDn); 
0CFE8:  MOVLW  90
0CFEA:  MOVWF  FF6
0CFEC:  MOVLW  12
0CFEE:  MOVWF  FF7
0CFF0:  MOVLW  00
0CFF2:  MOVWF  FF8
0CFF4:  MOVLW  09
0CFF6:  MOVLB  7
0CFF8:  MOVWF  x5C
0CFFA:  MOVLB  0
0CFFC:  CALL   71A4
0D000:  MOVLW  89
0D002:  MOVWF  FE9
0D004:  MOVFF  131,75D
0D008:  MOVFF  130,75C
0D00C:  MOVFF  12F,75B
0D010:  MOVFF  12E,75A
0D014:  MOVLW  02
0D016:  MOVLB  7
0D018:  MOVWF  x5E
0D01A:  MOVLB  0
0D01C:  CALL   7BA0
0D020:  MOVLW  22
0D022:  BTFSS  F9E.4
0D024:  BRA    D022
0D026:  MOVWF  FAD
....................          SendDataDisplay(); 
0D028:  CALL   1E60
....................          if(RX_Buffer[4]==0x0a || UP){//Tecla Arriba Oprimida 
0D02C:  MOVF   35,W
0D02E:  SUBLW  0A
0D030:  BZ    D036
0D032:  BTFSS  x7F.3
0D034:  BRA    D076
....................                UP=OFF; 
0D036:  BCF    x7F.3
....................                pInDn+=0.01; 
0D038:  BCF    FD8.1
0D03A:  MOVFF  131,79F
0D03E:  MOVFF  130,79E
0D042:  MOVFF  12F,79D
0D046:  MOVFF  12E,79C
0D04A:  MOVLW  0A
0D04C:  MOVLB  7
0D04E:  MOVWF  xA3
0D050:  MOVLW  D7
0D052:  MOVWF  xA2
0D054:  MOVLW  23
0D056:  MOVWF  xA1
0D058:  MOVLW  78
0D05A:  MOVWF  xA0
0D05C:  MOVLB  0
0D05E:  CALL   1E96
0D062:  MOVFF  03,131
0D066:  MOVFF  02,130
0D06A:  MOVFF  01,12F
0D06E:  MOVFF  00,12E
....................                RX_Buffer[4]=0x00;   
0D072:  CLRF   35
....................                RX_Buffer2[4]=0x00;             
0D074:  CLRF   40
....................                //BorraBuffer(); 
....................          } 
....................              
....................          if(RX_Buffer[4]==0x0b || DOWN){//Tecla Abajo Oprimida 
0D076:  MOVF   35,W
0D078:  SUBLW  0B
0D07A:  BZ    D080
0D07C:  BTFSS  x7F.4
0D07E:  BRA    D0C0
....................                DOWN=OFF; 
0D080:  BCF    x7F.4
....................                pInDn-=0.01; 
0D082:  BSF    FD8.1
0D084:  MOVFF  131,79F
0D088:  MOVFF  130,79E
0D08C:  MOVFF  12F,79D
0D090:  MOVFF  12E,79C
0D094:  MOVLW  0A
0D096:  MOVLB  7
0D098:  MOVWF  xA3
0D09A:  MOVLW  D7
0D09C:  MOVWF  xA2
0D09E:  MOVLW  23
0D0A0:  MOVWF  xA1
0D0A2:  MOVLW  78
0D0A4:  MOVWF  xA0
0D0A6:  MOVLB  0
0D0A8:  CALL   1E96
0D0AC:  MOVFF  03,131
0D0B0:  MOVFF  02,130
0D0B4:  MOVFF  01,12F
0D0B8:  MOVFF  00,12E
....................                RX_Buffer[4]=0x00; 
0D0BC:  CLRF   35
....................                RX_Buffer2[4]=0x00;             
0D0BE:  CLRF   40
....................                //BorraBuffer(); 
....................          } 
....................          if(pInDn>0.6)pInDn=0.1; 
0D0C0:  MOVLW  9A
0D0C2:  MOVLB  7
0D0C4:  MOVWF  x9B
0D0C6:  MOVLW  99
0D0C8:  MOVWF  x9A
0D0CA:  MOVLW  19
0D0CC:  MOVWF  x99
0D0CE:  MOVLW  7E
0D0D0:  MOVWF  x98
0D0D2:  MOVFF  131,79F
0D0D6:  MOVFF  130,79E
0D0DA:  MOVFF  12F,79D
0D0DE:  MOVFF  12E,79C
0D0E2:  MOVLB  0
0D0E4:  CALL   2F26
0D0E8:  BNC   D0FC
0D0EA:  MOVLW  CD
0D0EC:  MOVLB  1
0D0EE:  MOVWF  x31
0D0F0:  MOVLW  CC
0D0F2:  MOVWF  x30
0D0F4:  MOVLW  4C
0D0F6:  MOVWF  x2F
0D0F8:  MOVLW  7B
0D0FA:  MOVWF  x2E
....................          if(pInDn<0.1)pInDn=0.6; 
0D0FC:  MOVFF  131,79B
0D100:  MOVFF  130,79A
0D104:  MOVFF  12F,799
0D108:  MOVFF  12E,798
0D10C:  MOVLW  CD
0D10E:  MOVLB  7
0D110:  MOVWF  x9F
0D112:  MOVLW  CC
0D114:  MOVWF  x9E
0D116:  MOVLW  4C
0D118:  MOVWF  x9D
0D11A:  MOVLW  7B
0D11C:  MOVWF  x9C
0D11E:  MOVLB  0
0D120:  CALL   2F26
0D124:  BNC   D13A
0D126:  MOVLW  9A
0D128:  MOVLB  1
0D12A:  MOVWF  x31
0D12C:  MOVLW  99
0D12E:  MOVWF  x30
0D130:  MOVLW  19
0D132:  MOVWF  x2F
0D134:  MOVLW  7E
0D136:  MOVWF  x2E
0D138:  MOVLB  0
....................       }else if(Opcion2==4){ 
0D13A:  GOTO   DB5E
0D13E:  MOVF   xBF,W
0D140:  SUBLW  04
0D142:  BTFSS  FD8.2
0D144:  BRA    D29E
....................          VelMotor=0; 
0D146:  MOVLB  2
0D148:  CLRF   x85
....................          VelMotor2=0; 
0D14A:  CLRF   x86
....................          printf("Config.t2c.txt=\"Cero PDownFlow\""); 
0D14C:  MOVLW  A0
0D14E:  MOVWF  FF6
0D150:  MOVLW  12
0D152:  MOVWF  FF7
0D154:  MOVLW  00
0D156:  MOVWF  FF8
0D158:  MOVLB  0
0D15A:  CALL   1E2E
....................          SendDataDisplay();       
0D15E:  CALL   1E60
....................          printf("t3c.txt=\"%2.0f\"",Presion[4].G); 
0D162:  MOVLW  C0
0D164:  MOVWF  FF6
0D166:  MOVLW  12
0D168:  MOVWF  FF7
0D16A:  MOVLW  00
0D16C:  MOVWF  FF8
0D16E:  MOVLW  09
0D170:  MOVLB  7
0D172:  MOVWF  x5C
0D174:  MOVLB  0
0D176:  CALL   71A4
0D17A:  MOVLW  01
0D17C:  MOVWF  FE9
0D17E:  MOVFF  6E5,75D
0D182:  MOVFF  6E4,75C
0D186:  MOVFF  6E3,75B
0D18A:  MOVFF  6E2,75A
0D18E:  MOVLB  7
0D190:  CLRF   x5E
0D192:  MOVLB  0
0D194:  CALL   7BA0
0D198:  MOVLW  22
0D19A:  BTFSS  F9E.4
0D19C:  BRA    D19A
0D19E:  MOVWF  FAD
....................          //printf("t3c.txt=\"%2.0f\"",Gdn); 
....................          SendDataDisplay(); 
0D1A0:  CALL   1E60
....................          if(RX_Buffer[4]==0x0a || UP){//Tecla Arriba Oprimida             
0D1A4:  MOVF   35,W
0D1A6:  SUBLW  0A
0D1A8:  BZ    D1AE
0D1AA:  BTFSS  x7F.3
0D1AC:  BRA    D294
....................             UP=OFF; 
0D1AE:  BCF    x7F.3
....................             Presion[4].G=sensores(4);//Presion[4].adc; 
0D1B0:  MOVLW  04
0D1B2:  MOVLB  7
0D1B4:  MOVWF  x69
0D1B6:  MOVLB  0
0D1B8:  CALL   40F2
0D1BC:  MOVFF  02,79D
0D1C0:  MOVFF  01,79C
0D1C4:  CALL   188A
0D1C8:  MOVFF  03,6E5
0D1CC:  MOVFF  02,6E4
0D1D0:  MOVFF  01,6E3
0D1D4:  MOVFF  00,6E2
....................             G16=(int16)Presion[4].G; 
0D1D8:  MOVFF  6E5,79B
0D1DC:  MOVFF  6E4,79A
0D1E0:  MOVFF  6E3,799
0D1E4:  MOVFF  6E2,798
0D1E8:  CALL   1B14
0D1EC:  MOVFF  02,CF
0D1F0:  MOVFF  01,CE
....................             //Gdn=sensores(4);//Presion[4].adc; 
....................             //G16=(int16)Gdn; 
....................             G_l=G16; G_h=(G16>>8); 
0D1F4:  MOVFF  CE,85
0D1F8:  MOVFF  CF,86
....................                 
....................             write_eeprom(46,G_l); 
0D1FC:  CLRF   FAA
0D1FE:  MOVLW  2E
0D200:  MOVWF  FA9
0D202:  MOVFF  85,FA8
0D206:  BCF    FA6.6
0D208:  BCF    FA6.7
0D20A:  BSF    FA6.2
0D20C:  MOVF   FF2,W
0D20E:  MOVWF  00
0D210:  BCF    FF2.6
0D212:  BCF    FF2.7
0D214:  MOVLB  F
0D216:  MOVLW  55
0D218:  MOVWF  FA7
0D21A:  MOVLW  AA
0D21C:  MOVWF  FA7
0D21E:  BSF    FA6.1
0D220:  BTFSC  FA6.1
0D222:  BRA    D220
0D224:  BCF    FA6.2
0D226:  MOVF   00,W
0D228:  IORWF  FF2,F
....................             delay_ms(20); 
0D22A:  MOVLW  14
0D22C:  MOVLB  7
0D22E:  MOVWF  x6C
0D230:  MOVLB  0
0D232:  CALL   15AA
....................             write_eeprom(47,G_h);//Guardar valor de Setpoint en eeprom 
0D236:  CLRF   FAA
0D238:  MOVLW  2F
0D23A:  MOVWF  FA9
0D23C:  MOVFF  86,FA8
0D240:  BCF    FA6.6
0D242:  BCF    FA6.7
0D244:  BSF    FA6.2
0D246:  MOVF   FF2,W
0D248:  MOVWF  00
0D24A:  BCF    FF2.6
0D24C:  BCF    FF2.7
0D24E:  MOVLB  F
0D250:  MOVLW  55
0D252:  MOVWF  FA7
0D254:  MOVLW  AA
0D256:  MOVWF  FA7
0D258:  BSF    FA6.1
0D25A:  BTFSC  FA6.1
0D25C:  BRA    D25A
0D25E:  BCF    FA6.2
0D260:  MOVF   00,W
0D262:  IORWF  FF2,F
....................             delay_ms(20); 
0D264:  MOVLW  14
0D266:  MOVLB  7
0D268:  MOVWF  x6C
0D26A:  MOVLB  0
0D26C:  CALL   15AA
....................             RX_Buffer[4]=0x00;   
0D270:  CLRF   35
....................             RX_Buffer2[4]=0x00; 
0D272:  CLRF   40
....................             Alarma_on;delay_ms(500);Alarma_off; 
0D274:  BSF    F8B.0
0D276:  BCF    F94.0
0D278:  MOVLW  02
0D27A:  MOVLB  7
0D27C:  MOVWF  x58
0D27E:  MOVLW  FA
0D280:  MOVWF  x6C
0D282:  MOVLB  0
0D284:  CALL   15AA
0D288:  MOVLB  7
0D28A:  DECFSZ x58,F
0D28C:  BRA    D27E
0D28E:  BCF    F8B.0
0D290:  BCF    F94.0
0D292:  MOVLB  0
....................          } 
....................              
....................          if(RX_Buffer[4]==0x0b){//Tecla Abajo Oprimida             
0D294:  MOVF   35,W
0D296:  SUBLW  0B
0D298:  BNZ   D29A
....................                 
....................          } 
....................       }else if(Opcion2==5){ 
0D29A:  GOTO   DB5E
0D29E:  MOVF   xBF,W
0D2A0:  SUBLW  05
0D2A2:  BTFSS  FD8.2
0D2A4:  BRA    D3F8
....................          VelMotor=0; 
0D2A6:  MOVLB  2
0D2A8:  CLRF   x85
....................          VelMotor2=0; 
0D2AA:  CLRF   x86
....................          printf("Config.t2c.txt=\"Cero Pre-Filtros\""); 
0D2AC:  MOVLW  D0
0D2AE:  MOVWF  FF6
0D2B0:  MOVLW  12
0D2B2:  MOVWF  FF7
0D2B4:  MOVLW  00
0D2B6:  MOVWF  FF8
0D2B8:  MOVLB  0
0D2BA:  CALL   1E2E
....................          SendDataDisplay();       
0D2BE:  CALL   1E60
....................          printf("t3c.txt=\"%2.0f\"",Presion[3].G); 
0D2C2:  MOVLW  F2
0D2C4:  MOVWF  FF6
0D2C6:  MOVLW  12
0D2C8:  MOVWF  FF7
0D2CA:  MOVLW  00
0D2CC:  MOVWF  FF8
0D2CE:  MOVLW  09
0D2D0:  MOVLB  7
0D2D2:  MOVWF  x5C
0D2D4:  MOVLB  0
0D2D6:  CALL   71A4
0D2DA:  MOVLW  01
0D2DC:  MOVWF  FE9
0D2DE:  MOVFF  675,75D
0D2E2:  MOVFF  674,75C
0D2E6:  MOVFF  673,75B
0D2EA:  MOVFF  672,75A
0D2EE:  MOVLB  7
0D2F0:  CLRF   x5E
0D2F2:  MOVLB  0
0D2F4:  CALL   7BA0
0D2F8:  MOVLW  22
0D2FA:  BTFSS  F9E.4
0D2FC:  BRA    D2FA
0D2FE:  MOVWF  FAD
....................          SendDataDisplay(); 
0D300:  CALL   1E60
....................          if(RX_Buffer[4]==0x0a || UP){//Tecla Arriba Oprimida             
0D304:  MOVF   35,W
0D306:  SUBLW  0A
0D308:  BZ    D30E
0D30A:  BTFSS  x7F.3
0D30C:  BRA    D3F4
....................             UP=OFF; 
0D30E:  BCF    x7F.3
....................             Presion[3].G=sensores(3);//Presion[3].adc; 
0D310:  MOVLW  03
0D312:  MOVLB  7
0D314:  MOVWF  x69
0D316:  MOVLB  0
0D318:  CALL   40F2
0D31C:  MOVFF  02,79D
0D320:  MOVFF  01,79C
0D324:  CALL   188A
0D328:  MOVFF  03,675
0D32C:  MOVFF  02,674
0D330:  MOVFF  01,673
0D334:  MOVFF  00,672
....................             G16=(int16)Presion[3].G; 
0D338:  MOVFF  675,79B
0D33C:  MOVFF  674,79A
0D340:  MOVFF  673,799
0D344:  MOVFF  672,798
0D348:  CALL   1B14
0D34C:  MOVFF  02,CF
0D350:  MOVFF  01,CE
....................             G_l=G16; G_h=(G16>>8); 
0D354:  MOVFF  CE,85
0D358:  MOVFF  CF,86
....................                 
....................             write_eeprom(48,G_l); 
0D35C:  CLRF   FAA
0D35E:  MOVLW  30
0D360:  MOVWF  FA9
0D362:  MOVFF  85,FA8
0D366:  BCF    FA6.6
0D368:  BCF    FA6.7
0D36A:  BSF    FA6.2
0D36C:  MOVF   FF2,W
0D36E:  MOVWF  00
0D370:  BCF    FF2.6
0D372:  BCF    FF2.7
0D374:  MOVLB  F
0D376:  MOVLW  55
0D378:  MOVWF  FA7
0D37A:  MOVLW  AA
0D37C:  MOVWF  FA7
0D37E:  BSF    FA6.1
0D380:  BTFSC  FA6.1
0D382:  BRA    D380
0D384:  BCF    FA6.2
0D386:  MOVF   00,W
0D388:  IORWF  FF2,F
....................             delay_ms(20); 
0D38A:  MOVLW  14
0D38C:  MOVLB  7
0D38E:  MOVWF  x6C
0D390:  MOVLB  0
0D392:  CALL   15AA
....................             write_eeprom(49,G_h);//Guardar valor de Setpoint en eeprom 
0D396:  CLRF   FAA
0D398:  MOVLW  31
0D39A:  MOVWF  FA9
0D39C:  MOVFF  86,FA8
0D3A0:  BCF    FA6.6
0D3A2:  BCF    FA6.7
0D3A4:  BSF    FA6.2
0D3A6:  MOVF   FF2,W
0D3A8:  MOVWF  00
0D3AA:  BCF    FF2.6
0D3AC:  BCF    FF2.7
0D3AE:  MOVLB  F
0D3B0:  MOVLW  55
0D3B2:  MOVWF  FA7
0D3B4:  MOVLW  AA
0D3B6:  MOVWF  FA7
0D3B8:  BSF    FA6.1
0D3BA:  BTFSC  FA6.1
0D3BC:  BRA    D3BA
0D3BE:  BCF    FA6.2
0D3C0:  MOVF   00,W
0D3C2:  IORWF  FF2,F
....................             delay_ms(20); 
0D3C4:  MOVLW  14
0D3C6:  MOVLB  7
0D3C8:  MOVWF  x6C
0D3CA:  MOVLB  0
0D3CC:  CALL   15AA
....................             RX_Buffer[4]=0x00;   
0D3D0:  CLRF   35
....................             RX_Buffer2[4]=0x00; 
0D3D2:  CLRF   40
....................             Alarma_on;delay_ms(500);Alarma_off; 
0D3D4:  BSF    F8B.0
0D3D6:  BCF    F94.0
0D3D8:  MOVLW  02
0D3DA:  MOVLB  7
0D3DC:  MOVWF  x58
0D3DE:  MOVLW  FA
0D3E0:  MOVWF  x6C
0D3E2:  MOVLB  0
0D3E4:  CALL   15AA
0D3E8:  MOVLB  7
0D3EA:  DECFSZ x58,F
0D3EC:  BRA    D3DE
0D3EE:  BCF    F8B.0
0D3F0:  BCF    F94.0
0D3F2:  MOVLB  0
....................          } 
....................       }else if(Opcion2==6){ 
0D3F4:  GOTO   DB5E
0D3F8:  MOVF   xBF,W
0D3FA:  SUBLW  06
0D3FC:  BNZ   D484
....................          printf("Config.t2c.txt=\"Velocidad Inicial\""); 
0D3FE:  MOVLW  02
0D400:  MOVWF  FF6
0D402:  MOVLW  13
0D404:  MOVWF  FF7
0D406:  MOVLW  00
0D408:  MOVWF  FF8
0D40A:  CALL   1E2E
....................          SendDataDisplay();       
0D40E:  CALL   1E60
....................          printf("t3c.txt=\"%02u\"",velocidadInicial); 
0D412:  MOVLW  26
0D414:  MOVWF  FF6
0D416:  MOVLW  13
0D418:  MOVWF  FF7
0D41A:  MOVLW  00
0D41C:  MOVWF  FF8
0D41E:  MOVLW  09
0D420:  MOVLB  7
0D422:  MOVWF  x5C
0D424:  MOVLB  0
0D426:  CALL   71A4
0D42A:  MOVFF  B0,759
0D42E:  MOVLW  01
0D430:  MOVLB  7
0D432:  MOVWF  x5A
0D434:  MOVLB  0
0D436:  CALL   7202
0D43A:  MOVLW  22
0D43C:  BTFSS  F9E.4
0D43E:  BRA    D43C
0D440:  MOVWF  FAD
....................          SendDataDisplay(); 
0D442:  CALL   1E60
....................          if(RX_Buffer[4]==0x0a || UP){//Tecla Arriba Oprimida 
0D446:  MOVF   35,W
0D448:  SUBLW  0A
0D44A:  BZ    D450
0D44C:  BTFSS  x7F.3
0D44E:  BRA    D45A
....................                UP=OFF; 
0D450:  BCF    x7F.3
....................                velocidadInicial+=1; 
0D452:  MOVLW  01
0D454:  ADDWF  xB0,F
....................                RX_Buffer[4]=0x00;   
0D456:  CLRF   35
....................                RX_Buffer2[4]=0x00;             
0D458:  CLRF   40
....................                //BorraBuffer(); 
....................          } 
....................              
....................          if(RX_Buffer[4]==0x0b || DOWN){//Tecla Abajo Oprimida 
0D45A:  MOVF   35,W
0D45C:  SUBLW  0B
0D45E:  BZ    D464
0D460:  BTFSS  x7F.4
0D462:  BRA    D46E
....................                DOWN=OFF; 
0D464:  BCF    x7F.4
....................                velocidadInicial-=1; 
0D466:  MOVLW  01
0D468:  SUBWF  xB0,F
....................                RX_Buffer[4]=0x00; 
0D46A:  CLRF   35
....................                RX_Buffer2[4]=0x00;             
0D46C:  CLRF   40
....................                //BorraBuffer(); 
....................          } 
....................          if(velocidadInicial>95)velocidadInicial=20; 
0D46E:  MOVF   xB0,W
0D470:  SUBLW  5F
0D472:  BC    D478
0D474:  MOVLW  14
0D476:  MOVWF  xB0
....................          if(velocidadInicial<20)velocidadInicial=95; 
0D478:  MOVF   xB0,W
0D47A:  SUBLW  13
0D47C:  BNC   D482
0D47E:  MOVLW  5F
0D480:  MOVWF  xB0
....................       }else if(Opcion2==7){ 
0D482:  BRA    DB5E
0D484:  MOVF   xBF,W
0D486:  SUBLW  07
0D488:  BNZ   D56A
....................          printf("Config.t2c.txt=\"P atmosferica\""); 
0D48A:  MOVLW  36
0D48C:  MOVWF  FF6
0D48E:  MOVLW  13
0D490:  MOVWF  FF7
0D492:  MOVLW  00
0D494:  MOVWF  FF8
0D496:  CALL   1E2E
....................          SendDataDisplay();       
0D49A:  CALL   1E60
....................          printf("t3c.txt=\"%2.0f\"",Pr); 
0D49E:  MOVLW  56
0D4A0:  MOVWF  FF6
0D4A2:  MOVLW  13
0D4A4:  MOVWF  FF7
0D4A6:  MOVLW  00
0D4A8:  MOVWF  FF8
0D4AA:  MOVLW  09
0D4AC:  MOVLB  7
0D4AE:  MOVWF  x5C
0D4B0:  MOVLB  0
0D4B2:  CALL   71A4
0D4B6:  MOVLW  01
0D4B8:  MOVWF  FE9
0D4BA:  MOVFF  275,75D
0D4BE:  MOVFF  274,75C
0D4C2:  MOVFF  273,75B
0D4C6:  MOVFF  272,75A
0D4CA:  MOVLB  7
0D4CC:  CLRF   x5E
0D4CE:  MOVLB  0
0D4D0:  CALL   7BA0
0D4D4:  MOVLW  22
0D4D6:  BTFSS  F9E.4
0D4D8:  BRA    D4D6
0D4DA:  MOVWF  FAD
....................          SendDataDisplay(); 
0D4DC:  CALL   1E60
....................          if(RX_Buffer[4]==0x0a || UP){//Tecla Arriba Oprimida 
0D4E0:  MOVF   35,W
0D4E2:  SUBLW  0A
0D4E4:  BZ    D4EA
0D4E6:  BTFSS  x7F.3
0D4E8:  BRA    D524
....................                UP=OFF; 
0D4EA:  BCF    x7F.3
....................                Pr+=1; 
0D4EC:  BCF    FD8.1
0D4EE:  MOVFF  275,79F
0D4F2:  MOVFF  274,79E
0D4F6:  MOVFF  273,79D
0D4FA:  MOVFF  272,79C
0D4FE:  MOVLB  7
0D500:  CLRF   xA3
0D502:  CLRF   xA2
0D504:  CLRF   xA1
0D506:  MOVLW  7F
0D508:  MOVWF  xA0
0D50A:  MOVLB  0
0D50C:  CALL   1E96
0D510:  MOVFF  03,275
0D514:  MOVFF  02,274
0D518:  MOVFF  01,273
0D51C:  MOVFF  00,272
....................                RX_Buffer[4]=0x00;   
0D520:  CLRF   35
....................                RX_Buffer2[4]=0x00;             
0D522:  CLRF   40
....................                //BorraBuffer(); 
....................          } 
....................              
....................          if(RX_Buffer[4]==0x0b || DOWN){//Tecla Abajo Oprimida 
0D524:  MOVF   35,W
0D526:  SUBLW  0B
0D528:  BZ    D52E
0D52A:  BTFSS  x7F.4
0D52C:  BRA    D568
....................                DOWN=OFF; 
0D52E:  BCF    x7F.4
....................                Pr-=1; 
0D530:  BSF    FD8.1
0D532:  MOVFF  275,79F
0D536:  MOVFF  274,79E
0D53A:  MOVFF  273,79D
0D53E:  MOVFF  272,79C
0D542:  MOVLB  7
0D544:  CLRF   xA3
0D546:  CLRF   xA2
0D548:  CLRF   xA1
0D54A:  MOVLW  7F
0D54C:  MOVWF  xA0
0D54E:  MOVLB  0
0D550:  CALL   1E96
0D554:  MOVFF  03,275
0D558:  MOVFF  02,274
0D55C:  MOVFF  01,273
0D560:  MOVFF  00,272
....................                RX_Buffer[4]=0x00; 
0D564:  CLRF   35
....................                RX_Buffer2[4]=0x00;             
0D566:  CLRF   40
....................                //BorraBuffer(); 
....................          } 
....................       }else if(Opcion2==8){ 
0D568:  BRA    DB5E
0D56A:  MOVF   xBF,W
0D56C:  SUBLW  08
0D56E:  BNZ   D650
....................          printf("Config.t2c.txt=\"Humedad\""); 
0D570:  MOVLW  66
0D572:  MOVWF  FF6
0D574:  MOVLW  13
0D576:  MOVWF  FF7
0D578:  MOVLW  00
0D57A:  MOVWF  FF8
0D57C:  CALL   1E2E
....................          SendDataDisplay();       
0D580:  CALL   1E60
....................          printf("t3c.txt=\"%2.0f\"",HR); 
0D584:  MOVLW  80
0D586:  MOVWF  FF6
0D588:  MOVLW  13
0D58A:  MOVWF  FF7
0D58C:  MOVLW  00
0D58E:  MOVWF  FF8
0D590:  MOVLW  09
0D592:  MOVLB  7
0D594:  MOVWF  x5C
0D596:  MOVLB  0
0D598:  CALL   71A4
0D59C:  MOVLW  01
0D59E:  MOVWF  FE9
0D5A0:  MOVFF  25D,75D
0D5A4:  MOVFF  25C,75C
0D5A8:  MOVFF  25B,75B
0D5AC:  MOVFF  25A,75A
0D5B0:  MOVLB  7
0D5B2:  CLRF   x5E
0D5B4:  MOVLB  0
0D5B6:  CALL   7BA0
0D5BA:  MOVLW  22
0D5BC:  BTFSS  F9E.4
0D5BE:  BRA    D5BC
0D5C0:  MOVWF  FAD
....................          SendDataDisplay(); 
0D5C2:  CALL   1E60
....................          if(RX_Buffer[4]==0x0a || UP){//Tecla Arriba Oprimida 
0D5C6:  MOVF   35,W
0D5C8:  SUBLW  0A
0D5CA:  BZ    D5D0
0D5CC:  BTFSS  x7F.3
0D5CE:  BRA    D60A
....................                UP=OFF; 
0D5D0:  BCF    x7F.3
....................                HR+=1.0; 
0D5D2:  BCF    FD8.1
0D5D4:  MOVFF  25D,79F
0D5D8:  MOVFF  25C,79E
0D5DC:  MOVFF  25B,79D
0D5E0:  MOVFF  25A,79C
0D5E4:  MOVLB  7
0D5E6:  CLRF   xA3
0D5E8:  CLRF   xA2
0D5EA:  CLRF   xA1
0D5EC:  MOVLW  7F
0D5EE:  MOVWF  xA0
0D5F0:  MOVLB  0
0D5F2:  CALL   1E96
0D5F6:  MOVFF  03,25D
0D5FA:  MOVFF  02,25C
0D5FE:  MOVFF  01,25B
0D602:  MOVFF  00,25A
....................                RX_Buffer[4]=0x00;   
0D606:  CLRF   35
....................                RX_Buffer2[4]=0x00;             
0D608:  CLRF   40
....................                //BorraBuffer(); 
....................          } 
....................              
....................          if(RX_Buffer[4]==0x0b || DOWN){//Tecla Abajo Oprimida 
0D60A:  MOVF   35,W
0D60C:  SUBLW  0B
0D60E:  BZ    D614
0D610:  BTFSS  x7F.4
0D612:  BRA    D64E
....................                DOWN=OFF; 
0D614:  BCF    x7F.4
....................                HR-=1.0; 
0D616:  BSF    FD8.1
0D618:  MOVFF  25D,79F
0D61C:  MOVFF  25C,79E
0D620:  MOVFF  25B,79D
0D624:  MOVFF  25A,79C
0D628:  MOVLB  7
0D62A:  CLRF   xA3
0D62C:  CLRF   xA2
0D62E:  CLRF   xA1
0D630:  MOVLW  7F
0D632:  MOVWF  xA0
0D634:  MOVLB  0
0D636:  CALL   1E96
0D63A:  MOVFF  03,25D
0D63E:  MOVFF  02,25C
0D642:  MOVFF  01,25B
0D646:  MOVFF  00,25A
....................                RX_Buffer[4]=0x00; 
0D64A:  CLRF   35
....................                RX_Buffer2[4]=0x00;             
0D64C:  CLRF   40
....................                //BorraBuffer(); 
....................          } 
....................       }else if(Opcion2==9){ 
0D64E:  BRA    DB5E
0D650:  MOVF   xBF,W
0D652:  SUBLW  09
0D654:  BTFSS  FD8.2
0D656:  BRA    D800
....................          printf("Config.t2c.txt=\"Limite PDownFlow\""); 
0D658:  MOVLW  90
0D65A:  MOVWF  FF6
0D65C:  MOVLW  13
0D65E:  MOVWF  FF7
0D660:  MOVLW  00
0D662:  MOVWF  FF8
0D664:  CALL   1E2E
....................          SendDataDisplay();       
0D668:  CALL   1E60
....................          printf("t3c.txt=\"%2.1f\"",Presion[4].Ajuste); 
0D66C:  MOVLW  B2
0D66E:  MOVWF  FF6
0D670:  MOVLW  13
0D672:  MOVWF  FF7
0D674:  MOVLW  00
0D676:  MOVWF  FF8
0D678:  MOVLW  09
0D67A:  MOVLB  7
0D67C:  MOVWF  x5C
0D67E:  MOVLB  0
0D680:  CALL   71A4
0D684:  MOVLW  01
0D686:  MOVWF  FE9
0D688:  MOVFF  6F3,75D
0D68C:  MOVFF  6F2,75C
0D690:  MOVFF  6F1,75B
0D694:  MOVFF  6F0,75A
0D698:  MOVLB  7
0D69A:  MOVWF  x5E
0D69C:  MOVLB  0
0D69E:  CALL   7BA0
0D6A2:  MOVLW  22
0D6A4:  BTFSS  F9E.4
0D6A6:  BRA    D6A4
0D6A8:  MOVWF  FAD
....................          //printf("t3c.txt=\"%2.1f\"",Ajustedn); 
....................          SendDataDisplay(); 
0D6AA:  CALL   1E60
....................          if(RX_Buffer[4]==0x0a || UP){//Tecla Arriba Oprimida             
0D6AE:  MOVF   35,W
0D6B0:  SUBLW  0A
0D6B2:  BZ    D6B8
0D6B4:  BTFSS  x7F.3
0D6B6:  BRA    D71C
....................                UP=OFF; 
0D6B8:  BCF    x7F.3
....................                if(Presion[4].Ajuste<2.0) 
0D6BA:  MOVFF  6F3,79B
0D6BE:  MOVFF  6F2,79A
0D6C2:  MOVFF  6F1,799
0D6C6:  MOVFF  6F0,798
0D6CA:  MOVLB  7
0D6CC:  CLRF   x9F
0D6CE:  CLRF   x9E
0D6D0:  CLRF   x9D
0D6D2:  MOVLW  80
0D6D4:  MOVWF  x9C
0D6D6:  MOVLB  0
0D6D8:  CALL   2F26
0D6DC:  BNC   D718
....................                   Presion[4].Ajuste+=0.1; 
0D6DE:  BCF    FD8.1
0D6E0:  MOVFF  6F3,79F
0D6E4:  MOVFF  6F2,79E
0D6E8:  MOVFF  6F1,79D
0D6EC:  MOVFF  6F0,79C
0D6F0:  MOVLW  CD
0D6F2:  MOVLB  7
0D6F4:  MOVWF  xA3
0D6F6:  MOVLW  CC
0D6F8:  MOVWF  xA2
0D6FA:  MOVLW  4C
0D6FC:  MOVWF  xA1
0D6FE:  MOVLW  7B
0D700:  MOVWF  xA0
0D702:  MOVLB  0
0D704:  CALL   1E96
0D708:  MOVFF  03,6F3
0D70C:  MOVFF  02,6F2
0D710:  MOVFF  01,6F1
0D714:  MOVFF  00,6F0
....................                //if(Ajustedn<5.0) 
....................                //   Ajustedn+=0.1; 
....................                RX_Buffer[4]=0x00;   
0D718:  CLRF   35
....................                RX_Buffer2[4]=0x00;             
0D71A:  CLRF   40
....................          } 
....................              
....................          if(RX_Buffer[4]==0x0b || DOWN){//Tecla Abajo Oprimida 
0D71C:  MOVF   35,W
0D71E:  SUBLW  0B
0D720:  BZ    D726
0D722:  BTFSS  x7F.4
0D724:  BRA    D790
....................                DOWN=OFF; 
0D726:  BCF    x7F.4
....................                if(Presion[4].Ajuste>0.1) 
0D728:  MOVLW  CD
0D72A:  MOVLB  7
0D72C:  MOVWF  x9B
0D72E:  MOVLW  CC
0D730:  MOVWF  x9A
0D732:  MOVLW  4C
0D734:  MOVWF  x99
0D736:  MOVLW  7B
0D738:  MOVWF  x98
0D73A:  MOVFF  6F3,79F
0D73E:  MOVFF  6F2,79E
0D742:  MOVFF  6F1,79D
0D746:  MOVFF  6F0,79C
0D74A:  MOVLB  0
0D74C:  CALL   2F26
0D750:  BNC   D78C
....................                   Presion[4].Ajuste-=0.1; 
0D752:  BSF    FD8.1
0D754:  MOVFF  6F3,79F
0D758:  MOVFF  6F2,79E
0D75C:  MOVFF  6F1,79D
0D760:  MOVFF  6F0,79C
0D764:  MOVLW  CD
0D766:  MOVLB  7
0D768:  MOVWF  xA3
0D76A:  MOVLW  CC
0D76C:  MOVWF  xA2
0D76E:  MOVLW  4C
0D770:  MOVWF  xA1
0D772:  MOVLW  7B
0D774:  MOVWF  xA0
0D776:  MOVLB  0
0D778:  CALL   1E96
0D77C:  MOVFF  03,6F3
0D780:  MOVFF  02,6F2
0D784:  MOVFF  01,6F1
0D788:  MOVFF  00,6F0
....................                //if(Ajustedn>0.0) 
....................                //   Ajustedn-=0.1; 
....................                RX_Buffer[4]=0x00; 
0D78C:  CLRF   35
....................                RX_Buffer2[4]=0x00;             
0D78E:  CLRF   40
....................          } 
....................          if(Presion[4].Ajuste>2.0) 
0D790:  MOVLB  7
0D792:  CLRF   x9B
0D794:  CLRF   x9A
0D796:  CLRF   x99
0D798:  MOVLW  80
0D79A:  MOVWF  x98
0D79C:  MOVFF  6F3,79F
0D7A0:  MOVFF  6F2,79E
0D7A4:  MOVFF  6F1,79D
0D7A8:  MOVFF  6F0,79C
0D7AC:  MOVLB  0
0D7AE:  CALL   2F26
0D7B2:  BNC   D7C6
....................             Presion[4].Ajuste=0.1; 
0D7B4:  MOVLW  CD
0D7B6:  MOVLB  6
0D7B8:  MOVWF  xF3
0D7BA:  MOVLW  CC
0D7BC:  MOVWF  xF2
0D7BE:  MOVLW  4C
0D7C0:  MOVWF  xF1
0D7C2:  MOVLW  7B
0D7C4:  MOVWF  xF0
....................          if(Presion[4].Ajuste<0.1) 
0D7C6:  MOVFF  6F3,79B
0D7CA:  MOVFF  6F2,79A
0D7CE:  MOVFF  6F1,799
0D7D2:  MOVFF  6F0,798
0D7D6:  MOVLW  CD
0D7D8:  MOVLB  7
0D7DA:  MOVWF  x9F
0D7DC:  MOVLW  CC
0D7DE:  MOVWF  x9E
0D7E0:  MOVLW  4C
0D7E2:  MOVWF  x9D
0D7E4:  MOVLW  7B
0D7E6:  MOVWF  x9C
0D7E8:  MOVLB  0
0D7EA:  CALL   2F26
0D7EE:  BNC   D7FE
....................             Presion[4].Ajuste=2.0;    
0D7F0:  MOVLB  6
0D7F2:  CLRF   xF3
0D7F4:  CLRF   xF2
0D7F6:  CLRF   xF1
0D7F8:  MOVLW  80
0D7FA:  MOVWF  xF0
0D7FC:  MOVLB  0
....................       }else if(Opcion2==10){ 
0D7FE:  BRA    DB5E
0D800:  MOVF   xBF,W
0D802:  SUBLW  0A
0D804:  BTFSS  FD8.2
0D806:  BRA    D9B0
....................          printf("Config.t2c.txt=\"Limite P Pre-Fil\""); 
0D808:  MOVLW  C2
0D80A:  MOVWF  FF6
0D80C:  MOVLW  13
0D80E:  MOVWF  FF7
0D810:  MOVLW  00
0D812:  MOVWF  FF8
0D814:  CALL   1E2E
....................          SendDataDisplay();       
0D818:  CALL   1E60
....................          printf("t3c.txt=\"%2.1f\"",Presion[3].Ajuste); 
0D81C:  MOVLW  E4
0D81E:  MOVWF  FF6
0D820:  MOVLW  13
0D822:  MOVWF  FF7
0D824:  MOVLW  00
0D826:  MOVWF  FF8
0D828:  MOVLW  09
0D82A:  MOVLB  7
0D82C:  MOVWF  x5C
0D82E:  MOVLB  0
0D830:  CALL   71A4
0D834:  MOVLW  01
0D836:  MOVWF  FE9
0D838:  MOVFF  683,75D
0D83C:  MOVFF  682,75C
0D840:  MOVFF  681,75B
0D844:  MOVFF  680,75A
0D848:  MOVLB  7
0D84A:  MOVWF  x5E
0D84C:  MOVLB  0
0D84E:  CALL   7BA0
0D852:  MOVLW  22
0D854:  BTFSS  F9E.4
0D856:  BRA    D854
0D858:  MOVWF  FAD
....................          SendDataDisplay(); 
0D85A:  CALL   1E60
....................          if(RX_Buffer[4]==0x0a || UP){//Tecla Arriba Oprimida             
0D85E:  MOVF   35,W
0D860:  SUBLW  0A
0D862:  BZ    D868
0D864:  BTFSS  x7F.3
0D866:  BRA    D8CC
....................                UP=OFF; 
0D868:  BCF    x7F.3
....................                if(Presion[3].Ajuste<4.0) 
0D86A:  MOVFF  683,79B
0D86E:  MOVFF  682,79A
0D872:  MOVFF  681,799
0D876:  MOVFF  680,798
0D87A:  MOVLB  7
0D87C:  CLRF   x9F
0D87E:  CLRF   x9E
0D880:  CLRF   x9D
0D882:  MOVLW  81
0D884:  MOVWF  x9C
0D886:  MOVLB  0
0D888:  CALL   2F26
0D88C:  BNC   D8C8
....................                   Presion[3].Ajuste+=0.1; 
0D88E:  BCF    FD8.1
0D890:  MOVFF  683,79F
0D894:  MOVFF  682,79E
0D898:  MOVFF  681,79D
0D89C:  MOVFF  680,79C
0D8A0:  MOVLW  CD
0D8A2:  MOVLB  7
0D8A4:  MOVWF  xA3
0D8A6:  MOVLW  CC
0D8A8:  MOVWF  xA2
0D8AA:  MOVLW  4C
0D8AC:  MOVWF  xA1
0D8AE:  MOVLW  7B
0D8B0:  MOVWF  xA0
0D8B2:  MOVLB  0
0D8B4:  CALL   1E96
0D8B8:  MOVFF  03,683
0D8BC:  MOVFF  02,682
0D8C0:  MOVFF  01,681
0D8C4:  MOVFF  00,680
....................                RX_Buffer[4]=0x00;   
0D8C8:  CLRF   35
....................                RX_Buffer2[4]=0x00;             
0D8CA:  CLRF   40
....................          } 
....................              
....................          if(RX_Buffer[4]==0x0b || DOWN){//Tecla Abajo Oprimida 
0D8CC:  MOVF   35,W
0D8CE:  SUBLW  0B
0D8D0:  BZ    D8D6
0D8D2:  BTFSS  x7F.4
0D8D4:  BRA    D940
....................                DOWN=OFF; 
0D8D6:  BCF    x7F.4
....................                if(Presion[3].Ajuste>0.1) 
0D8D8:  MOVLW  CD
0D8DA:  MOVLB  7
0D8DC:  MOVWF  x9B
0D8DE:  MOVLW  CC
0D8E0:  MOVWF  x9A
0D8E2:  MOVLW  4C
0D8E4:  MOVWF  x99
0D8E6:  MOVLW  7B
0D8E8:  MOVWF  x98
0D8EA:  MOVFF  683,79F
0D8EE:  MOVFF  682,79E
0D8F2:  MOVFF  681,79D
0D8F6:  MOVFF  680,79C
0D8FA:  MOVLB  0
0D8FC:  CALL   2F26
0D900:  BNC   D93C
....................                   Presion[3].Ajuste-=0.1; 
0D902:  BSF    FD8.1
0D904:  MOVFF  683,79F
0D908:  MOVFF  682,79E
0D90C:  MOVFF  681,79D
0D910:  MOVFF  680,79C
0D914:  MOVLW  CD
0D916:  MOVLB  7
0D918:  MOVWF  xA3
0D91A:  MOVLW  CC
0D91C:  MOVWF  xA2
0D91E:  MOVLW  4C
0D920:  MOVWF  xA1
0D922:  MOVLW  7B
0D924:  MOVWF  xA0
0D926:  MOVLB  0
0D928:  CALL   1E96
0D92C:  MOVFF  03,683
0D930:  MOVFF  02,682
0D934:  MOVFF  01,681
0D938:  MOVFF  00,680
....................                RX_Buffer[4]=0x00; 
0D93C:  CLRF   35
....................                RX_Buffer2[4]=0x00;             
0D93E:  CLRF   40
....................          } 
....................          if(Presion[3].Ajuste>4.0) 
0D940:  MOVLB  7
0D942:  CLRF   x9B
0D944:  CLRF   x9A
0D946:  CLRF   x99
0D948:  MOVLW  81
0D94A:  MOVWF  x98
0D94C:  MOVFF  683,79F
0D950:  MOVFF  682,79E
0D954:  MOVFF  681,79D
0D958:  MOVFF  680,79C
0D95C:  MOVLB  0
0D95E:  CALL   2F26
0D962:  BNC   D976
....................             Presion[3].Ajuste=0.1; 
0D964:  MOVLW  CD
0D966:  MOVLB  6
0D968:  MOVWF  x83
0D96A:  MOVLW  CC
0D96C:  MOVWF  x82
0D96E:  MOVLW  4C
0D970:  MOVWF  x81
0D972:  MOVLW  7B
0D974:  MOVWF  x80
....................          if(Presion[3].Ajuste<0.1) 
0D976:  MOVFF  683,79B
0D97A:  MOVFF  682,79A
0D97E:  MOVFF  681,799
0D982:  MOVFF  680,798
0D986:  MOVLW  CD
0D988:  MOVLB  7
0D98A:  MOVWF  x9F
0D98C:  MOVLW  CC
0D98E:  MOVWF  x9E
0D990:  MOVLW  4C
0D992:  MOVWF  x9D
0D994:  MOVLW  7B
0D996:  MOVWF  x9C
0D998:  MOVLB  0
0D99A:  CALL   2F26
0D99E:  BNC   D9AE
....................             Presion[3].Ajuste=4.0; 
0D9A0:  MOVLB  6
0D9A2:  CLRF   x83
0D9A4:  CLRF   x82
0D9A6:  CLRF   x81
0D9A8:  MOVLW  81
0D9AA:  MOVWF  x80
0D9AC:  MOVLB  0
....................       }else if(Opcion2==11){ 
0D9AE:  BRA    DB5E
0D9B0:  MOVF   xBF,W
0D9B2:  SUBLW  0B
0D9B4:  BTFSS  FD8.2
0D9B6:  BRA    DB5E
....................          printf("Config.t2c.txt=\"Ajuste P Downflow\""); 
0D9B8:  MOVLW  F4
0D9BA:  MOVWF  FF6
0D9BC:  MOVLW  13
0D9BE:  MOVWF  FF7
0D9C0:  MOVLW  00
0D9C2:  MOVWF  FF8
0D9C4:  CALL   1E2E
....................          SendDataDisplay();       
0D9C8:  CALL   1E60
....................          printf("t3c.txt=\"%2.1f\"",Presion[4].AjustePresion); 
0D9CC:  MOVLW  18
0D9CE:  MOVWF  FF6
0D9D0:  MOVLW  14
0D9D2:  MOVWF  FF7
0D9D4:  MOVLW  00
0D9D6:  MOVWF  FF8
0D9D8:  MOVLW  09
0D9DA:  MOVLB  7
0D9DC:  MOVWF  x5C
0D9DE:  MOVLB  0
0D9E0:  CALL   71A4
0D9E4:  MOVLW  01
0D9E6:  MOVWF  FE9
0D9E8:  MOVFF  6F7,75D
0D9EC:  MOVFF  6F6,75C
0D9F0:  MOVFF  6F5,75B
0D9F4:  MOVFF  6F4,75A
0D9F8:  MOVLB  7
0D9FA:  MOVWF  x5E
0D9FC:  MOVLB  0
0D9FE:  CALL   7BA0
0DA02:  MOVLW  22
0DA04:  BTFSS  F9E.4
0DA06:  BRA    DA04
0DA08:  MOVWF  FAD
....................          SendDataDisplay(); 
0DA0A:  CALL   1E60
....................          if(RX_Buffer[4]==0x0a || UP){//Tecla Arriba Oprimida             
0DA0E:  MOVF   35,W
0DA10:  SUBLW  0A
0DA12:  BZ    DA18
0DA14:  BTFSS  x7F.3
0DA16:  BRA    DA7C
....................                UP=OFF; 
0DA18:  BCF    x7F.3
....................                if(Presion[4].AjustePresion<4.0) 
0DA1A:  MOVFF  6F7,79B
0DA1E:  MOVFF  6F6,79A
0DA22:  MOVFF  6F5,799
0DA26:  MOVFF  6F4,798
0DA2A:  MOVLB  7
0DA2C:  CLRF   x9F
0DA2E:  CLRF   x9E
0DA30:  CLRF   x9D
0DA32:  MOVLW  81
0DA34:  MOVWF  x9C
0DA36:  MOVLB  0
0DA38:  CALL   2F26
0DA3C:  BNC   DA78
....................                   Presion[4].AjustePresion+=0.1; 
0DA3E:  BCF    FD8.1
0DA40:  MOVFF  6F7,79F
0DA44:  MOVFF  6F6,79E
0DA48:  MOVFF  6F5,79D
0DA4C:  MOVFF  6F4,79C
0DA50:  MOVLW  CD
0DA52:  MOVLB  7
0DA54:  MOVWF  xA3
0DA56:  MOVLW  CC
0DA58:  MOVWF  xA2
0DA5A:  MOVLW  4C
0DA5C:  MOVWF  xA1
0DA5E:  MOVLW  7B
0DA60:  MOVWF  xA0
0DA62:  MOVLB  0
0DA64:  CALL   1E96
0DA68:  MOVFF  03,6F7
0DA6C:  MOVFF  02,6F6
0DA70:  MOVFF  01,6F5
0DA74:  MOVFF  00,6F4
....................                RX_Buffer[4]=0x00;   
0DA78:  CLRF   35
....................                RX_Buffer2[4]=0x00;             
0DA7A:  CLRF   40
....................          } 
....................              
....................          if(RX_Buffer[4]==0x0b || DOWN){//Tecla Abajo Oprimida 
0DA7C:  MOVF   35,W
0DA7E:  SUBLW  0B
0DA80:  BZ    DA86
0DA82:  BTFSS  x7F.4
0DA84:  BRA    DAF0
....................                DOWN=OFF; 
0DA86:  BCF    x7F.4
....................                if(Presion[4].AjustePresion>0.1) 
0DA88:  MOVLW  CD
0DA8A:  MOVLB  7
0DA8C:  MOVWF  x9B
0DA8E:  MOVLW  CC
0DA90:  MOVWF  x9A
0DA92:  MOVLW  4C
0DA94:  MOVWF  x99
0DA96:  MOVLW  7B
0DA98:  MOVWF  x98
0DA9A:  MOVFF  6F7,79F
0DA9E:  MOVFF  6F6,79E
0DAA2:  MOVFF  6F5,79D
0DAA6:  MOVFF  6F4,79C
0DAAA:  MOVLB  0
0DAAC:  CALL   2F26
0DAB0:  BNC   DAEC
....................                   Presion[4].AjustePresion-=0.1; 
0DAB2:  BSF    FD8.1
0DAB4:  MOVFF  6F7,79F
0DAB8:  MOVFF  6F6,79E
0DABC:  MOVFF  6F5,79D
0DAC0:  MOVFF  6F4,79C
0DAC4:  MOVLW  CD
0DAC6:  MOVLB  7
0DAC8:  MOVWF  xA3
0DACA:  MOVLW  CC
0DACC:  MOVWF  xA2
0DACE:  MOVLW  4C
0DAD0:  MOVWF  xA1
0DAD2:  MOVLW  7B
0DAD4:  MOVWF  xA0
0DAD6:  MOVLB  0
0DAD8:  CALL   1E96
0DADC:  MOVFF  03,6F7
0DAE0:  MOVFF  02,6F6
0DAE4:  MOVFF  01,6F5
0DAE8:  MOVFF  00,6F4
....................                RX_Buffer[4]=0x00; 
0DAEC:  CLRF   35
....................                RX_Buffer2[4]=0x00;             
0DAEE:  CLRF   40
....................          } 
....................          if(Presion[4].AjustePresion>4.0) 
0DAF0:  MOVLB  7
0DAF2:  CLRF   x9B
0DAF4:  CLRF   x9A
0DAF6:  CLRF   x99
0DAF8:  MOVLW  81
0DAFA:  MOVWF  x98
0DAFC:  MOVFF  6F7,79F
0DB00:  MOVFF  6F6,79E
0DB04:  MOVFF  6F5,79D
0DB08:  MOVFF  6F4,79C
0DB0C:  MOVLB  0
0DB0E:  CALL   2F26
0DB12:  BNC   DB26
....................             Presion[4].AjustePresion=0.1; 
0DB14:  MOVLW  CD
0DB16:  MOVLB  6
0DB18:  MOVWF  xF7
0DB1A:  MOVLW  CC
0DB1C:  MOVWF  xF6
0DB1E:  MOVLW  4C
0DB20:  MOVWF  xF5
0DB22:  MOVLW  7B
0DB24:  MOVWF  xF4
....................          if(Presion[4].AjustePresion<0.1) 
0DB26:  MOVFF  6F7,79B
0DB2A:  MOVFF  6F6,79A
0DB2E:  MOVFF  6F5,799
0DB32:  MOVFF  6F4,798
0DB36:  MOVLW  CD
0DB38:  MOVLB  7
0DB3A:  MOVWF  x9F
0DB3C:  MOVLW  CC
0DB3E:  MOVWF  x9E
0DB40:  MOVLW  4C
0DB42:  MOVWF  x9D
0DB44:  MOVLW  7B
0DB46:  MOVWF  x9C
0DB48:  MOVLB  0
0DB4A:  CALL   2F26
0DB4E:  BNC   DB5E
....................             Presion[4].AjustePresion=4.0; 
0DB50:  MOVLB  6
0DB52:  CLRF   xF7
0DB54:  CLRF   xF6
0DB56:  CLRF   xF5
0DB58:  MOVLW  81
0DB5A:  MOVWF  xF4
0DB5C:  MOVLB  0
....................       } 
....................        
....................       if(RX_Buffer[4]==0x0c){//Tecla Izquierda Oprimida 
0DB5E:  MOVF   35,W
0DB60:  SUBLW  0C
0DB62:  BNZ   DB6A
....................             Opcion2++; 
0DB64:  INCF   xBF,F
....................             RX_Buffer[4]=0x00;   
0DB66:  CLRF   35
....................             RX_Buffer2[4]=0x00;             
0DB68:  CLRF   40
....................             //BorraBuffer();    
....................       } 
....................           
....................       if(RX_Buffer[4]==0x0d || RIGHT){//Tecla Derecha Oprimida          
0DB6A:  MOVF   35,W
0DB6C:  SUBLW  0D
0DB6E:  BZ    DB74
0DB70:  BTFSS  x7F.5
0DB72:  BRA    DB7C
....................             Opcion2--; 
0DB74:  DECF   xBF,F
....................             RX_Buffer[4]=0x00; 
0DB76:  CLRF   35
....................             RX_Buffer2[4]=0x00;             
0DB78:  CLRF   40
....................             RIGHT=OFF; 
0DB7A:  BCF    x7F.5
....................             //BorraBuffer(); 
....................       } 
....................        
....................       if(RX_Buffer[4]==0x11 || LEFT){//Tecla Regresar 
0DB7C:  MOVF   35,W
0DB7E:  SUBLW  11
0DB80:  BZ    DB86
0DB82:  BTFSS  x7F.6
0DB84:  BRA    E2F2
....................          delay_ms(20); 
0DB86:  MOVLW  14
0DB88:  MOVLB  7
0DB8A:  MOVWF  x6C
0DB8C:  MOVLB  0
0DB8E:  CALL   15AA
....................          if(RX_Buffer[4]==0x11 || LEFT){ 
0DB92:  MOVF   35,W
0DB94:  SUBLW  11
0DB96:  BZ    DB9C
0DB98:  BTFSS  x7F.6
0DB9A:  BRA    E2F2
....................             LEFT=OFF; 
0DB9C:  BCF    x7F.6
....................             if(!GuardaEEPROM){ 
0DB9E:  BTFSC  x7E.3
0DBA0:  BRA    E2D2
....................                                
....................                write_eeprom(25,velocidadInicial); 
0DBA2:  CLRF   FAA
0DBA4:  MOVLW  19
0DBA6:  MOVWF  FA9
0DBA8:  MOVFF  B0,FA8
0DBAC:  BCF    FA6.6
0DBAE:  BCF    FA6.7
0DBB0:  BSF    FA6.2
0DBB2:  MOVF   FF2,W
0DBB4:  MOVWF  00
0DBB6:  BCF    FF2.6
0DBB8:  BCF    FF2.7
0DBBA:  MOVLB  F
0DBBC:  MOVLW  55
0DBBE:  MOVWF  FA7
0DBC0:  MOVLW  AA
0DBC2:  MOVWF  FA7
0DBC4:  BSF    FA6.1
0DBC6:  BTFSC  FA6.1
0DBC8:  BRA    DBC6
0DBCA:  BCF    FA6.2
0DBCC:  MOVF   00,W
0DBCE:  IORWF  FF2,F
....................                delay_ms(20); 
0DBD0:  MOVLW  14
0DBD2:  MOVLB  7
0DBD4:  MOVWF  x6C
0DBD6:  MOVLB  0
0DBD8:  CALL   15AA
....................                 
....................                Temporal=Presion[4].Ajuste; 
0DBDC:  MOVFF  6F3,119
0DBE0:  MOVFF  6F2,118
0DBE4:  MOVFF  6F1,117
0DBE8:  MOVFF  6F0,116
....................                Entero=(int)Presion[4].Ajuste; 
0DBEC:  MOVFF  6F3,79B
0DBF0:  MOVFF  6F2,79A
0DBF4:  MOVFF  6F1,799
0DBF8:  MOVFF  6F0,798
0DBFC:  CALL   1B14
0DC00:  MOVFF  01,8B
....................                Temporal=Temporal-Entero; 
0DC04:  MOVLB  7
0DC06:  CLRF   x9D
0DC08:  MOVFF  8B,79C
0DC0C:  MOVLB  0
0DC0E:  CALL   188A
0DC12:  BSF    FD8.1
0DC14:  MOVFF  119,79F
0DC18:  MOVFF  118,79E
0DC1C:  MOVFF  117,79D
0DC20:  MOVFF  116,79C
0DC24:  MOVFF  03,7A3
0DC28:  MOVFF  02,7A2
0DC2C:  MOVFF  01,7A1
0DC30:  MOVFF  00,7A0
0DC34:  CALL   1E96
0DC38:  MOVFF  03,119
0DC3C:  MOVFF  02,118
0DC40:  MOVFF  01,117
0DC44:  MOVFF  00,116
....................                Temporal2=Temporal*10.0; 
0DC48:  MOVFF  119,79B
0DC4C:  MOVFF  118,79A
0DC50:  MOVFF  117,799
0DC54:  MOVFF  116,798
0DC58:  MOVLB  7
0DC5A:  CLRF   x9F
0DC5C:  CLRF   x9E
0DC5E:  MOVLW  20
0DC60:  MOVWF  x9D
0DC62:  MOVLW  82
0DC64:  MOVWF  x9C
0DC66:  MOVLB  0
0DC68:  CALL   1A1E
0DC6C:  MOVFF  03,11D
0DC70:  MOVFF  02,11C
0DC74:  MOVFF  01,11B
0DC78:  MOVFF  00,11A
....................                Decimal1=(int8)Temporal2; 
0DC7C:  MOVFF  11D,79B
0DC80:  MOVFF  11C,79A
0DC84:  MOVFF  11B,799
0DC88:  MOVFF  11A,798
0DC8C:  CALL   1B14
0DC90:  MOVFF  01,8C
....................                write_eeprom(29,Entero); 
0DC94:  CLRF   FAA
0DC96:  MOVLW  1D
0DC98:  MOVWF  FA9
0DC9A:  MOVFF  8B,FA8
0DC9E:  BCF    FA6.6
0DCA0:  BCF    FA6.7
0DCA2:  BSF    FA6.2
0DCA4:  MOVF   FF2,W
0DCA6:  MOVWF  00
0DCA8:  BCF    FF2.6
0DCAA:  BCF    FF2.7
0DCAC:  MOVLB  F
0DCAE:  MOVLW  55
0DCB0:  MOVWF  FA7
0DCB2:  MOVLW  AA
0DCB4:  MOVWF  FA7
0DCB6:  BSF    FA6.1
0DCB8:  BTFSC  FA6.1
0DCBA:  BRA    DCB8
0DCBC:  BCF    FA6.2
0DCBE:  MOVF   00,W
0DCC0:  IORWF  FF2,F
....................                delay_ms(20); 
0DCC2:  MOVLW  14
0DCC4:  MOVLB  7
0DCC6:  MOVWF  x6C
0DCC8:  MOVLB  0
0DCCA:  CALL   15AA
....................                write_eeprom(30,Decimal1); 
0DCCE:  CLRF   FAA
0DCD0:  MOVLW  1E
0DCD2:  MOVWF  FA9
0DCD4:  MOVFF  8C,FA8
0DCD8:  BCF    FA6.6
0DCDA:  BCF    FA6.7
0DCDC:  BSF    FA6.2
0DCDE:  MOVF   FF2,W
0DCE0:  MOVWF  00
0DCE2:  BCF    FF2.6
0DCE4:  BCF    FF2.7
0DCE6:  MOVLB  F
0DCE8:  MOVLW  55
0DCEA:  MOVWF  FA7
0DCEC:  MOVLW  AA
0DCEE:  MOVWF  FA7
0DCF0:  BSF    FA6.1
0DCF2:  BTFSC  FA6.1
0DCF4:  BRA    DCF2
0DCF6:  BCF    FA6.2
0DCF8:  MOVF   00,W
0DCFA:  IORWF  FF2,F
....................                delay_ms(20); 
0DCFC:  MOVLW  14
0DCFE:  MOVLB  7
0DD00:  MOVWF  x6C
0DD02:  MOVLB  0
0DD04:  CALL   15AA
....................                 
....................                Temporal=Presion[3].Ajuste; 
0DD08:  MOVFF  683,119
0DD0C:  MOVFF  682,118
0DD10:  MOVFF  681,117
0DD14:  MOVFF  680,116
....................                Entero=(int)Presion[3].Ajuste; 
0DD18:  MOVFF  683,79B
0DD1C:  MOVFF  682,79A
0DD20:  MOVFF  681,799
0DD24:  MOVFF  680,798
0DD28:  CALL   1B14
0DD2C:  MOVFF  01,8B
....................                Temporal=Temporal-Entero; 
0DD30:  MOVLB  7
0DD32:  CLRF   x9D
0DD34:  MOVFF  8B,79C
0DD38:  MOVLB  0
0DD3A:  CALL   188A
0DD3E:  BSF    FD8.1
0DD40:  MOVFF  119,79F
0DD44:  MOVFF  118,79E
0DD48:  MOVFF  117,79D
0DD4C:  MOVFF  116,79C
0DD50:  MOVFF  03,7A3
0DD54:  MOVFF  02,7A2
0DD58:  MOVFF  01,7A1
0DD5C:  MOVFF  00,7A0
0DD60:  CALL   1E96
0DD64:  MOVFF  03,119
0DD68:  MOVFF  02,118
0DD6C:  MOVFF  01,117
0DD70:  MOVFF  00,116
....................                Temporal2=Temporal*10.0; 
0DD74:  MOVFF  119,79B
0DD78:  MOVFF  118,79A
0DD7C:  MOVFF  117,799
0DD80:  MOVFF  116,798
0DD84:  MOVLB  7
0DD86:  CLRF   x9F
0DD88:  CLRF   x9E
0DD8A:  MOVLW  20
0DD8C:  MOVWF  x9D
0DD8E:  MOVLW  82
0DD90:  MOVWF  x9C
0DD92:  MOVLB  0
0DD94:  CALL   1A1E
0DD98:  MOVFF  03,11D
0DD9C:  MOVFF  02,11C
0DDA0:  MOVFF  01,11B
0DDA4:  MOVFF  00,11A
....................                Decimal1=(int8)Temporal2; 
0DDA8:  MOVFF  11D,79B
0DDAC:  MOVFF  11C,79A
0DDB0:  MOVFF  11B,799
0DDB4:  MOVFF  11A,798
0DDB8:  CALL   1B14
0DDBC:  MOVFF  01,8C
....................                write_eeprom(31,Entero); 
0DDC0:  CLRF   FAA
0DDC2:  MOVLW  1F
0DDC4:  MOVWF  FA9
0DDC6:  MOVFF  8B,FA8
0DDCA:  BCF    FA6.6
0DDCC:  BCF    FA6.7
0DDCE:  BSF    FA6.2
0DDD0:  MOVF   FF2,W
0DDD2:  MOVWF  00
0DDD4:  BCF    FF2.6
0DDD6:  BCF    FF2.7
0DDD8:  MOVLB  F
0DDDA:  MOVLW  55
0DDDC:  MOVWF  FA7
0DDDE:  MOVLW  AA
0DDE0:  MOVWF  FA7
0DDE2:  BSF    FA6.1
0DDE4:  BTFSC  FA6.1
0DDE6:  BRA    DDE4
0DDE8:  BCF    FA6.2
0DDEA:  MOVF   00,W
0DDEC:  IORWF  FF2,F
....................                delay_ms(20); 
0DDEE:  MOVLW  14
0DDF0:  MOVLB  7
0DDF2:  MOVWF  x6C
0DDF4:  MOVLB  0
0DDF6:  CALL   15AA
....................                write_eeprom(32,Decimal1); 
0DDFA:  CLRF   FAA
0DDFC:  MOVLW  20
0DDFE:  MOVWF  FA9
0DE00:  MOVFF  8C,FA8
0DE04:  BCF    FA6.6
0DE06:  BCF    FA6.7
0DE08:  BSF    FA6.2
0DE0A:  MOVF   FF2,W
0DE0C:  MOVWF  00
0DE0E:  BCF    FF2.6
0DE10:  BCF    FF2.7
0DE12:  MOVLB  F
0DE14:  MOVLW  55
0DE16:  MOVWF  FA7
0DE18:  MOVLW  AA
0DE1A:  MOVWF  FA7
0DE1C:  BSF    FA6.1
0DE1E:  BTFSC  FA6.1
0DE20:  BRA    DE1E
0DE22:  BCF    FA6.2
0DE24:  MOVF   00,W
0DE26:  IORWF  FF2,F
....................                delay_ms(20); 
0DE28:  MOVLW  14
0DE2A:  MOVLB  7
0DE2C:  MOVWF  x6C
0DE2E:  MOVLB  0
0DE30:  CALL   15AA
....................                write_eeprom(40,Vel1); 
0DE34:  CLRF   FAA
0DE36:  MOVLW  28
0DE38:  MOVWF  FA9
0DE3A:  MOVFF  90,FA8
0DE3E:  BCF    FA6.6
0DE40:  BCF    FA6.7
0DE42:  BSF    FA6.2
0DE44:  MOVF   FF2,W
0DE46:  MOVWF  00
0DE48:  BCF    FF2.6
0DE4A:  BCF    FF2.7
0DE4C:  MOVLB  F
0DE4E:  MOVLW  55
0DE50:  MOVWF  FA7
0DE52:  MOVLW  AA
0DE54:  MOVWF  FA7
0DE56:  BSF    FA6.1
0DE58:  BTFSC  FA6.1
0DE5A:  BRA    DE58
0DE5C:  BCF    FA6.2
0DE5E:  MOVF   00,W
0DE60:  IORWF  FF2,F
....................                delay_ms(20); 
0DE62:  MOVLW  14
0DE64:  MOVLB  7
0DE66:  MOVWF  x6C
0DE68:  MOVLB  0
0DE6A:  CALL   15AA
....................                write_eeprom(41,Vel2); 
0DE6E:  CLRF   FAA
0DE70:  MOVLW  29
0DE72:  MOVWF  FA9
0DE74:  MOVFF  91,FA8
0DE78:  BCF    FA6.6
0DE7A:  BCF    FA6.7
0DE7C:  BSF    FA6.2
0DE7E:  MOVF   FF2,W
0DE80:  MOVWF  00
0DE82:  BCF    FF2.6
0DE84:  BCF    FF2.7
0DE86:  MOVLB  F
0DE88:  MOVLW  55
0DE8A:  MOVWF  FA7
0DE8C:  MOVLW  AA
0DE8E:  MOVWF  FA7
0DE90:  BSF    FA6.1
0DE92:  BTFSC  FA6.1
0DE94:  BRA    DE92
0DE96:  BCF    FA6.2
0DE98:  MOVF   00,W
0DE9A:  IORWF  FF2,F
....................                delay_ms(20); 
0DE9C:  MOVLW  14
0DE9E:  MOVLB  7
0DEA0:  MOVWF  x6C
0DEA2:  MOVLB  0
0DEA4:  CALL   15AA
....................                 
....................                Temporal=pInDn; 
0DEA8:  MOVFF  131,119
0DEAC:  MOVFF  130,118
0DEB0:  MOVFF  12F,117
0DEB4:  MOVFF  12E,116
....................                Entero=(int)pInDn; 
0DEB8:  MOVFF  131,79B
0DEBC:  MOVFF  130,79A
0DEC0:  MOVFF  12F,799
0DEC4:  MOVFF  12E,798
0DEC8:  CALL   1B14
0DECC:  MOVFF  01,8B
....................                Temporal=Temporal-Entero; 
0DED0:  MOVLB  7
0DED2:  CLRF   x9D
0DED4:  MOVFF  8B,79C
0DED8:  MOVLB  0
0DEDA:  CALL   188A
0DEDE:  BSF    FD8.1
0DEE0:  MOVFF  119,79F
0DEE4:  MOVFF  118,79E
0DEE8:  MOVFF  117,79D
0DEEC:  MOVFF  116,79C
0DEF0:  MOVFF  03,7A3
0DEF4:  MOVFF  02,7A2
0DEF8:  MOVFF  01,7A1
0DEFC:  MOVFF  00,7A0
0DF00:  CALL   1E96
0DF04:  MOVFF  03,119
0DF08:  MOVFF  02,118
0DF0C:  MOVFF  01,117
0DF10:  MOVFF  00,116
....................                Temporal2=Temporal*100.0; 
0DF14:  MOVFF  119,79B
0DF18:  MOVFF  118,79A
0DF1C:  MOVFF  117,799
0DF20:  MOVFF  116,798
0DF24:  MOVLB  7
0DF26:  CLRF   x9F
0DF28:  CLRF   x9E
0DF2A:  MOVLW  48
0DF2C:  MOVWF  x9D
0DF2E:  MOVLW  85
0DF30:  MOVWF  x9C
0DF32:  MOVLB  0
0DF34:  CALL   1A1E
0DF38:  MOVFF  03,11D
0DF3C:  MOVFF  02,11C
0DF40:  MOVFF  01,11B
0DF44:  MOVFF  00,11A
....................                Decimal1=(int8)Temporal2; 
0DF48:  MOVFF  11D,79B
0DF4C:  MOVFF  11C,79A
0DF50:  MOVFF  11B,799
0DF54:  MOVFF  11A,798
0DF58:  CALL   1B14
0DF5C:  MOVFF  01,8C
....................                write_eeprom(54,Entero); 
0DF60:  CLRF   FAA
0DF62:  MOVLW  36
0DF64:  MOVWF  FA9
0DF66:  MOVFF  8B,FA8
0DF6A:  BCF    FA6.6
0DF6C:  BCF    FA6.7
0DF6E:  BSF    FA6.2
0DF70:  MOVF   FF2,W
0DF72:  MOVWF  00
0DF74:  BCF    FF2.6
0DF76:  BCF    FF2.7
0DF78:  MOVLB  F
0DF7A:  MOVLW  55
0DF7C:  MOVWF  FA7
0DF7E:  MOVLW  AA
0DF80:  MOVWF  FA7
0DF82:  BSF    FA6.1
0DF84:  BTFSC  FA6.1
0DF86:  BRA    DF84
0DF88:  BCF    FA6.2
0DF8A:  MOVF   00,W
0DF8C:  IORWF  FF2,F
....................                delay_ms(20); 
0DF8E:  MOVLW  14
0DF90:  MOVLB  7
0DF92:  MOVWF  x6C
0DF94:  MOVLB  0
0DF96:  CALL   15AA
....................                write_eeprom(55,Decimal1); 
0DF9A:  CLRF   FAA
0DF9C:  MOVLW  37
0DF9E:  MOVWF  FA9
0DFA0:  MOVFF  8C,FA8
0DFA4:  BCF    FA6.6
0DFA6:  BCF    FA6.7
0DFA8:  BSF    FA6.2
0DFAA:  MOVF   FF2,W
0DFAC:  MOVWF  00
0DFAE:  BCF    FF2.6
0DFB0:  BCF    FF2.7
0DFB2:  MOVLB  F
0DFB4:  MOVLW  55
0DFB6:  MOVWF  FA7
0DFB8:  MOVLW  AA
0DFBA:  MOVWF  FA7
0DFBC:  BSF    FA6.1
0DFBE:  BTFSC  FA6.1
0DFC0:  BRA    DFBE
0DFC2:  BCF    FA6.2
0DFC4:  MOVF   00,W
0DFC6:  IORWF  FF2,F
....................                delay_ms(20); 
0DFC8:  MOVLW  14
0DFCA:  MOVLB  7
0DFCC:  MOVWF  x6C
0DFCE:  MOVLB  0
0DFD0:  CALL   15AA
....................                 
....................                Temporal=pInIn; 
0DFD4:  MOVFF  135,119
0DFD8:  MOVFF  134,118
0DFDC:  MOVFF  133,117
0DFE0:  MOVFF  132,116
....................                Entero=(int)pInIn; 
0DFE4:  MOVFF  135,79B
0DFE8:  MOVFF  134,79A
0DFEC:  MOVFF  133,799
0DFF0:  MOVFF  132,798
0DFF4:  CALL   1B14
0DFF8:  MOVFF  01,8B
....................                Temporal=Temporal-Entero; 
0DFFC:  MOVLB  7
0DFFE:  CLRF   x9D
0E000:  MOVFF  8B,79C
0E004:  MOVLB  0
0E006:  CALL   188A
0E00A:  BSF    FD8.1
0E00C:  MOVFF  119,79F
0E010:  MOVFF  118,79E
0E014:  MOVFF  117,79D
0E018:  MOVFF  116,79C
0E01C:  MOVFF  03,7A3
0E020:  MOVFF  02,7A2
0E024:  MOVFF  01,7A1
0E028:  MOVFF  00,7A0
0E02C:  CALL   1E96
0E030:  MOVFF  03,119
0E034:  MOVFF  02,118
0E038:  MOVFF  01,117
0E03C:  MOVFF  00,116
....................                Temporal2=Temporal*100.0; 
0E040:  MOVFF  119,79B
0E044:  MOVFF  118,79A
0E048:  MOVFF  117,799
0E04C:  MOVFF  116,798
0E050:  MOVLB  7
0E052:  CLRF   x9F
0E054:  CLRF   x9E
0E056:  MOVLW  48
0E058:  MOVWF  x9D
0E05A:  MOVLW  85
0E05C:  MOVWF  x9C
0E05E:  MOVLB  0
0E060:  CALL   1A1E
0E064:  MOVFF  03,11D
0E068:  MOVFF  02,11C
0E06C:  MOVFF  01,11B
0E070:  MOVFF  00,11A
....................                Decimal1=(int8)Temporal2; 
0E074:  MOVFF  11D,79B
0E078:  MOVFF  11C,79A
0E07C:  MOVFF  11B,799
0E080:  MOVFF  11A,798
0E084:  CALL   1B14
0E088:  MOVFF  01,8C
....................                write_eeprom(56,Entero); 
0E08C:  CLRF   FAA
0E08E:  MOVLW  38
0E090:  MOVWF  FA9
0E092:  MOVFF  8B,FA8
0E096:  BCF    FA6.6
0E098:  BCF    FA6.7
0E09A:  BSF    FA6.2
0E09C:  MOVF   FF2,W
0E09E:  MOVWF  00
0E0A0:  BCF    FF2.6
0E0A2:  BCF    FF2.7
0E0A4:  MOVLB  F
0E0A6:  MOVLW  55
0E0A8:  MOVWF  FA7
0E0AA:  MOVLW  AA
0E0AC:  MOVWF  FA7
0E0AE:  BSF    FA6.1
0E0B0:  BTFSC  FA6.1
0E0B2:  BRA    E0B0
0E0B4:  BCF    FA6.2
0E0B6:  MOVF   00,W
0E0B8:  IORWF  FF2,F
....................                delay_ms(20); 
0E0BA:  MOVLW  14
0E0BC:  MOVLB  7
0E0BE:  MOVWF  x6C
0E0C0:  MOVLB  0
0E0C2:  CALL   15AA
....................                write_eeprom(57,Decimal1); 
0E0C6:  CLRF   FAA
0E0C8:  MOVLW  39
0E0CA:  MOVWF  FA9
0E0CC:  MOVFF  8C,FA8
0E0D0:  BCF    FA6.6
0E0D2:  BCF    FA6.7
0E0D4:  BSF    FA6.2
0E0D6:  MOVF   FF2,W
0E0D8:  MOVWF  00
0E0DA:  BCF    FF2.6
0E0DC:  BCF    FF2.7
0E0DE:  MOVLB  F
0E0E0:  MOVLW  55
0E0E2:  MOVWF  FA7
0E0E4:  MOVLW  AA
0E0E6:  MOVWF  FA7
0E0E8:  BSF    FA6.1
0E0EA:  BTFSC  FA6.1
0E0EC:  BRA    E0EA
0E0EE:  BCF    FA6.2
0E0F0:  MOVF   00,W
0E0F2:  IORWF  FF2,F
....................                delay_ms(20); 
0E0F4:  MOVLW  14
0E0F6:  MOVLB  7
0E0F8:  MOVWF  x6C
0E0FA:  MOVLB  0
0E0FC:  CALL   15AA
....................                GuardaEEPROM=ON; 
0E100:  BSF    x7E.3
....................                 
....................                write_eeprom(58,(int8)Pr); 
0E102:  MOVFF  275,79B
0E106:  MOVFF  274,79A
0E10A:  MOVFF  273,799
0E10E:  MOVFF  272,798
0E112:  CALL   1B14
0E116:  MOVFF  01,758
0E11A:  CLRF   FAA
0E11C:  MOVLW  3A
0E11E:  MOVWF  FA9
0E120:  MOVFF  758,FA8
0E124:  BCF    FA6.6
0E126:  BCF    FA6.7
0E128:  BSF    FA6.2
0E12A:  MOVF   FF2,W
0E12C:  MOVWF  00
0E12E:  BCF    FF2.6
0E130:  BCF    FF2.7
0E132:  MOVLB  F
0E134:  MOVLW  55
0E136:  MOVWF  FA7
0E138:  MOVLW  AA
0E13A:  MOVWF  FA7
0E13C:  BSF    FA6.1
0E13E:  BTFSC  FA6.1
0E140:  BRA    E13E
0E142:  BCF    FA6.2
0E144:  MOVF   00,W
0E146:  IORWF  FF2,F
....................                delay_ms(20); 
0E148:  MOVLW  14
0E14A:  MOVLB  7
0E14C:  MOVWF  x6C
0E14E:  MOVLB  0
0E150:  CALL   15AA
....................                write_eeprom(59,(int8)HR); 
0E154:  MOVFF  25D,79B
0E158:  MOVFF  25C,79A
0E15C:  MOVFF  25B,799
0E160:  MOVFF  25A,798
0E164:  CALL   1B14
0E168:  MOVFF  01,758
0E16C:  CLRF   FAA
0E16E:  MOVLW  3B
0E170:  MOVWF  FA9
0E172:  MOVFF  758,FA8
0E176:  BCF    FA6.6
0E178:  BCF    FA6.7
0E17A:  BSF    FA6.2
0E17C:  MOVF   FF2,W
0E17E:  MOVWF  00
0E180:  BCF    FF2.6
0E182:  BCF    FF2.7
0E184:  MOVLB  F
0E186:  MOVLW  55
0E188:  MOVWF  FA7
0E18A:  MOVLW  AA
0E18C:  MOVWF  FA7
0E18E:  BSF    FA6.1
0E190:  BTFSC  FA6.1
0E192:  BRA    E190
0E194:  BCF    FA6.2
0E196:  MOVF   00,W
0E198:  IORWF  FF2,F
....................                delay_ms(20); 
0E19A:  MOVLW  14
0E19C:  MOVLB  7
0E19E:  MOVWF  x6C
0E1A0:  MOVLB  0
0E1A2:  CALL   15AA
....................                 
....................                Temporal=Presion[4].AjustePresion; 
0E1A6:  MOVFF  6F7,119
0E1AA:  MOVFF  6F6,118
0E1AE:  MOVFF  6F5,117
0E1B2:  MOVFF  6F4,116
....................                Entero=(int)Presion[4].AjustePresion; 
0E1B6:  MOVFF  6F7,79B
0E1BA:  MOVFF  6F6,79A
0E1BE:  MOVFF  6F5,799
0E1C2:  MOVFF  6F4,798
0E1C6:  CALL   1B14
0E1CA:  MOVFF  01,8B
....................                Temporal=Temporal-Entero; 
0E1CE:  MOVLB  7
0E1D0:  CLRF   x9D
0E1D2:  MOVFF  8B,79C
0E1D6:  MOVLB  0
0E1D8:  CALL   188A
0E1DC:  BSF    FD8.1
0E1DE:  MOVFF  119,79F
0E1E2:  MOVFF  118,79E
0E1E6:  MOVFF  117,79D
0E1EA:  MOVFF  116,79C
0E1EE:  MOVFF  03,7A3
0E1F2:  MOVFF  02,7A2
0E1F6:  MOVFF  01,7A1
0E1FA:  MOVFF  00,7A0
0E1FE:  CALL   1E96
0E202:  MOVFF  03,119
0E206:  MOVFF  02,118
0E20A:  MOVFF  01,117
0E20E:  MOVFF  00,116
....................                Temporal2=Temporal*10.0; 
0E212:  MOVFF  119,79B
0E216:  MOVFF  118,79A
0E21A:  MOVFF  117,799
0E21E:  MOVFF  116,798
0E222:  MOVLB  7
0E224:  CLRF   x9F
0E226:  CLRF   x9E
0E228:  MOVLW  20
0E22A:  MOVWF  x9D
0E22C:  MOVLW  82
0E22E:  MOVWF  x9C
0E230:  MOVLB  0
0E232:  CALL   1A1E
0E236:  MOVFF  03,11D
0E23A:  MOVFF  02,11C
0E23E:  MOVFF  01,11B
0E242:  MOVFF  00,11A
....................                Decimal1=(int8)Temporal2; 
0E246:  MOVFF  11D,79B
0E24A:  MOVFF  11C,79A
0E24E:  MOVFF  11B,799
0E252:  MOVFF  11A,798
0E256:  CALL   1B14
0E25A:  MOVFF  01,8C
....................                write_eeprom(62,Entero); 
0E25E:  CLRF   FAA
0E260:  MOVLW  3E
0E262:  MOVWF  FA9
0E264:  MOVFF  8B,FA8
0E268:  BCF    FA6.6
0E26A:  BCF    FA6.7
0E26C:  BSF    FA6.2
0E26E:  MOVF   FF2,W
0E270:  MOVWF  00
0E272:  BCF    FF2.6
0E274:  BCF    FF2.7
0E276:  MOVLB  F
0E278:  MOVLW  55
0E27A:  MOVWF  FA7
0E27C:  MOVLW  AA
0E27E:  MOVWF  FA7
0E280:  BSF    FA6.1
0E282:  BTFSC  FA6.1
0E284:  BRA    E282
0E286:  BCF    FA6.2
0E288:  MOVF   00,W
0E28A:  IORWF  FF2,F
....................                delay_ms(20); 
0E28C:  MOVLW  14
0E28E:  MOVLB  7
0E290:  MOVWF  x6C
0E292:  MOVLB  0
0E294:  CALL   15AA
....................                write_eeprom(63,Decimal1); 
0E298:  CLRF   FAA
0E29A:  MOVLW  3F
0E29C:  MOVWF  FA9
0E29E:  MOVFF  8C,FA8
0E2A2:  BCF    FA6.6
0E2A4:  BCF    FA6.7
0E2A6:  BSF    FA6.2
0E2A8:  MOVF   FF2,W
0E2AA:  MOVWF  00
0E2AC:  BCF    FF2.6
0E2AE:  BCF    FF2.7
0E2B0:  MOVLB  F
0E2B2:  MOVLW  55
0E2B4:  MOVWF  FA7
0E2B6:  MOVLW  AA
0E2B8:  MOVWF  FA7
0E2BA:  BSF    FA6.1
0E2BC:  BTFSC  FA6.1
0E2BE:  BRA    E2BC
0E2C0:  BCF    FA6.2
0E2C2:  MOVF   00,W
0E2C4:  IORWF  FF2,F
....................                delay_ms(20); 
0E2C6:  MOVLW  14
0E2C8:  MOVLB  7
0E2CA:  MOVWF  x6C
0E2CC:  MOVLB  0
0E2CE:  CALL   15AA
....................             } 
....................             printf("page Principal"); 
0E2D2:  MOVLW  28
0E2D4:  MOVWF  FF6
0E2D6:  MOVLW  14
0E2D8:  MOVWF  FF7
0E2DA:  MOVLW  00
0E2DC:  MOVWF  FF8
0E2DE:  CALL   1E2E
....................             SendDataDisplay(); 
0E2E2:  CALL   1E60
....................              
....................             calculaDensidad(); 
0E2E6:  CALL   67DA
....................             UP=OFF;DOWN=OFF;RIGHT=OFF;LEFT=OFF; 
0E2EA:  BCF    x7F.3
0E2EC:  BCF    x7F.4
0E2EE:  BCF    x7F.5
0E2F0:  BCF    x7F.6
....................          } 
....................       } 
....................       printf("fecha.txt=\"Fecha:%02u/%02u/20%02u    Hora: %02u:%02u\"",Dia,Mes,Year,Hora,Minuto); 
0E2F2:  MOVLW  38
0E2F4:  MOVWF  FF6
0E2F6:  MOVLW  14
0E2F8:  MOVWF  FF7
0E2FA:  MOVLW  00
0E2FC:  MOVWF  FF8
0E2FE:  MOVLW  11
0E300:  MOVLB  7
0E302:  MOVWF  x5C
0E304:  MOVLB  0
0E306:  CALL   71A4
0E30A:  MOVFF  94,759
0E30E:  MOVLW  01
0E310:  MOVLB  7
0E312:  MOVWF  x5A
0E314:  MOVLB  0
0E316:  CALL   7202
0E31A:  MOVLW  2F
0E31C:  BTFSS  F9E.4
0E31E:  BRA    E31C
0E320:  MOVWF  FAD
0E322:  MOVFF  93,759
0E326:  MOVLW  01
0E328:  MOVLB  7
0E32A:  MOVWF  x5A
0E32C:  MOVLB  0
0E32E:  CALL   7202
0E332:  MOVLW  2F
0E334:  BTFSS  F9E.4
0E336:  BRA    E334
0E338:  MOVWF  FAD
0E33A:  MOVLW  32
0E33C:  BTFSS  F9E.4
0E33E:  BRA    E33C
0E340:  MOVWF  FAD
0E342:  MOVLW  30
0E344:  BTFSS  F9E.4
0E346:  BRA    E344
0E348:  MOVWF  FAD
0E34A:  MOVFF  92,759
0E34E:  MOVLW  01
0E350:  MOVLB  7
0E352:  MOVWF  x5A
0E354:  MOVLB  0
0E356:  CALL   7202
0E35A:  MOVLW  59
0E35C:  MOVWF  FF6
0E35E:  MOVLW  14
0E360:  MOVWF  FF7
0E362:  MOVLW  00
0E364:  MOVWF  FF8
0E366:  MOVLW  0A
0E368:  MOVLB  7
0E36A:  MOVWF  x5C
0E36C:  MOVLB  0
0E36E:  CALL   71A4
0E372:  MOVFF  95,759
0E376:  MOVLW  01
0E378:  MOVLB  7
0E37A:  MOVWF  x5A
0E37C:  MOVLB  0
0E37E:  CALL   7202
0E382:  MOVLW  3A
0E384:  BTFSS  F9E.4
0E386:  BRA    E384
0E388:  MOVWF  FAD
0E38A:  MOVFF  96,759
0E38E:  MOVLW  01
0E390:  MOVLB  7
0E392:  MOVWF  x5A
0E394:  MOVLB  0
0E396:  CALL   7202
0E39A:  MOVLW  22
0E39C:  BTFSS  F9E.4
0E39E:  BRA    E39C
0E3A0:  MOVWF  FAD
....................       SendDataDisplay();  
0E3A2:  CALL   1E60
....................     } 
.................... //_--------------------------------------------------------------------------------------------------------------------------------------------------------        
....................  
....................    } 
0E3A6:  GOTO   8EF2
....................  
.................... } 
0E3AA:  SLEEP 

Configuration Fuses:
   Word  1: 0200   HS NOIESO NOFCMEN
   Word  2: 1B19   NOBROWNOUT WDT BORV20 NOPUT WDT8192
   Word  3: 0000   NOPBADEN NOLPT1OSC NOMCLR
   Word  4: 00B0   NOSTVREN NODEBUG NOLVP NOXINST BBSIZ4K
   Word  5: C03F   NOPROTECT NOCPD NOCPB
   Word  6: E03F   NOWRT NOWRTD NOWRTC NOWRTB
   Word  7: 403F   NOEBTR NOEBTRB
