CCS PCH C Compiler, Version 4.104, 5967               04-feb.-21 11:06

               Filename: D:\Laboratorio\Modulo Flujo Laminar\2021\JPCFLVMOD-2PM TOUCH Abaco OP202130 #0045884XX\Ejemplo MODBUS\Schematic I2C-RS485\Firmware - V1.1.0\Maestro_v2.lst

               ROM used: 42556 bytes (65%)
                         Largest free fragment is 22980
               RAM used: 1648 (42%) at main() level
                         1714 (43%) worst case
               Stack:    7 worst case (6 in main + 1 for interrupts)

*
00000:  GOTO   6054
*
00008:  MOVWF  04
0000A:  MOVFF  FD8,05
0000E:  MOVFF  FE0,06
00012:  MOVLB  0
00014:  MOVFF  FE9,0C
00018:  MOVFF  FEA,07
0001C:  MOVFF  FE1,08
00020:  MOVFF  FE2,09
00024:  MOVFF  FD9,0A
00028:  MOVFF  FDA,0B
0002C:  MOVFF  FF3,12
00030:  MOVFF  FF4,13
00034:  MOVFF  FFA,14
00038:  MOVFF  00,0E
0003C:  MOVFF  01,0F
00040:  MOVFF  02,10
00044:  MOVFF  03,11
00048:  BTFSS  F9D.0
0004A:  GOTO   0054
0004E:  BTFSC  F9E.0
00050:  GOTO   139C
00054:  MOVFF  0E,00
00058:  MOVFF  0F,01
0005C:  MOVFF  10,02
00060:  MOVFF  11,03
00064:  MOVFF  0C,FE9
00068:  MOVFF  07,FEA
0006C:  BSF    07.7
0006E:  MOVFF  08,FE1
00072:  MOVFF  09,FE2
00076:  MOVFF  0A,FD9
0007A:  MOVFF  0B,FDA
0007E:  MOVFF  12,FF3
00082:  MOVFF  13,FF4
00086:  MOVFF  14,FFA
0008A:  MOVF   04,W
0008C:  MOVFF  06,FE0
00090:  MOVFF  05,FD8
00094:  RETFIE 0
.................... //Programa para Cabina de Bioseguridad 
....................  
.................... #include <18F4620.h> 
.................... //////// Standard Header file for the PIC18F4620 device //////////////// 
.................... #device PIC18F4620 
.................... #list 
....................  
.................... #device adc=10 
.................... #fuses HS,NOWDT,NOPROTECT,NOLVP,NODEBUG,NOSTVREN,NOPUT,NOCPD,NOWRT,NOIESO,NOFCMEN,NOPBADEN,NOWRTC,NOWRTB,NOEBTR,NOEBTRB,NOCPB,NOXINST,NOLPT1OSC,NOMCLR 
.................... #use delay(clock=20000000) 
*
014A0:  MOVLW  06
014A2:  MOVWF  FEA
014A4:  MOVLW  80
014A6:  MOVWF  FE9
014A8:  MOVF   FEF,W
014AA:  BZ    14C6
014AC:  MOVLW  06
014AE:  MOVWF  01
014B0:  CLRF   00
014B2:  DECFSZ 00,F
014B4:  BRA    14B2
014B6:  DECFSZ 01,F
014B8:  BRA    14B0
014BA:  MOVLW  7B
014BC:  MOVWF  00
014BE:  DECFSZ 00,F
014C0:  BRA    14BE
014C2:  DECFSZ FEF,F
014C4:  BRA    14AC
014C6:  RETLW  00
.................... #use i2c(Master,slow,sda=PIN_C4,scl=PIN_C3) 
*
016B8:  MOVLW  08
016BA:  MOVWF  01
016BC:  MOVLW  05
016BE:  MOVWF  00
016C0:  DECFSZ 00,F
016C2:  BRA    16C0
016C4:  BCF    F8B.3
016C6:  BCF    F94.3
016C8:  MOVLW  06
016CA:  MOVWF  00
016CC:  DECFSZ 00,F
016CE:  BRA    16CC
016D0:  MOVLB  6
016D2:  RLCF   x78,F
016D4:  BCF    F8B.4
016D6:  BTFSC  FD8.0
016D8:  BSF    F94.4
016DA:  BTFSS  FD8.0
016DC:  BCF    F94.4
016DE:  BSF    F94.3
016E0:  BTFSS  F82.3
016E2:  BRA    16E0
016E4:  DECFSZ 01,F
016E6:  BRA    16EA
016E8:  BRA    16EE
016EA:  MOVLB  0
016EC:  BRA    16BC
016EE:  MOVLW  05
016F0:  MOVWF  00
016F2:  DECFSZ 00,F
016F4:  BRA    16F2
016F6:  BCF    F8B.3
016F8:  BCF    F94.3
016FA:  NOP   
016FC:  BSF    F94.4
016FE:  MOVLW  06
01700:  MOVWF  00
01702:  DECFSZ 00,F
01704:  BRA    1702
01706:  MOVLW  06
01708:  MOVWF  00
0170A:  DECFSZ 00,F
0170C:  BRA    170A
0170E:  BSF    F94.3
01710:  BTFSS  F82.3
01712:  BRA    1710
01714:  CLRF   01
01716:  MOVLW  06
01718:  MOVWF  00
0171A:  DECFSZ 00,F
0171C:  BRA    171A
0171E:  BTFSC  F82.4
01720:  BSF    01.0
01722:  BCF    F8B.3
01724:  BCF    F94.3
01726:  BCF    F8B.4
01728:  BCF    F94.4
0172A:  MOVLB  0
0172C:  RETLW  00
0172E:  MOVLW  08
01730:  MOVLB  6
01732:  MOVWF  x77
01734:  MOVFF  00,678
01738:  BSF    F94.4
0173A:  MOVLW  06
0173C:  MOVWF  00
0173E:  DECFSZ 00,F
01740:  BRA    173E
01742:  BSF    F94.3
01744:  BTFSS  F82.3
01746:  BRA    1744
01748:  BTFSC  F82.4
0174A:  BSF    FD8.0
0174C:  BTFSS  F82.4
0174E:  BCF    FD8.0
01750:  RLCF   01,F
01752:  MOVLW  05
01754:  MOVWF  00
01756:  DECFSZ 00,F
01758:  BRA    1756
0175A:  BCF    F94.3
0175C:  BCF    F8B.3
0175E:  DECFSZ x77,F
01760:  BRA    1738
01762:  BSF    F94.4
01764:  MOVLW  06
01766:  MOVWF  00
01768:  DECFSZ 00,F
0176A:  BRA    1768
0176C:  BCF    F8B.4
0176E:  MOVF   x78,W
01770:  BTFSS  FD8.2
01772:  BCF    F94.4
01774:  NOP   
01776:  BSF    F94.3
01778:  BTFSS  F82.3
0177A:  BRA    1778
0177C:  MOVLW  05
0177E:  MOVWF  00
01780:  DECFSZ 00,F
01782:  BRA    1780
01784:  BCF    F8B.3
01786:  BCF    F94.3
01788:  MOVLW  06
0178A:  MOVWF  00
0178C:  DECFSZ 00,F
0178E:  BRA    178C
01790:  BCF    F8B.4
01792:  BCF    F94.4
01794:  MOVLB  0
01796:  RETLW  00
.................... #include <MATH.h> 
.................... //////////////////////////////////////////////////////////////////////////// 
.................... ////        (C) Copyright 1996,2008 Custom Computer Services            //// 
.................... //// This source code may only be used by licensed users of the CCS C   //// 
.................... //// compiler.  This source code may only be distributed to other       //// 
.................... //// licensed users of the CCS C compiler.  No other use, reproduction  //// 
.................... //// or distribution is permitted without written permission.           //// 
.................... //// Derivative programs created using this software in object code     //// 
.................... //// form are not restricted in any way.                                //// 
.................... //////////////////////////////////////////////////////////////////////////// 
.................... ////                                                                    //// 
.................... //// History:                                                           //// 
.................... ////  * 9/20/2001 :  Improvments are made to sin/cos code.              //// 
.................... ////                 The code now is small, much faster,                //// 
.................... ////                 and more accurate.                                 //// 
.................... ////  * 2/21/2007 :  Compiler handles & operator differently and does 
.................... ////                 not return generic (int8 *) so type cast is done   //// 
.................... ////                                                                    //// 
.................... //////////////////////////////////////////////////////////////////////////// 
....................  
.................... #ifndef MATH_H 
.................... #define MATH_H 
....................  
.................... #ifdef PI 
.................... #undef  PI 
.................... #endif 
.................... #define PI     3.1415926535897932 
....................  
....................  
.................... #define SQRT2  1.4142135623730950 
....................  
.................... //float const ps[4] = {5.9304945, 21.125224, 8.9403076, 0.29730279}; 
.................... //float const qs[4] = {1.0000000, 15.035723, 17.764134, 2.4934718}; 
....................  
.................... ///////////////////////////// Round Functions ////////////////////////////// 
....................  
.................... float32 CEIL_FLOOR(float32 x, unsigned int8 n) 
.................... { 
....................    float32 y, res; 
....................    unsigned int16 l; 
....................    int1 s; 
....................  
....................    s = 0; 
*
03242:  MOVLB  6
03244:  BCF    x9C.0
....................    y = x; 
03246:  MOVFF  690,695
0324A:  MOVFF  68F,694
0324E:  MOVFF  68E,693
03252:  MOVFF  68D,692
....................  
....................    if (x < 0) 
03256:  MOVFF  690,6A0
0325A:  MOVFF  68F,69F
0325E:  MOVFF  68E,69E
03262:  MOVFF  68D,69D
03266:  CLRF   xA4
03268:  CLRF   xA3
0326A:  CLRF   xA2
0326C:  CLRF   xA1
0326E:  MOVLB  0
03270:  CALL   1BBC
03274:  BNC   3280
....................    { 
....................       s = 1; 
03276:  MOVLB  6
03278:  BSF    x9C.0
....................       y = -y; 
0327A:  MOVF   x93,W
0327C:  XORLW  80
0327E:  MOVWF  x93
....................    } 
....................  
....................    if (y <= 32768.0) 
03280:  MOVFF  695,6A0
03284:  MOVFF  694,69F
03288:  MOVFF  693,69E
0328C:  MOVFF  692,69D
03290:  MOVLB  6
03292:  CLRF   xA4
03294:  CLRF   xA3
03296:  CLRF   xA2
03298:  MOVLW  8E
0329A:  MOVWF  xA1
0329C:  MOVLB  0
0329E:  CALL   1BBC
032A2:  BC    32A6
032A4:  BNZ   32D8
....................   res = (float32)(unsigned int16)y; 
032A6:  MOVFF  695,6A0
032AA:  MOVFF  694,69F
032AE:  MOVFF  693,69E
032B2:  MOVFF  692,69D
032B6:  CALL   1C36
032BA:  MOVFF  02,6A2
032BE:  MOVFF  01,6A1
032C2:  CALL   1932
032C6:  MOVFF  03,699
032CA:  MOVFF  02,698
032CE:  MOVFF  01,697
032D2:  MOVFF  00,696
....................  
....................  else if (y < 10000000.0) 
032D6:  BRA    347E
032D8:  MOVFF  695,6A0
032DC:  MOVFF  694,69F
032E0:  MOVFF  693,69E
032E4:  MOVFF  692,69D
032E8:  MOVLW  80
032EA:  MOVLB  6
032EC:  MOVWF  xA4
032EE:  MOVLW  96
032F0:  MOVWF  xA3
032F2:  MOVLW  18
032F4:  MOVWF  xA2
032F6:  MOVLW  96
032F8:  MOVWF  xA1
032FA:  MOVLB  0
032FC:  CALL   1BBC
03300:  BTFSS  FD8.0
03302:  BRA    346E
....................    { 
....................   l = (unsigned int16)(y/32768.0); 
03304:  MOVFF  695,6A0
03308:  MOVFF  694,69F
0330C:  MOVFF  693,69E
03310:  MOVFF  692,69D
03314:  MOVLB  6
03316:  CLRF   xA4
03318:  CLRF   xA3
0331A:  CLRF   xA2
0331C:  MOVLW  8E
0331E:  MOVWF  xA1
03320:  MOVLB  0
03322:  CALL   1968
03326:  MOVFF  03,6A0
0332A:  MOVFF  02,69F
0332E:  MOVFF  01,69E
03332:  MOVFF  00,69D
03336:  CALL   1C36
0333A:  MOVFF  02,69B
0333E:  MOVFF  01,69A
....................       y = 32768.0*(y/32768.0 - (float32)l); 
03342:  MOVFF  695,6A0
03346:  MOVFF  694,69F
0334A:  MOVFF  693,69E
0334E:  MOVFF  692,69D
03352:  MOVLB  6
03354:  CLRF   xA4
03356:  CLRF   xA3
03358:  CLRF   xA2
0335A:  MOVLW  8E
0335C:  MOVWF  xA1
0335E:  MOVLB  0
03360:  CALL   1968
03364:  MOVFF  00,69D
03368:  MOVFF  01,69E
0336C:  MOVFF  02,69F
03370:  MOVFF  03,6A0
03374:  MOVFF  69B,6A2
03378:  MOVFF  69A,6A1
0337C:  CALL   1932
03380:  BSF    FD8.1
03382:  MOVFF  6A0,6A4
03386:  MOVFF  69F,6A3
0338A:  MOVFF  69E,6A2
0338E:  MOVFF  69D,6A1
03392:  MOVFF  03,6A8
03396:  MOVFF  02,6A7
0339A:  MOVFF  01,6A6
0339E:  MOVFF  00,6A5
033A2:  CALL   1E4E
033A6:  MOVLB  6
033A8:  CLRF   xA0
033AA:  CLRF   x9F
033AC:  CLRF   x9E
033AE:  MOVLW  8E
033B0:  MOVWF  x9D
033B2:  MOVFF  03,6A4
033B6:  MOVFF  02,6A3
033BA:  MOVFF  01,6A2
033BE:  MOVFF  00,6A1
033C2:  MOVLB  0
033C4:  CALL   1AC6
033C8:  MOVFF  03,695
033CC:  MOVFF  02,694
033D0:  MOVFF  01,693
033D4:  MOVFF  00,692
....................   res = 32768.0*(float32)l; 
033D8:  MOVFF  69B,6A2
033DC:  MOVFF  69A,6A1
033E0:  CALL   1932
033E4:  MOVLB  6
033E6:  CLRF   xA0
033E8:  CLRF   x9F
033EA:  CLRF   x9E
033EC:  MOVLW  8E
033EE:  MOVWF  x9D
033F0:  MOVFF  03,6A4
033F4:  MOVFF  02,6A3
033F8:  MOVFF  01,6A2
033FC:  MOVFF  00,6A1
03400:  MOVLB  0
03402:  CALL   1AC6
03406:  MOVFF  03,699
0340A:  MOVFF  02,698
0340E:  MOVFF  01,697
03412:  MOVFF  00,696
....................   res += (float32)(unsigned int16)y; 
03416:  MOVFF  695,6A0
0341A:  MOVFF  694,69F
0341E:  MOVFF  693,69E
03422:  MOVFF  692,69D
03426:  CALL   1C36
0342A:  MOVFF  02,6A2
0342E:  MOVFF  01,6A1
03432:  CALL   1932
03436:  BCF    FD8.1
03438:  MOVFF  699,6A4
0343C:  MOVFF  698,6A3
03440:  MOVFF  697,6A2
03444:  MOVFF  696,6A1
03448:  MOVFF  03,6A8
0344C:  MOVFF  02,6A7
03450:  MOVFF  01,6A6
03454:  MOVFF  00,6A5
03458:  CALL   1E4E
0345C:  MOVFF  03,699
03460:  MOVFF  02,698
03464:  MOVFF  01,697
03468:  MOVFF  00,696
....................  } 
....................  
....................  else 
0346C:  BRA    347E
....................   res = y; 
0346E:  MOVFF  695,699
03472:  MOVFF  694,698
03476:  MOVFF  693,697
0347A:  MOVFF  692,696
....................  
....................  y = y - (float32)(unsigned int16)y; 
0347E:  MOVFF  695,6A0
03482:  MOVFF  694,69F
03486:  MOVFF  693,69E
0348A:  MOVFF  692,69D
0348E:  CALL   1C36
03492:  MOVFF  02,6A2
03496:  MOVFF  01,6A1
0349A:  CALL   1932
0349E:  BSF    FD8.1
034A0:  MOVFF  695,6A4
034A4:  MOVFF  694,6A3
034A8:  MOVFF  693,6A2
034AC:  MOVFF  692,6A1
034B0:  MOVFF  03,6A8
034B4:  MOVFF  02,6A7
034B8:  MOVFF  01,6A6
034BC:  MOVFF  00,6A5
034C0:  CALL   1E4E
034C4:  MOVFF  03,695
034C8:  MOVFF  02,694
034CC:  MOVFF  01,693
034D0:  MOVFF  00,692
....................  
....................  if (s) 
034D4:  MOVLB  6
034D6:  BTFSS  x9C.0
034D8:  BRA    34E0
....................   res = -res; 
034DA:  MOVF   x97,W
034DC:  XORLW  80
034DE:  MOVWF  x97
....................  
....................  if (y != 0) 
034E0:  MOVFF  695,6A0
034E4:  MOVFF  694,69F
034E8:  MOVFF  693,69E
034EC:  MOVFF  692,69D
034F0:  CLRF   xA4
034F2:  CLRF   xA3
034F4:  CLRF   xA2
034F6:  CLRF   xA1
034F8:  MOVLB  0
034FA:  CALL   1BBC
034FE:  BZ    3578
....................  { 
....................   if (s == 1 && n == 0) 
03500:  MOVLB  6
03502:  BTFSS  x9C.0
03504:  BRA    353E
03506:  MOVF   x91,F
03508:  BNZ   353E
....................    res -= 1.0; 
0350A:  BSF    FD8.1
0350C:  MOVFF  699,6A4
03510:  MOVFF  698,6A3
03514:  MOVFF  697,6A2
03518:  MOVFF  696,6A1
0351C:  CLRF   xA8
0351E:  CLRF   xA7
03520:  CLRF   xA6
03522:  MOVLW  7F
03524:  MOVWF  xA5
03526:  MOVLB  0
03528:  CALL   1E4E
0352C:  MOVFF  03,699
03530:  MOVFF  02,698
03534:  MOVFF  01,697
03538:  MOVFF  00,696
0353C:  MOVLB  6
....................  
....................   if (s == 0 && n == 1) 
0353E:  BTFSC  x9C.0
03540:  BRA    357A
03542:  DECFSZ x91,W
03544:  BRA    357A
....................    res += 1.0; 
03546:  BCF    FD8.1
03548:  MOVFF  699,6A4
0354C:  MOVFF  698,6A3
03550:  MOVFF  697,6A2
03554:  MOVFF  696,6A1
03558:  CLRF   xA8
0355A:  CLRF   xA7
0355C:  CLRF   xA6
0355E:  MOVLW  7F
03560:  MOVWF  xA5
03562:  MOVLB  0
03564:  CALL   1E4E
03568:  MOVFF  03,699
0356C:  MOVFF  02,698
03570:  MOVFF  01,697
03574:  MOVFF  00,696
03578:  MOVLB  6
....................  } 
....................  if (x == 0) 
0357A:  MOVFF  690,6A0
0357E:  MOVFF  68F,69F
03582:  MOVFF  68E,69E
03586:  MOVFF  68D,69D
0358A:  CLRF   xA4
0358C:  CLRF   xA3
0358E:  CLRF   xA2
03590:  CLRF   xA1
03592:  MOVLB  0
03594:  CALL   1BBC
03598:  BNZ   35A6
....................     res = 0; 
0359A:  MOVLB  6
0359C:  CLRF   x99
0359E:  CLRF   x98
035A0:  CLRF   x97
035A2:  CLRF   x96
035A4:  MOVLB  0
....................  
....................  return (res); 
035A6:  MOVFF  696,00
035AA:  MOVFF  697,01
035AE:  MOVFF  698,02
035B2:  MOVFF  699,03
.................... } 
035B6:  RETLW  00
....................  
.................... // Overloaded Functions to take care for new Data types in PCD 
.................... // Overloaded function CEIL_FLOOR() for data type - Float48 
.................... #if defined(__PCD__) 
.................... float48 CEIL_FLOOR(float48 x, unsigned int8 n) 
.................... { 
....................    float48 y, res; 
....................    unsigned int16 l; 
....................    int1 s; 
....................  
....................    s = 0; 
....................    y = x; 
....................  
....................    if (x < 0) 
....................    { 
....................       s = 1; 
....................       y = -y; 
....................    } 
....................  
....................    if (y <= 32768.0) 
....................   res = (float48)(unsigned int16)y; 
....................  
....................  else if (y < 10000000.0) 
....................    { 
....................   l = (unsigned int16)(y/32768.0); 
....................       y = 32768.0*(y/32768.0 - (float48)l); 
....................   res = 32768.0*(float32)l; 
....................   res += (float48)(unsigned int16)y; 
....................  } 
....................  
....................  else 
....................   res = y; 
....................  
....................  y = y - (float48)(unsigned int16)y; 
....................  
....................  if (s) 
....................   res = -res; 
....................  
....................  if (y != 0) 
....................  { 
....................   if (s == 1 && n == 0) 
....................    res -= 1.0; 
....................  
....................   if (s == 0 && n == 1) 
....................    res += 1.0; 
....................  } 
....................  if (x == 0) 
....................     res = 0; 
....................  
....................  return (res); 
.................... } 
....................  
....................  
.................... // Overloaded function CEIL_FLOOR() for data type - Float64 
.................... float64 CEIL_FLOOR(float64 x, unsigned int8 n) 
.................... { 
....................    float64 y, res; 
....................    unsigned int16 l; 
....................    int1 s; 
....................  
....................    s = 0; 
....................    y = x; 
....................  
....................    if (x < 0) 
....................    { 
....................       s = 1; 
....................       y = -y; 
....................    } 
....................  
....................    if (y <= 32768.0) 
....................   res = (float64)(unsigned int16)y; 
....................  
....................  else if (y < 10000000.0) 
....................    { 
....................   l = (unsigned int16)(y/32768.0); 
....................       y = 32768.0*(y/32768.0 - (float64)l); 
....................   res = 32768.0*(float64)l; 
....................   res += (float64)(unsigned int16)y; 
....................  } 
....................  
....................  else 
....................   res = y; 
....................  
....................  y = y - (float64)(unsigned int16)y; 
....................  
....................  if (s) 
....................   res = -res; 
....................  
....................  if (y != 0) 
....................  { 
....................   if (s == 1 && n == 0) 
....................    res -= 1.0; 
....................  
....................   if (s == 0 && n == 1) 
....................    res += 1.0; 
....................  } 
....................  if (x == 0) 
....................     res = 0; 
....................  
....................  return (res); 
.................... } 
.................... #endif 
....................  
.................... //////////////////////////////////////////////////////////////////////////// 
.................... //   float floor(float x) 
.................... //////////////////////////////////////////////////////////////////////////// 
.................... // Description : rounds down the number x. 
.................... // Date : N/A 
.................... // 
.................... float32 floor(float32 x) 
.................... { 
....................    return CEIL_FLOOR(x, 0); 
*
035D6:  MOVFF  68C,690
035DA:  MOVFF  68B,68F
035DE:  MOVFF  68A,68E
035E2:  MOVFF  689,68D
035E6:  MOVLB  6
035E8:  CLRF   x91
035EA:  MOVLB  0
035EC:  RCALL  3242
.................... } 
035EE:  GOTO   36FA (RETURN)
.................... // Following 2 functions are overloaded functions of floor() for PCD 
.................... // Overloaded function floor() for data type - Float48 
.................... #if defined(__PCD__) 
.................... float48 floor(float48 x) 
.................... { 
....................    return CEIL_FLOOR(x, 0); 
.................... } 
....................  
.................... // Overloaded function floor() for data type - Float64 
.................... float64 floor(float64 x) 
.................... { 
....................    return CEIL_FLOOR(x, 0); 
.................... } 
.................... #endif 
....................  
....................  
.................... //////////////////////////////////////////////////////////////////////////// 
.................... //   float ceil(float x) 
.................... //////////////////////////////////////////////////////////////////////////// 
.................... // Description : rounds up the number x. 
.................... // Date : N/A 
.................... // 
.................... float32 ceil(float32 x) 
.................... { 
....................    return CEIL_FLOOR(x, 1); 
*
035B8:  MOVFF  68C,690
035BC:  MOVFF  68B,68F
035C0:  MOVFF  68A,68E
035C4:  MOVFF  689,68D
035C8:  MOVLW  01
035CA:  MOVLB  6
035CC:  MOVWF  x91
035CE:  MOVLB  0
035D0:  RCALL  3242
.................... } 
035D2:  GOTO   36B2 (RETURN)
.................... // Following 2 functions are overloaded functions of ceil() for PCD 
.................... // Overloaded function ceil() for data type - Float48 
.................... #if defined(__PCD__) 
.................... float48 ceil(float48 x) 
.................... { 
....................    return CEIL_FLOOR(x, 1); 
.................... } 
....................  
.................... // Overloaded function ceil() for data type - Float64 
.................... float64 ceil(float64 x) 
.................... { 
....................    return CEIL_FLOOR(x, 1); 
.................... } 
.................... #endif 
....................  
....................  //////////////////////////////////////////////////////////////////////////// 
.................... //   float fabs(float x) 
.................... //////////////////////////////////////////////////////////////////////////// 
.................... // Description : Computes the absolute value of floating point number x 
.................... // Returns : returns the absolute value of x 
.................... // Date : N/A 
.................... // 
.................... #define fabs abs 
....................  
.................... //////////////////////////////////////////////////////////////////////////// 
.................... //   float fmod(float x) 
.................... //////////////////////////////////////////////////////////////////////////// 
.................... // Description : Computes the floating point remainder of x/y 
.................... // Returns : returns the value of x= i*y, for some integer i such that, if y 
.................... // is non zero, the result has the same isgn of x na dmagnitude less than the 
.................... // magnitude of y. If y is zero then a domain error occurs. 
.................... // Date : N/A 
.................... // 
....................  
.................... float fmod(float32 x,float32 y) 
.................... { 
....................    float32 i; 
....................    if (y!=0.0) 
*
035F2:  MOVFF  680,6A0
035F6:  MOVFF  67F,69F
035FA:  MOVFF  67E,69E
035FE:  MOVFF  67D,69D
03602:  MOVLB  6
03604:  CLRF   xA4
03606:  CLRF   xA3
03608:  CLRF   xA2
0360A:  CLRF   xA1
0360C:  MOVLB  0
0360E:  CALL   1BBC
03612:  BTFSC  FD8.2
03614:  BRA    3758
....................    { 
....................       i=(x/y < 0.0)? ceil(x/y): floor(x/y); 
03616:  MOVFF  67C,6A0
0361A:  MOVFF  67B,69F
0361E:  MOVFF  67A,69E
03622:  MOVFF  679,69D
03626:  MOVFF  680,6A4
0362A:  MOVFF  67F,6A3
0362E:  MOVFF  67E,6A2
03632:  MOVFF  67D,6A1
03636:  CALL   1968
0363A:  MOVFF  00,685
0363E:  MOVFF  01,686
03642:  MOVFF  02,687
03646:  MOVFF  03,688
0364A:  MOVFF  03,6A0
0364E:  MOVFF  02,69F
03652:  MOVFF  01,69E
03656:  MOVFF  00,69D
0365A:  MOVLB  6
0365C:  CLRF   xA4
0365E:  CLRF   xA3
03660:  CLRF   xA2
03662:  CLRF   xA1
03664:  MOVLB  0
03666:  CALL   1BBC
0366A:  BNC   36B4
0366C:  MOVFF  67C,6A0
03670:  MOVFF  67B,69F
03674:  MOVFF  67A,69E
03678:  MOVFF  679,69D
0367C:  MOVFF  680,6A4
03680:  MOVFF  67F,6A3
03684:  MOVFF  67E,6A2
03688:  MOVFF  67D,6A1
0368C:  CALL   1968
03690:  MOVFF  00,685
03694:  MOVFF  01,686
03698:  MOVFF  02,687
0369C:  MOVFF  03,688
036A0:  MOVFF  03,68C
036A4:  MOVFF  02,68B
036A8:  MOVFF  01,68A
036AC:  MOVFF  00,689
036B0:  BRA    35B8
036B2:  BRA    36FA
036B4:  MOVFF  67C,6A0
036B8:  MOVFF  67B,69F
036BC:  MOVFF  67A,69E
036C0:  MOVFF  679,69D
036C4:  MOVFF  680,6A4
036C8:  MOVFF  67F,6A3
036CC:  MOVFF  67E,6A2
036D0:  MOVFF  67D,6A1
036D4:  CALL   1968
036D8:  MOVFF  00,685
036DC:  MOVFF  01,686
036E0:  MOVFF  02,687
036E4:  MOVFF  03,688
036E8:  MOVFF  03,68C
036EC:  MOVFF  02,68B
036F0:  MOVFF  01,68A
036F4:  MOVFF  00,689
036F8:  BRA    35D6
036FA:  MOVFF  03,684
036FE:  MOVFF  02,683
03702:  MOVFF  01,682
03706:  MOVFF  00,681
....................       return(x-(i*y)); 
0370A:  MOVFF  684,6A0
0370E:  MOVFF  683,69F
03712:  MOVFF  682,69E
03716:  MOVFF  681,69D
0371A:  MOVFF  680,6A4
0371E:  MOVFF  67F,6A3
03722:  MOVFF  67E,6A2
03726:  MOVFF  67D,6A1
0372A:  CALL   1AC6
0372E:  BSF    FD8.1
03730:  MOVFF  67C,6A4
03734:  MOVFF  67B,6A3
03738:  MOVFF  67A,6A2
0373C:  MOVFF  679,6A1
03740:  MOVFF  03,6A8
03744:  MOVFF  02,6A7
03748:  MOVFF  01,6A6
0374C:  MOVFF  00,6A5
03750:  CALL   1E4E
03754:  BRA    3758
....................    } 
....................    else 
03756:  BRA    3758
....................    { 
....................    #ifdef _ERRNO 
....................    { 
....................       errno=EDOM; 
....................    } 
....................    #endif 
....................    } 
.................... } 
03758:  RETLW  00
.................... //Overloaded function for fmod() for PCD 
.................... // Overloaded function fmod() for data type - Float48 
.................... #if defined(__PCD__) 
.................... float48 fmod(float48 x,float48 y) 
.................... { 
....................    float48 i; 
....................    if (y!=0.0) 
....................    { 
....................       i=(x/y < 0.0)? ceil(x/y): floor(x/y); 
....................       return(x-(i*y)); 
....................    } 
....................    else 
....................    { 
....................    #ifdef _ERRNO 
....................    { 
....................       errno=EDOM; 
....................    } 
....................    #endif 
....................    } 
.................... } 
.................... // Overloaded function fmod() for data type - Float64 
.................... float64 fmod(float64 x,float64 y) 
.................... { 
....................    float64 i; 
....................    if (y!=0.0) 
....................    { 
....................       i=(x/y < 0.0)? ceil(x/y): floor(x/y); 
....................       return(x-(i*y)); 
....................    } 
....................    else 
....................    { 
....................    #ifdef _ERRNO 
....................    { 
....................       errno=EDOM; 
....................    } 
....................    #endif 
....................    } 
.................... } 
.................... #endif 
.................... //////////////////// Exponential and logarithmic functions //////////////////// 
.................... //////////////////////////////////////////////////////////////////////////// 
.................... //   float exp(float x) 
.................... //////////////////////////////////////////////////////////////////////////// 
.................... // Description : returns the value (e^x) 
.................... // Date : N/A 
.................... // 
.................... #define LN2 0.6931471805599453 
....................  
.................... float const pe[6] = {0.000207455774, 0.00127100575, 0.00965065093, 
....................                      0.0554965651,  0.240227138,  0.693147172}; 
....................  
....................  
.................... float32 exp(float32 x) 
.................... { 
....................    float32 y, res, r; 
....................    #if defined(__PCD__) 
....................    int8 data1; 
....................    #endif 
....................    signed int8 n; 
....................    int1 s; 
....................    #ifdef _ERRNO 
....................    if(x > 88.722838) 
....................    { 
....................       errno=ERANGE; 
....................       return(0); 
....................    } 
....................    #endif 
....................    n = (signed int16)(x/LN2); 
*
03C8A:  MOVFF  680,6A0
03C8E:  MOVFF  67F,69F
03C92:  MOVFF  67E,69E
03C96:  MOVFF  67D,69D
03C9A:  MOVLW  18
03C9C:  MOVLB  6
03C9E:  MOVWF  xA4
03CA0:  MOVLW  72
03CA2:  MOVWF  xA3
03CA4:  MOVLW  31
03CA6:  MOVWF  xA2
03CA8:  MOVLW  7E
03CAA:  MOVWF  xA1
03CAC:  MOVLB  0
03CAE:  CALL   1968
03CB2:  MOVFF  03,6A0
03CB6:  MOVFF  02,69F
03CBA:  MOVFF  01,69E
03CBE:  MOVFF  00,69D
03CC2:  CALL   1C36
03CC6:  MOVFF  01,68D
....................    s = 0; 
03CCA:  MOVLB  6
03CCC:  BCF    x8E.0
....................    y = x; 
03CCE:  MOVFF  680,684
03CD2:  MOVFF  67F,683
03CD6:  MOVFF  67E,682
03CDA:  MOVFF  67D,681
....................  
....................    if (x < 0) 
03CDE:  MOVFF  680,6A0
03CE2:  MOVFF  67F,69F
03CE6:  MOVFF  67E,69E
03CEA:  MOVFF  67D,69D
03CEE:  CLRF   xA4
03CF0:  CLRF   xA3
03CF2:  CLRF   xA2
03CF4:  CLRF   xA1
03CF6:  MOVLB  0
03CF8:  CALL   1BBC
03CFC:  BNC   3D0A
....................    { 
....................       s = 1; 
03CFE:  MOVLB  6
03D00:  BSF    x8E.0
....................       n = -n; 
03D02:  NEGF   x8D
....................       y = -y; 
03D04:  MOVF   x82,W
03D06:  XORLW  80
03D08:  MOVWF  x82
....................    } 
....................  
....................    res = 0.0; 
03D0A:  MOVLB  6
03D0C:  CLRF   x88
03D0E:  CLRF   x87
03D10:  CLRF   x86
03D12:  CLRF   x85
.................... #if !defined(__PCD__) 
....................    *((unsigned int8 *)(&res)) = n + 0x7F; 
03D14:  MOVLW  06
03D16:  MOVWF  x90
03D18:  MOVLW  85
03D1A:  MOVWF  FE9
03D1C:  MOVFF  690,FEA
03D20:  MOVLW  7F
03D22:  ADDWF  x8D,W
03D24:  MOVWF  FEF
.................... #endif 
....................  
.................... #if defined(__PCD__)  // Takes care of IEEE format for PCD 
....................    data1 = n+0x7F; 
....................    if(bit_test(data1,0)) 
....................    bit_set(*(((unsigned int8 *)(&res)+2)),7); 
....................    rotate_right(&data1,1); 
....................    bit_clear(data1,7); 
....................    *(((unsigned int8 *)(&res)+3)) = data1; 
.................... #endif 
....................  
....................    y = y/LN2 - (float32)n; 
03D26:  MOVFF  684,6A0
03D2A:  MOVFF  683,69F
03D2E:  MOVFF  682,69E
03D32:  MOVFF  681,69D
03D36:  MOVLW  18
03D38:  MOVWF  xA4
03D3A:  MOVLW  72
03D3C:  MOVWF  xA3
03D3E:  MOVLW  31
03D40:  MOVWF  xA2
03D42:  MOVLW  7E
03D44:  MOVWF  xA1
03D46:  MOVLB  0
03D48:  CALL   1968
03D4C:  MOVFF  00,68F
03D50:  MOVFF  01,690
03D54:  MOVFF  02,691
03D58:  MOVFF  03,692
03D5C:  MOVLB  6
03D5E:  CLRF   x94
03D60:  MOVFF  68D,693
03D64:  BTFSC  x93.7
03D66:  DECF   x94,F
03D68:  MOVLB  0
03D6A:  RCALL  375A
03D6C:  BSF    FD8.1
03D6E:  MOVFF  692,6A4
03D72:  MOVFF  691,6A3
03D76:  MOVFF  690,6A2
03D7A:  MOVFF  68F,6A1
03D7E:  MOVFF  03,6A8
03D82:  MOVFF  02,6A7
03D86:  MOVFF  01,6A6
03D8A:  MOVFF  00,6A5
03D8E:  CALL   1E4E
03D92:  MOVFF  03,684
03D96:  MOVFF  02,683
03D9A:  MOVFF  01,682
03D9E:  MOVFF  00,681
....................  
....................    r = pe[0]*y + pe[1]; 
03DA2:  MOVLW  7C
03DA4:  MOVLB  6
03DA6:  MOVWF  xA0
03DA8:  MOVLW  88
03DAA:  MOVWF  x9F
03DAC:  MOVLW  59
03DAE:  MOVWF  x9E
03DB0:  MOVLW  72
03DB2:  MOVWF  x9D
03DB4:  MOVFF  684,6A4
03DB8:  MOVFF  683,6A3
03DBC:  MOVFF  682,6A2
03DC0:  MOVFF  681,6A1
03DC4:  MOVLB  0
03DC6:  CALL   1AC6
03DCA:  MOVFF  00,68F
03DCE:  MOVFF  01,690
03DD2:  MOVFF  02,691
03DD6:  MOVFF  03,692
03DDA:  BCF    FD8.1
03DDC:  MOVFF  03,6A4
03DE0:  MOVFF  02,6A3
03DE4:  MOVFF  01,6A2
03DE8:  MOVFF  00,6A1
03DEC:  MOVLW  E0
03DEE:  MOVLB  6
03DF0:  MOVWF  xA8
03DF2:  MOVLW  97
03DF4:  MOVWF  xA7
03DF6:  MOVLW  26
03DF8:  MOVWF  xA6
03DFA:  MOVLW  75
03DFC:  MOVWF  xA5
03DFE:  MOVLB  0
03E00:  CALL   1E4E
03E04:  MOVFF  03,68C
03E08:  MOVFF  02,68B
03E0C:  MOVFF  01,68A
03E10:  MOVFF  00,689
....................    r = r*y + pe[2]; 
03E14:  MOVFF  68C,6A0
03E18:  MOVFF  68B,69F
03E1C:  MOVFF  68A,69E
03E20:  MOVFF  689,69D
03E24:  MOVFF  684,6A4
03E28:  MOVFF  683,6A3
03E2C:  MOVFF  682,6A2
03E30:  MOVFF  681,6A1
03E34:  CALL   1AC6
03E38:  MOVFF  00,68F
03E3C:  MOVFF  01,690
03E40:  MOVFF  02,691
03E44:  MOVFF  03,692
03E48:  BCF    FD8.1
03E4A:  MOVFF  03,6A4
03E4E:  MOVFF  02,6A3
03E52:  MOVFF  01,6A2
03E56:  MOVFF  00,6A1
03E5A:  MOVLW  C4
03E5C:  MOVLB  6
03E5E:  MOVWF  xA8
03E60:  MOVLW  1D
03E62:  MOVWF  xA7
03E64:  MOVLW  1E
03E66:  MOVWF  xA6
03E68:  MOVLW  78
03E6A:  MOVWF  xA5
03E6C:  MOVLB  0
03E6E:  CALL   1E4E
03E72:  MOVFF  03,68C
03E76:  MOVFF  02,68B
03E7A:  MOVFF  01,68A
03E7E:  MOVFF  00,689
....................    r = r*y + pe[3]; 
03E82:  MOVFF  68C,6A0
03E86:  MOVFF  68B,69F
03E8A:  MOVFF  68A,69E
03E8E:  MOVFF  689,69D
03E92:  MOVFF  684,6A4
03E96:  MOVFF  683,6A3
03E9A:  MOVFF  682,6A2
03E9E:  MOVFF  681,6A1
03EA2:  CALL   1AC6
03EA6:  MOVFF  00,68F
03EAA:  MOVFF  01,690
03EAE:  MOVFF  02,691
03EB2:  MOVFF  03,692
03EB6:  BCF    FD8.1
03EB8:  MOVFF  03,6A4
03EBC:  MOVFF  02,6A3
03EC0:  MOVFF  01,6A2
03EC4:  MOVFF  00,6A1
03EC8:  MOVLW  5E
03ECA:  MOVLB  6
03ECC:  MOVWF  xA8
03ECE:  MOVLW  50
03ED0:  MOVWF  xA7
03ED2:  MOVLW  63
03ED4:  MOVWF  xA6
03ED6:  MOVLW  7A
03ED8:  MOVWF  xA5
03EDA:  MOVLB  0
03EDC:  CALL   1E4E
03EE0:  MOVFF  03,68C
03EE4:  MOVFF  02,68B
03EE8:  MOVFF  01,68A
03EEC:  MOVFF  00,689
....................    r = r*y + pe[4]; 
03EF0:  MOVFF  68C,6A0
03EF4:  MOVFF  68B,69F
03EF8:  MOVFF  68A,69E
03EFC:  MOVFF  689,69D
03F00:  MOVFF  684,6A4
03F04:  MOVFF  683,6A3
03F08:  MOVFF  682,6A2
03F0C:  MOVFF  681,6A1
03F10:  CALL   1AC6
03F14:  MOVFF  00,68F
03F18:  MOVFF  01,690
03F1C:  MOVFF  02,691
03F20:  MOVFF  03,692
03F24:  BCF    FD8.1
03F26:  MOVFF  03,6A4
03F2A:  MOVFF  02,6A3
03F2E:  MOVFF  01,6A2
03F32:  MOVFF  00,6A1
03F36:  MOVLW  1A
03F38:  MOVLB  6
03F3A:  MOVWF  xA8
03F3C:  MOVLW  FE
03F3E:  MOVWF  xA7
03F40:  MOVLW  75
03F42:  MOVWF  xA6
03F44:  MOVLW  7C
03F46:  MOVWF  xA5
03F48:  MOVLB  0
03F4A:  CALL   1E4E
03F4E:  MOVFF  03,68C
03F52:  MOVFF  02,68B
03F56:  MOVFF  01,68A
03F5A:  MOVFF  00,689
....................    r = r*y + pe[5]; 
03F5E:  MOVFF  68C,6A0
03F62:  MOVFF  68B,69F
03F66:  MOVFF  68A,69E
03F6A:  MOVFF  689,69D
03F6E:  MOVFF  684,6A4
03F72:  MOVFF  683,6A3
03F76:  MOVFF  682,6A2
03F7A:  MOVFF  681,6A1
03F7E:  CALL   1AC6
03F82:  MOVFF  00,68F
03F86:  MOVFF  01,690
03F8A:  MOVFF  02,691
03F8E:  MOVFF  03,692
03F92:  BCF    FD8.1
03F94:  MOVFF  03,6A4
03F98:  MOVFF  02,6A3
03F9C:  MOVFF  01,6A2
03FA0:  MOVFF  00,6A1
03FA4:  MOVLW  18
03FA6:  MOVLB  6
03FA8:  MOVWF  xA8
03FAA:  MOVLW  72
03FAC:  MOVWF  xA7
03FAE:  MOVLW  31
03FB0:  MOVWF  xA6
03FB2:  MOVLW  7E
03FB4:  MOVWF  xA5
03FB6:  MOVLB  0
03FB8:  CALL   1E4E
03FBC:  MOVFF  03,68C
03FC0:  MOVFF  02,68B
03FC4:  MOVFF  01,68A
03FC8:  MOVFF  00,689
....................  
....................    res = res*(1.0 + y*r); 
03FCC:  MOVFF  684,6A0
03FD0:  MOVFF  683,69F
03FD4:  MOVFF  682,69E
03FD8:  MOVFF  681,69D
03FDC:  MOVFF  68C,6A4
03FE0:  MOVFF  68B,6A3
03FE4:  MOVFF  68A,6A2
03FE8:  MOVFF  689,6A1
03FEC:  CALL   1AC6
03FF0:  BCF    FD8.1
03FF2:  MOVLB  6
03FF4:  CLRF   xA4
03FF6:  CLRF   xA3
03FF8:  CLRF   xA2
03FFA:  MOVLW  7F
03FFC:  MOVWF  xA1
03FFE:  MOVFF  03,6A8
04002:  MOVFF  02,6A7
04006:  MOVFF  01,6A6
0400A:  MOVFF  00,6A5
0400E:  MOVLB  0
04010:  CALL   1E4E
04014:  MOVFF  688,6A0
04018:  MOVFF  687,69F
0401C:  MOVFF  686,69E
04020:  MOVFF  685,69D
04024:  MOVFF  03,6A4
04028:  MOVFF  02,6A3
0402C:  MOVFF  01,6A2
04030:  MOVFF  00,6A1
04034:  CALL   1AC6
04038:  MOVFF  03,688
0403C:  MOVFF  02,687
04040:  MOVFF  01,686
04044:  MOVFF  00,685
....................  
....................    if (s) 
04048:  MOVLB  6
0404A:  BTFSS  x8E.0
0404C:  BRA    4080
....................       res = 1.0/res; 
0404E:  CLRF   xA0
04050:  CLRF   x9F
04052:  CLRF   x9E
04054:  MOVLW  7F
04056:  MOVWF  x9D
04058:  MOVFF  688,6A4
0405C:  MOVFF  687,6A3
04060:  MOVFF  686,6A2
04064:  MOVFF  685,6A1
04068:  MOVLB  0
0406A:  CALL   1968
0406E:  MOVFF  03,688
04072:  MOVFF  02,687
04076:  MOVFF  01,686
0407A:  MOVFF  00,685
0407E:  MOVLB  6
....................    return(res); 
04080:  MOVFF  685,00
04084:  MOVFF  686,01
04088:  MOVFF  687,02
0408C:  MOVFF  688,03
.................... } 
04090:  MOVLB  0
04092:  RETLW  00
....................  
....................  
.................... //Overloaded function for exp() for PCD 
.................... // Overloaded function exp() for data type - Float48 
.................... #if defined(__PCD__) 
.................... float48 exp(float48 x) 
.................... { 
....................    float48 y, res, r; 
....................    int8 data1; 
....................    signed int8 n; 
....................    int1 s; 
....................    #ifdef _ERRNO 
....................    if(x > 88.722838) 
....................    { 
....................       errno=ERANGE; 
....................       return(0); 
....................    } 
....................    #endif 
....................    n = (signed int16)(x/LN2); 
....................    s = 0; 
....................    y = x; 
....................  
....................    if (x < 0) 
....................    { 
....................       s = 1; 
....................       n = -n; 
....................       y = -y; 
....................    } 
....................  
....................    res = 0.0; 
....................  
....................    data1 = n+0x7F; 
....................    if(bit_test(data1,0)) 
....................    bit_set(*(((unsigned int8 *)(&res)+4)),7); 
....................    rotate_right(&data1,1); 
....................    bit_clear(data1,7); 
....................    *(((unsigned int8 *)(&res)+5)) = data1; 
....................  
....................    y = y/LN2 - (float48)n; 
....................  
....................    r = pe[0]*y + pe[1]; 
....................    r = r*y + pe[2]; 
....................    r = r*y + pe[3]; 
....................    r = r*y + pe[4]; 
....................    r = r*y + pe[5]; 
....................  
....................    res = res*(1.0 + y*r); 
....................  
....................    if (s) 
....................       res = 1.0/res; 
....................    return(res); 
.................... } 
....................  
.................... // Overloaded function exp() for data type - Float64 
.................... float64 exp(float64 x) 
.................... { 
....................    float64 y, res, r; 
....................    unsigned int16 data1, data2; 
....................    unsigned int16 *p; 
....................    signed int16 n; 
....................    int1 s; 
....................    #ifdef _ERRNO 
....................    if(x > 709.7827128) 
....................    { 
....................       errno=ERANGE; 
....................       return(0); 
....................    } 
....................    #endif 
....................    n = (signed int16)(x/LN2); 
....................    s = 0; 
....................    y = x; 
....................  
....................    if (x < 0) 
....................    { 
....................       s = 1; 
....................       n = -n; 
....................       y = -y; 
....................    } 
....................  
....................    res = 0.0; 
....................  
.................... #if !defined(__PCD__) 
....................    *((unsigned int16 *)(&res)) = n + 0x7F; 
.................... #endif 
....................    p= (((unsigned int16 *)(&res))+3); 
....................    data1 = *p; 
....................    data2 = *p;    
....................    data1 = n + 0x3FF; 
....................    data1 = data1 <<4; 
....................    if(bit_test(data2,15)) 
....................    bit_set(data1,15); 
....................    data2 = data2 & 0x000F; 
....................    data1 ^= data2; 
....................  
....................    *(((unsigned int16 *)(&res)+3)) = data1; 
....................  
....................  
....................    y = y/LN2 - (float64)n; 
....................  
....................    r = pe[0]*y + pe[1]; 
....................    r = r*y + pe[2]; 
....................    r = r*y + pe[3]; 
....................    r = r*y + pe[4]; 
....................    r = r*y + pe[5]; 
....................  
....................    res = res*(1.0 + y*r); 
....................  
....................    if (s) 
....................       res = 1.0/res; 
....................    return(res); 
.................... } 
....................  
.................... #ENDIF 
....................  
....................  
.................... /************************************************************/ 
....................  
.................... float32 const pl[4] = {0.45145214, -9.0558803, 26.940971, -19.860189}; 
.................... float32 const ql[4] = {1.0000000,  -8.1354259, 16.780517, -9.9300943}; 
....................  
.................... //////////////////////////////////////////////////////////////////////////// 
.................... //   float log(float x) 
.................... //////////////////////////////////////////////////////////////////////////// 
.................... // Description : returns the the natural log of x 
.................... // Date : N/A 
.................... // 
.................... float32 log(float32 x) 
.................... { 
....................    float32 y, res, r, y2; 
....................    #if defined(__PCD__) 
....................    unsigned int8  data1,data2; 
....................    #endif 
....................    signed int8 n; 
....................    #ifdef _ERRNO 
....................    if(x <0) 
....................    { 
....................       errno=EDOM; 
....................    } 
....................    if(x ==0) 
....................    { 
....................       errno=ERANGE; 
....................       return(0); 
....................    } 
....................    #endif 
....................    y = x; 
*
037AA:  MOVFF  680,684
037AE:  MOVFF  67F,683
037B2:  MOVFF  67E,682
037B6:  MOVFF  67D,681
....................  
....................    if (y != 1.0) 
037BA:  MOVFF  684,6A0
037BE:  MOVFF  683,69F
037C2:  MOVFF  682,69E
037C6:  MOVFF  681,69D
037CA:  MOVLB  6
037CC:  CLRF   xA4
037CE:  CLRF   xA3
037D0:  CLRF   xA2
037D2:  MOVLW  7F
037D4:  MOVWF  xA1
037D6:  MOVLB  0
037D8:  CALL   1BBC
037DC:  BTFSC  FD8.2
037DE:  BRA    3C6C
....................    { 
.................... #if !defined(__PCD__) 
....................     *((unsigned int8 *)(&y)) = 0x7E;  
037E0:  MOVLW  06
037E2:  MOVLB  6
037E4:  MOVWF  x93
037E6:  MOVLW  81
037E8:  MOVWF  FE9
037EA:  MOVFF  693,FEA
037EE:  MOVLW  7E
037F0:  MOVWF  FEF
.................... #endif 
....................  
.................... #if defined(__PCD__) // Takes care of IEEE format 
....................    data2 = *(((unsigned int8 *)(&y))+3); 
....................    *(((unsigned int8 *)(&y))+3) = 0x3F; 
....................    data1 = *(((unsigned int8 *)(&y))+2); 
....................    bit_clear(data1,7); 
....................    *(((unsigned int8 *)(&y))+2) = data1; 
....................    if(bit_test(data2,7)) 
....................    bit_set(*(((unsigned int8 *)(&y))+3),7); 
.................... #endif 
....................  
....................       y = (y - 1.0)/(y + 1.0); 
037F2:  BSF    FD8.1
037F4:  MOVFF  684,6A4
037F8:  MOVFF  683,6A3
037FC:  MOVFF  682,6A2
03800:  MOVFF  681,6A1
03804:  CLRF   xA8
03806:  CLRF   xA7
03808:  CLRF   xA6
0380A:  MOVLW  7F
0380C:  MOVWF  xA5
0380E:  MOVLB  0
03810:  CALL   1E4E
03814:  MOVFF  00,692
03818:  MOVFF  01,693
0381C:  MOVFF  02,694
03820:  MOVFF  03,695
03824:  BCF    FD8.1
03826:  MOVFF  684,6A4
0382A:  MOVFF  683,6A3
0382E:  MOVFF  682,6A2
03832:  MOVFF  681,6A1
03836:  MOVLB  6
03838:  CLRF   xA8
0383A:  CLRF   xA7
0383C:  CLRF   xA6
0383E:  MOVLW  7F
03840:  MOVWF  xA5
03842:  MOVLB  0
03844:  CALL   1E4E
03848:  MOVFF  695,6A0
0384C:  MOVFF  694,69F
03850:  MOVFF  693,69E
03854:  MOVFF  692,69D
03858:  MOVFF  03,6A4
0385C:  MOVFF  02,6A3
03860:  MOVFF  01,6A2
03864:  MOVFF  00,6A1
03868:  CALL   1968
0386C:  MOVFF  03,684
03870:  MOVFF  02,683
03874:  MOVFF  01,682
03878:  MOVFF  00,681
....................  
....................       y2=y*y; 
0387C:  MOVFF  684,6A0
03880:  MOVFF  683,69F
03884:  MOVFF  682,69E
03888:  MOVFF  681,69D
0388C:  MOVFF  684,6A4
03890:  MOVFF  683,6A3
03894:  MOVFF  682,6A2
03898:  MOVFF  681,6A1
0389C:  CALL   1AC6
038A0:  MOVFF  03,690
038A4:  MOVFF  02,68F
038A8:  MOVFF  01,68E
038AC:  MOVFF  00,68D
....................  
....................       res = pl[0]*y2 + pl[1]; 
038B0:  MOVLW  BC
038B2:  MOVLB  6
038B4:  MOVWF  xA0
038B6:  MOVLW  24
038B8:  MOVWF  x9F
038BA:  MOVLW  67
038BC:  MOVWF  x9E
038BE:  MOVLW  7D
038C0:  MOVWF  x9D
038C2:  MOVFF  690,6A4
038C6:  MOVFF  68F,6A3
038CA:  MOVFF  68E,6A2
038CE:  MOVFF  68D,6A1
038D2:  MOVLB  0
038D4:  CALL   1AC6
038D8:  MOVFF  00,692
038DC:  MOVFF  01,693
038E0:  MOVFF  02,694
038E4:  MOVFF  03,695
038E8:  BCF    FD8.1
038EA:  MOVFF  03,6A4
038EE:  MOVFF  02,6A3
038F2:  MOVFF  01,6A2
038F6:  MOVFF  00,6A1
038FA:  MOVLW  E3
038FC:  MOVLB  6
038FE:  MOVWF  xA8
03900:  MOVLW  E4
03902:  MOVWF  xA7
03904:  MOVLW  90
03906:  MOVWF  xA6
03908:  MOVLW  82
0390A:  MOVWF  xA5
0390C:  MOVLB  0
0390E:  CALL   1E4E
03912:  MOVFF  03,688
03916:  MOVFF  02,687
0391A:  MOVFF  01,686
0391E:  MOVFF  00,685
....................       res = res*y2 + pl[2]; 
03922:  MOVFF  688,6A0
03926:  MOVFF  687,69F
0392A:  MOVFF  686,69E
0392E:  MOVFF  685,69D
03932:  MOVFF  690,6A4
03936:  MOVFF  68F,6A3
0393A:  MOVFF  68E,6A2
0393E:  MOVFF  68D,6A1
03942:  CALL   1AC6
03946:  MOVFF  00,692
0394A:  MOVFF  01,693
0394E:  MOVFF  02,694
03952:  MOVFF  03,695
03956:  BCF    FD8.1
03958:  MOVFF  03,6A4
0395C:  MOVFF  02,6A3
03960:  MOVFF  01,6A2
03964:  MOVFF  00,6A1
03968:  MOVLW  1C
0396A:  MOVLB  6
0396C:  MOVWF  xA8
0396E:  MOVLW  87
03970:  MOVWF  xA7
03972:  MOVLW  57
03974:  MOVWF  xA6
03976:  MOVLW  83
03978:  MOVWF  xA5
0397A:  MOVLB  0
0397C:  CALL   1E4E
03980:  MOVFF  03,688
03984:  MOVFF  02,687
03988:  MOVFF  01,686
0398C:  MOVFF  00,685
....................       res = res*y2 + pl[3]; 
03990:  MOVFF  688,6A0
03994:  MOVFF  687,69F
03998:  MOVFF  686,69E
0399C:  MOVFF  685,69D
039A0:  MOVFF  690,6A4
039A4:  MOVFF  68F,6A3
039A8:  MOVFF  68E,6A2
039AC:  MOVFF  68D,6A1
039B0:  CALL   1AC6
039B4:  MOVFF  00,692
039B8:  MOVFF  01,693
039BC:  MOVFF  02,694
039C0:  MOVFF  03,695
039C4:  BCF    FD8.1
039C6:  MOVFF  03,6A4
039CA:  MOVFF  02,6A3
039CE:  MOVFF  01,6A2
039D2:  MOVFF  00,6A1
039D6:  MOVLW  AB
039D8:  MOVLB  6
039DA:  MOVWF  xA8
039DC:  MOVLW  E1
039DE:  MOVWF  xA7
039E0:  MOVLW  9E
039E2:  MOVWF  xA6
039E4:  MOVLW  83
039E6:  MOVWF  xA5
039E8:  MOVLB  0
039EA:  CALL   1E4E
039EE:  MOVFF  03,688
039F2:  MOVFF  02,687
039F6:  MOVFF  01,686
039FA:  MOVFF  00,685
....................  
....................       r = ql[0]*y2 + ql[1]; 
039FE:  MOVLB  6
03A00:  CLRF   xA0
03A02:  CLRF   x9F
03A04:  CLRF   x9E
03A06:  MOVLW  7F
03A08:  MOVWF  x9D
03A0A:  MOVFF  690,6A4
03A0E:  MOVFF  68F,6A3
03A12:  MOVFF  68E,6A2
03A16:  MOVFF  68D,6A1
03A1A:  MOVLB  0
03A1C:  CALL   1AC6
03A20:  MOVFF  00,692
03A24:  MOVFF  01,693
03A28:  MOVFF  02,694
03A2C:  MOVFF  03,695
03A30:  BCF    FD8.1
03A32:  MOVFF  03,6A4
03A36:  MOVFF  02,6A3
03A3A:  MOVFF  01,6A2
03A3E:  MOVFF  00,6A1
03A42:  MOVLW  B4
03A44:  MOVLB  6
03A46:  MOVWF  xA8
03A48:  MOVLW  2A
03A4A:  MOVWF  xA7
03A4C:  MOVLW  82
03A4E:  MOVWF  xA6
03A50:  MOVWF  xA5
03A52:  MOVLB  0
03A54:  CALL   1E4E
03A58:  MOVFF  03,68C
03A5C:  MOVFF  02,68B
03A60:  MOVFF  01,68A
03A64:  MOVFF  00,689
....................       r = r*y2 + ql[2]; 
03A68:  MOVFF  68C,6A0
03A6C:  MOVFF  68B,69F
03A70:  MOVFF  68A,69E
03A74:  MOVFF  689,69D
03A78:  MOVFF  690,6A4
03A7C:  MOVFF  68F,6A3
03A80:  MOVFF  68E,6A2
03A84:  MOVFF  68D,6A1
03A88:  CALL   1AC6
03A8C:  MOVFF  00,692
03A90:  MOVFF  01,693
03A94:  MOVFF  02,694
03A98:  MOVFF  03,695
03A9C:  BCF    FD8.1
03A9E:  MOVFF  03,6A4
03AA2:  MOVFF  02,6A3
03AA6:  MOVFF  01,6A2
03AAA:  MOVFF  00,6A1
03AAE:  MOVLW  80
03AB0:  MOVLB  6
03AB2:  MOVWF  xA8
03AB4:  MOVLW  3E
03AB6:  MOVWF  xA7
03AB8:  MOVLW  06
03ABA:  MOVWF  xA6
03ABC:  MOVLW  83
03ABE:  MOVWF  xA5
03AC0:  MOVLB  0
03AC2:  CALL   1E4E
03AC6:  MOVFF  03,68C
03ACA:  MOVFF  02,68B
03ACE:  MOVFF  01,68A
03AD2:  MOVFF  00,689
....................       r = r*y2 + ql[3]; 
03AD6:  MOVFF  68C,6A0
03ADA:  MOVFF  68B,69F
03ADE:  MOVFF  68A,69E
03AE2:  MOVFF  689,69D
03AE6:  MOVFF  690,6A4
03AEA:  MOVFF  68F,6A3
03AEE:  MOVFF  68E,6A2
03AF2:  MOVFF  68D,6A1
03AF6:  CALL   1AC6
03AFA:  MOVFF  00,692
03AFE:  MOVFF  01,693
03B02:  MOVFF  02,694
03B06:  MOVFF  03,695
03B0A:  BCF    FD8.1
03B0C:  MOVFF  03,6A4
03B10:  MOVFF  02,6A3
03B14:  MOVFF  01,6A2
03B18:  MOVFF  00,6A1
03B1C:  MOVLW  AB
03B1E:  MOVLB  6
03B20:  MOVWF  xA8
03B22:  MOVLW  E1
03B24:  MOVWF  xA7
03B26:  MOVLW  9E
03B28:  MOVWF  xA6
03B2A:  MOVLW  82
03B2C:  MOVWF  xA5
03B2E:  MOVLB  0
03B30:  CALL   1E4E
03B34:  MOVFF  03,68C
03B38:  MOVFF  02,68B
03B3C:  MOVFF  01,68A
03B40:  MOVFF  00,689
....................  
....................       res = y*res/r; 
03B44:  MOVFF  684,6A0
03B48:  MOVFF  683,69F
03B4C:  MOVFF  682,69E
03B50:  MOVFF  681,69D
03B54:  MOVFF  688,6A4
03B58:  MOVFF  687,6A3
03B5C:  MOVFF  686,6A2
03B60:  MOVFF  685,6A1
03B64:  CALL   1AC6
03B68:  MOVFF  00,692
03B6C:  MOVFF  01,693
03B70:  MOVFF  02,694
03B74:  MOVFF  03,695
03B78:  MOVFF  03,6A0
03B7C:  MOVFF  02,69F
03B80:  MOVFF  01,69E
03B84:  MOVFF  00,69D
03B88:  MOVFF  68C,6A4
03B8C:  MOVFF  68B,6A3
03B90:  MOVFF  68A,6A2
03B94:  MOVFF  689,6A1
03B98:  CALL   1968
03B9C:  MOVFF  03,688
03BA0:  MOVFF  02,687
03BA4:  MOVFF  01,686
03BA8:  MOVFF  00,685
.................... #if !defined(__PCD__) 
....................       n = *((unsigned int8 *)(&x)) - 0x7E; 
03BAC:  MOVLW  06
03BAE:  MOVLB  6
03BB0:  MOVWF  x93
03BB2:  MOVLW  7D
03BB4:  MOVWF  FE9
03BB6:  MOVFF  693,FEA
03BBA:  MOVLW  7E
03BBC:  SUBWF  FEF,W
03BBE:  MOVWF  x91
.................... #endif 
.................... #if defined(__PCD__)  
....................     data1 = *(((unsigned int8 *)(&x)+3)); 
....................     rotate_left(&data1,1); 
....................     data2 = *(((unsigned int8 *)(&x)+2)); 
....................     if(bit_test (data2,7)) 
....................       bit_set(data1,0); 
....................     n = data1 - 0x7E; 
.................... #endif 
....................  
....................       if (n<0)  
03BC0:  BTFSC  x91.7
03BC2:  BRA    3BC6
03BC4:  BRA    3BEE
....................          r = -(float32)-n; 
03BC6:  MOVLW  00
03BC8:  BSF    FD8.0
03BCA:  SUBFWB x91,W
03BCC:  CLRF   x94
03BCE:  MOVWF  x93
03BD0:  BTFSC  x93.7
03BD2:  DECF   x94,F
03BD4:  MOVLB  0
03BD6:  RCALL  375A
03BD8:  MOVFF  00,689
03BDC:  MOVF   01,W
03BDE:  XORLW  80
03BE0:  MOVLB  6
03BE2:  MOVWF  x8A
03BE4:  MOVFF  02,68B
03BE8:  MOVFF  03,68C
....................       else 
03BEC:  BRA    3C0E
....................          r = (float32)n; 
03BEE:  CLRF   x94
03BF0:  MOVFF  691,693
03BF4:  BTFSC  x93.7
03BF6:  DECF   x94,F
03BF8:  MOVLB  0
03BFA:  RCALL  375A
03BFC:  MOVFF  03,68C
03C00:  MOVFF  02,68B
03C04:  MOVFF  01,68A
03C08:  MOVFF  00,689
03C0C:  MOVLB  6
....................  
....................       res += r*LN2; 
03C0E:  MOVFF  68C,6A0
03C12:  MOVFF  68B,69F
03C16:  MOVFF  68A,69E
03C1A:  MOVFF  689,69D
03C1E:  MOVLW  18
03C20:  MOVWF  xA4
03C22:  MOVLW  72
03C24:  MOVWF  xA3
03C26:  MOVLW  31
03C28:  MOVWF  xA2
03C2A:  MOVLW  7E
03C2C:  MOVWF  xA1
03C2E:  MOVLB  0
03C30:  CALL   1AC6
03C34:  BCF    FD8.1
03C36:  MOVFF  688,6A4
03C3A:  MOVFF  687,6A3
03C3E:  MOVFF  686,6A2
03C42:  MOVFF  685,6A1
03C46:  MOVFF  03,6A8
03C4A:  MOVFF  02,6A7
03C4E:  MOVFF  01,6A6
03C52:  MOVFF  00,6A5
03C56:  CALL   1E4E
03C5A:  MOVFF  03,688
03C5E:  MOVFF  02,687
03C62:  MOVFF  01,686
03C66:  MOVFF  00,685
....................    } 
....................  
....................    else 
03C6A:  BRA    3C78
....................       res = 0.0; 
03C6C:  MOVLB  6
03C6E:  CLRF   x88
03C70:  CLRF   x87
03C72:  CLRF   x86
03C74:  CLRF   x85
03C76:  MOVLB  0
....................  
....................    return(res); 
03C78:  MOVFF  685,00
03C7C:  MOVFF  686,01
03C80:  MOVFF  687,02
03C84:  MOVFF  688,03
.................... } 
03C88:  RETLW  00
....................  
.................... //Overloaded function for log() for PCD 
.................... // Overloaded function log() for data type - Float48 
.................... #if defined(__PCD__) 
.................... float48 log(float48 x) 
.................... { 
....................    float48 y, res, r, y2; 
....................    unsigned int8  data1,data2; 
....................    signed int8 n; 
....................    #ifdef _ERRNO 
....................    if(x <0) 
....................    { 
....................       errno=EDOM; 
....................    } 
....................    if(x ==0) 
....................    { 
....................       errno=ERANGE; 
....................       return(0); 
....................    } 
....................    #endif 
....................    y = x; 
....................  
....................    if (y != 1.0) 
....................    { 
....................     
....................    #if !defined(__PCD__) 
....................        *((unsigned int8 *)(&y)) = 0x7E;  
....................    #endif 
....................       data2 = *(((unsigned int8 *)(&y))+5); 
....................       *(((unsigned int8 *)(&y))+5) = 0x3F; 
....................       data1 = *(((unsigned int8 *)(&y))+4); 
....................       bit_clear(data1,7); 
....................       *(((unsigned int8 *)(&y))+4) = data1; 
....................    
....................       if(bit_test(data2,7)) 
....................          bit_set(*(((unsigned int8 *)(&y))+4),7); 
....................       y = (y - 1.0)/(y + 1.0); 
....................  
....................       y2=y*y; 
....................  
....................       res = pl[0]*y2 + pl[1]; 
....................       res = res*y2 + pl[2]; 
....................       res = res*y2 + pl[3]; 
....................  
....................       r = ql[0]*y2 + ql[1]; 
....................       r = r*y2 + ql[2]; 
....................       r = r*y2 + ql[3]; 
....................  
....................       res = y*res/r; 
....................  
....................     data1 = *(((unsigned int8 *)(&x)+5)); 
....................     rotate_left(&data1,1); 
....................     data2 = *(((unsigned int8 *)(&x)+4)); 
....................     if(bit_test (data2,7)) 
....................        bit_set(data1,0); 
....................       
....................     n = data1 - 0x7E; 
....................  
....................       if (n<0) 
....................          r = -(float48)-n; 
....................       else 
....................          r = (float48)n; 
....................  
....................       res += r*LN2; 
....................    } 
....................  
....................    else 
....................       res = 0.0; 
....................  
....................    return(res); 
.................... } 
....................  
.................... // Overloaded function log() for data type - Float48 
.................... #if defined(__PCD__) 
.................... float32 const pl_64[4] = {0.45145214, -9.0558803, 26.940971, -19.860189}; 
.................... float32 const ql_64[4] = {1.0000000,  -8.1354259, 16.780517, -9.9300943}; 
.................... #endif 
.................... float64 log(float64 x) 
.................... { 
....................    float64 y, res, r, y2; 
....................    unsigned int16  data1,data2; 
....................    unsigned int16 *p; 
....................    signed int16 n; 
....................    #ifdef _ERRNO 
....................    if(x <0) 
....................    { 
....................       errno=EDOM; 
....................    } 
....................    if(x ==0) 
....................    { 
....................       errno=ERANGE; 
....................       return(0); 
....................    } 
....................    #endif 
....................    y = x; 
....................  
....................    if (y != 1.0) 
....................    { 
....................    #if !defined(__PCD__) 
....................        *((unsigned int8 *)(&y)) = 0x7E;  
....................    #endif 
....................       p= (((unsigned int16 *)(&y))+3); 
....................       data1 = *p; 
....................       data2 = *p; 
....................       data1 = 0x3FE; 
....................       data1 = data1 <<4; 
....................       if(bit_test (data2,15)) 
....................       bit_set(data1,15); 
....................       data2 = data2 & 0x000F; 
....................       data1 ^=data2; 
....................  
....................       *p = data1; 
....................  
....................       y = (y - 1.0)/(y + 1.0); 
....................  
....................       y2=y*y; 
....................  
....................       res = pl_64[0]*y2 + pl_64[1]; 
....................       res = res*y2 + pl_64[2]; 
....................       res = res*y2 + pl_64[3]; 
....................  
....................       r = ql_64[0]*y2 + ql_64[1]; 
....................       r = r*y2 + ql_64[2]; 
....................       r = r*y2 + ql_64[3]; 
....................  
....................       res = y*res/r; 
....................   
....................       p= (((unsigned int16 *)(&x))+3); 
....................       data1 = *p; 
....................       bit_clear(data1,15); 
....................       data1 = data1 >>4;     
....................       n = data1 - 0x3FE; 
....................  
....................  
....................       if (n<0) 
....................          r = -(float64)-n; 
....................       else 
....................          r = (float64)n; 
....................  
....................       res += r*LN2; 
....................    } 
....................  
....................    else 
....................       res = 0.0; 
....................  
....................    return(res); 
.................... } 
.................... #endif 
....................  
....................  
.................... #define LN10 2.3025850929940456 
....................  
.................... //////////////////////////////////////////////////////////////////////////// 
.................... //   float log10(float x) 
.................... //////////////////////////////////////////////////////////////////////////// 
.................... // Description : returns the the log base 10 of x 
.................... // Date : N/A 
.................... // 
.................... float32 log10(float32 x) 
.................... { 
....................    float32 r; 
....................  
....................    r = log(x); 
....................    r = r/LN10; 
....................    return(r); 
.................... } 
....................  
.................... //Overloaded functions for log10() for PCD 
.................... // Overloaded function log10() for data type - Float48 
.................... #if defined(__PCD__) 
.................... float48 log10(float48 x) 
.................... { 
....................    float48 r; 
....................  
....................    r = log(x); 
....................    r = r/LN10; 
....................    return(r); 
.................... } 
....................  
.................... // Overloaded function log10() for data type - Float64 
.................... float64 log10(float64 x) 
.................... { 
....................    float64 r; 
....................  
....................    r = log(x); 
....................    r = r/LN10; 
....................    return(r); 
.................... } 
.................... #endif 
.................... //////////////////////////////////////////////////////////////////////////// 
.................... //   float modf(float x) 
.................... //////////////////////////////////////////////////////////////////////////// 
.................... // Description :breaks the argument value int integral and fractional parts, 
.................... // ach of which have the same sign as the argument.  It stores the integral part 
.................... // as a float in the object pointed to by the iptr 
.................... // Returns : returns the signed fractional part of value. 
.................... // Date : N/A 
.................... // 
....................  
.................... float32 modf(float32 value,float32 *iptr) 
.................... { 
....................    *iptr=(value < 0.0)? ceil(value): floor(value); 
....................    return(value - *iptr); 
.................... } 
.................... //Overloaded functions for modf() for PCD 
.................... // Overloaded function modf() for data type - Float48 
.................... #if defined(__PCD__) 
.................... float48 modf(float48 value,float48 *iptr) 
.................... { 
....................    *iptr=(value < 0.0)? ceil(value): floor(value); 
....................    return(value - *iptr); 
.................... } 
.................... // Overloaded function modf() for data type - Float64 
.................... float64 modf(float64 value,float64 *iptr) 
.................... { 
....................    *iptr=(value < 0.0)? ceil(value): floor(value); 
....................    return(value - *iptr); 
.................... } 
.................... #endif 
....................  
.................... //////////////////////////////////////////////////////////////////////////// 
.................... //   float pwr(float x,float y) 
.................... //////////////////////////////////////////////////////////////////////////// 
.................... // Description : returns the value (x^y) 
.................... // Date : N/A 
.................... // Note : 0 is returned when the function will generate an imaginary number 
.................... // 
.................... float32 pwr(float32 x,float32 y) 
.................... { 
....................    if(0 > x && fmod(y, 1) == 0) { 
....................       if(fmod(y, 2) == 0) { 
....................          return (exp(log(-x) * y)); 
....................       } else { 
....................          return (-exp(log(-x) * y)); 
....................       } 
....................    } else if(0 > x && fmod(y, 1) != 0) { 
....................       return 0; 
....................    } else { 
....................       if(x != 0 || 0 >= y) { 
....................          return (exp(log(x) * y)); 
....................       } 
....................    } 
.................... } 
.................... //Overloaded functions for pwr() for PCD 
.................... // Overloaded function pwr() for data type - Float48 
.................... #if defined(__PCD__) 
.................... float48 pwr(float48 x,float48 y) 
.................... { 
....................    if(0 > x && fmod(y, 1) == 0) { 
....................       if(fmod(y, 2) == 0) { 
....................          return (exp(log(-x) * y)); 
....................       } else { 
....................          return (-exp(log(-x) * y)); 
....................       } 
....................    } else if(0 > x && fmod(y, 1) != 0) { 
....................       return 0; 
....................    } else { 
....................       if(x != 0 || 0 >= y) { 
....................          return (exp(log(x) * y)); 
....................       } 
....................    } 
.................... } 
.................... // Overloaded function pwr() for data type - Float64 
.................... float64 pwr(float64 x,float64 y) 
.................... { 
....................    if(0 > x && fmod(y, 1) == 0) { 
....................       if(fmod(y, 2) == 0) { 
....................          return (exp(log(-x) * y)); 
....................       } else { 
....................          return (-exp(log(-x) * y)); 
....................       } 
....................    } else if(0 > x && fmod(y, 1) != 0) { 
....................       return 0; 
....................    } else { 
....................       if(x != 0 || 0 >= y) { 
....................          return (exp(log(x) * y)); 
....................       } 
....................    } 
.................... } 
.................... #endif 
....................  
.................... //////////////////// Power functions //////////////////// 
....................  
.................... //////////////////////////////////////////////////////////////////////////// 
.................... //   float pow(float x,float y) 
.................... //////////////////////////////////////////////////////////////////////////// 
.................... // Description : returns the value (x^y) 
.................... // Date : N/A 
.................... // Note : 0 is returned when the function will generate an imaginary number 
.................... // 
.................... float32 pow(float32 x,float32 y) 
.................... { 
....................    if(0 > x && fmod(y, 1) == 0) { 
*
04094:  MOVFF  674,6A0
04098:  MOVFF  673,69F
0409C:  MOVFF  672,69E
040A0:  MOVFF  671,69D
040A4:  MOVLB  6
040A6:  CLRF   xA4
040A8:  CLRF   xA3
040AA:  CLRF   xA2
040AC:  CLRF   xA1
040AE:  MOVLB  0
040B0:  CALL   1BBC
040B4:  BTFSS  FD8.0
040B6:  BRA    426A
040B8:  MOVFF  678,67C
040BC:  MOVFF  677,67B
040C0:  MOVFF  676,67A
040C4:  MOVFF  675,679
040C8:  MOVLB  6
040CA:  CLRF   x80
040CC:  CLRF   x7F
040CE:  CLRF   x7E
040D0:  MOVLW  7F
040D2:  MOVWF  x7D
040D4:  MOVLB  0
040D6:  CALL   35F2
040DA:  MOVFF  00,679
040DE:  MOVFF  01,67A
040E2:  MOVFF  02,67B
040E6:  MOVFF  03,67C
040EA:  MOVFF  03,6A0
040EE:  MOVFF  02,69F
040F2:  MOVFF  01,69E
040F6:  MOVFF  00,69D
040FA:  MOVLB  6
040FC:  CLRF   xA4
040FE:  CLRF   xA3
04100:  CLRF   xA2
04102:  CLRF   xA1
04104:  MOVLB  0
04106:  CALL   1BBC
0410A:  BTFSS  FD8.2
0410C:  BRA    426A
....................       if(fmod(y, 2) == 0) { 
0410E:  MOVFF  678,67C
04112:  MOVFF  677,67B
04116:  MOVFF  676,67A
0411A:  MOVFF  675,679
0411E:  MOVLB  6
04120:  CLRF   x80
04122:  CLRF   x7F
04124:  CLRF   x7E
04126:  MOVLW  80
04128:  MOVWF  x7D
0412A:  MOVLB  0
0412C:  CALL   35F2
04130:  MOVFF  00,679
04134:  MOVFF  01,67A
04138:  MOVFF  02,67B
0413C:  MOVFF  03,67C
04140:  MOVFF  03,6A0
04144:  MOVFF  02,69F
04148:  MOVFF  01,69E
0414C:  MOVFF  00,69D
04150:  MOVLB  6
04152:  CLRF   xA4
04154:  CLRF   xA3
04156:  CLRF   xA2
04158:  CLRF   xA1
0415A:  MOVLB  0
0415C:  CALL   1BBC
04160:  BNZ   41E4
....................          return (exp(log(-x) * y)); 
04162:  MOVFF  671,679
04166:  MOVLB  6
04168:  MOVF   x72,W
0416A:  XORLW  80
0416C:  MOVWF  x7A
0416E:  MOVFF  673,67B
04172:  MOVFF  674,67C
04176:  MOVFF  674,680
0417A:  MOVFF  673,67F
0417E:  MOVWF  x7E
04180:  MOVFF  671,67D
04184:  MOVLB  0
04186:  CALL   37AA
0418A:  MOVFF  00,679
0418E:  MOVFF  01,67A
04192:  MOVFF  02,67B
04196:  MOVFF  03,67C
0419A:  MOVFF  03,6A0
0419E:  MOVFF  02,69F
041A2:  MOVFF  01,69E
041A6:  MOVFF  00,69D
041AA:  MOVFF  678,6A4
041AE:  MOVFF  677,6A3
041B2:  MOVFF  676,6A2
041B6:  MOVFF  675,6A1
041BA:  CALL   1AC6
041BE:  MOVFF  00,679
041C2:  MOVFF  01,67A
041C6:  MOVFF  02,67B
041CA:  MOVFF  03,67C
041CE:  MOVFF  03,680
041D2:  MOVFF  02,67F
041D6:  MOVFF  01,67E
041DA:  MOVFF  00,67D
041DE:  RCALL  3C8A
041E0:  BRA    439E
....................       } else { 
041E2:  BRA    4268
....................          return (-exp(log(-x) * y)); 
041E4:  MOVFF  671,679
041E8:  MOVLB  6
041EA:  MOVF   x72,W
041EC:  XORLW  80
041EE:  MOVWF  x7A
041F0:  MOVFF  673,67B
041F4:  MOVFF  674,67C
041F8:  MOVFF  674,680
041FC:  MOVFF  673,67F
04200:  MOVWF  x7E
04202:  MOVFF  671,67D
04206:  MOVLB  0
04208:  CALL   37AA
0420C:  MOVFF  00,679
04210:  MOVFF  01,67A
04214:  MOVFF  02,67B
04218:  MOVFF  03,67C
0421C:  MOVFF  03,6A0
04220:  MOVFF  02,69F
04224:  MOVFF  01,69E
04228:  MOVFF  00,69D
0422C:  MOVFF  678,6A4
04230:  MOVFF  677,6A3
04234:  MOVFF  676,6A2
04238:  MOVFF  675,6A1
0423C:  CALL   1AC6
04240:  MOVFF  00,679
04244:  MOVFF  01,67A
04248:  MOVFF  02,67B
0424C:  MOVFF  03,67C
04250:  MOVFF  03,680
04254:  MOVFF  02,67F
04258:  MOVFF  01,67E
0425C:  MOVFF  00,67D
04260:  RCALL  3C8A
04262:  MOVLW  80
04264:  XORWF  01,F
04266:  BRA    439E
....................       } 
....................    } else if(0 > x && fmod(y, 1) != 0) { 
04268:  BRA    439E
0426A:  MOVFF  674,6A0
0426E:  MOVFF  673,69F
04272:  MOVFF  672,69E
04276:  MOVFF  671,69D
0427A:  MOVLB  6
0427C:  CLRF   xA4
0427E:  CLRF   xA3
04280:  CLRF   xA2
04282:  CLRF   xA1
04284:  MOVLB  0
04286:  CALL   1BBC
0428A:  BNC   42EC
0428C:  MOVFF  678,67C
04290:  MOVFF  677,67B
04294:  MOVFF  676,67A
04298:  MOVFF  675,679
0429C:  MOVLB  6
0429E:  CLRF   x80
042A0:  CLRF   x7F
042A2:  CLRF   x7E
042A4:  MOVLW  7F
042A6:  MOVWF  x7D
042A8:  MOVLB  0
042AA:  CALL   35F2
042AE:  MOVFF  00,679
042B2:  MOVFF  01,67A
042B6:  MOVFF  02,67B
042BA:  MOVFF  03,67C
042BE:  MOVFF  03,6A0
042C2:  MOVFF  02,69F
042C6:  MOVFF  01,69E
042CA:  MOVFF  00,69D
042CE:  MOVLB  6
042D0:  CLRF   xA4
042D2:  CLRF   xA3
042D4:  CLRF   xA2
042D6:  CLRF   xA1
042D8:  MOVLB  0
042DA:  CALL   1BBC
042DE:  BZ    42EC
....................       return 0; 
042E0:  CLRF   00
042E2:  CLRF   01
042E4:  CLRF   02
042E6:  CLRF   03
042E8:  BRA    439E
....................    } else { 
042EA:  BRA    439E
....................       if(x != 0 || 0 >= y) { 
042EC:  MOVFF  674,6A0
042F0:  MOVFF  673,69F
042F4:  MOVFF  672,69E
042F8:  MOVFF  671,69D
042FC:  MOVLB  6
042FE:  CLRF   xA4
04300:  CLRF   xA3
04302:  CLRF   xA2
04304:  CLRF   xA1
04306:  MOVLB  0
04308:  CALL   1BBC
0430C:  BNZ   4332
0430E:  MOVFF  678,6A0
04312:  MOVFF  677,69F
04316:  MOVFF  676,69E
0431A:  MOVFF  675,69D
0431E:  MOVLB  6
04320:  CLRF   xA4
04322:  CLRF   xA3
04324:  CLRF   xA2
04326:  CLRF   xA1
04328:  MOVLB  0
0432A:  CALL   1BBC
0432E:  BC    4332
04330:  BNZ   439E
....................          return (exp(log(x) * y)); 
04332:  MOVFF  674,680
04336:  MOVFF  673,67F
0433A:  MOVFF  672,67E
0433E:  MOVFF  671,67D
04342:  CALL   37AA
04346:  MOVFF  00,679
0434A:  MOVFF  01,67A
0434E:  MOVFF  02,67B
04352:  MOVFF  03,67C
04356:  MOVFF  03,6A0
0435A:  MOVFF  02,69F
0435E:  MOVFF  01,69E
04362:  MOVFF  00,69D
04366:  MOVFF  678,6A4
0436A:  MOVFF  677,6A3
0436E:  MOVFF  676,6A2
04372:  MOVFF  675,6A1
04376:  CALL   1AC6
0437A:  MOVFF  00,679
0437E:  MOVFF  01,67A
04382:  MOVFF  02,67B
04386:  MOVFF  03,67C
0438A:  MOVFF  03,680
0438E:  MOVFF  02,67F
04392:  MOVFF  01,67E
04396:  MOVFF  00,67D
0439A:  RCALL  3C8A
0439C:  BRA    439E
....................       } 
....................    } 
.................... } 
0439E:  RETLW  00
.................... //Overloaded functions for pow() for PCD 
.................... // Overloaded function for pow() data type - Float48 
.................... #if defined(__PCD__) 
.................... float48 pow(float48 x,float48 y) 
.................... { 
....................    if(0 > x && fmod(y, 1) == 0) { 
....................       if(fmod(y, 2) == 0) { 
....................          return (exp(log(-x) * y)); 
....................       } else { 
....................          return (-exp(log(-x) * y)); 
....................       } 
....................    } else if(0 > x && fmod(y, 1) != 0) { 
....................       return 0; 
....................    } else { 
....................       if(x != 0 || 0 >= y) { 
....................          return (exp(log(x) * y)); 
....................       } 
....................    } 
.................... } 
....................  
.................... // Overloaded function pow() for data type - Float64 
.................... float64 pow(float64 x,float64 y) 
.................... { 
....................    if(0 > x && fmod(y, 1) == 0) { 
....................       if(fmod(y, 2) == 0) { 
....................          return (exp(log(-x) * y)); 
....................       } else { 
....................          return (-exp(log(-x) * y)); 
....................       } 
....................    } else if(0 > x && fmod(y, 1) != 0) { 
....................       return 0; 
....................    } else { 
....................       if(x != 0 || 0 >= y) { 
....................          return (exp(log(x) * y)); 
....................       } 
....................    } 
.................... } 
.................... #endif 
....................  
.................... //////////////////////////////////////////////////////////////////////////// 
.................... //   float sqrt(float x) 
.................... //////////////////////////////////////////////////////////////////////////// 
.................... // Description : returns the square root of x 
.................... // Date : N/A 
.................... // 
.................... float32 sqrt(float32 x) 
.................... { 
....................    float32 y, res; 
....................    #if defined(__PCD__) 
....................    unsigned int16 data1,data2; 
....................    #endif 
....................    BYTE *p; 
....................  
....................    #ifdef _ERRNO 
....................    if(x < 0) 
....................    { 
....................       errno=EDOM; 
....................    } 
....................    #endif 
....................  
....................    if( x<=0.0) 
....................       return(0.0); 
....................  
....................    y=x; 
....................     
....................    #if !defined(__PCD__) 
....................     p=&y; 
....................    (*p)=(BYTE)((((unsigned int16)(*p)) + 127) >> 1); 
....................    #endif 
....................     
....................    #if defined(__PCD__) 
....................     p = (((unsigned int8 *)(&y))+3); 
....................     data1 = *(((unsigned int8 *)(&y))+3); 
....................     data2 = *(((unsigned int8 *)(&y))+2); 
....................     rotate_left(&data1,1);     
....................     if(bit_test(data2,7))     
....................     bit_set(data1,0);     
....................     data1 = ((data1+127) >>1); 
....................     bit_clear(data2,7); 
....................     if(bit_test(data1,0)) 
....................     bit_set(data2,7); 
....................     data1 = data1 >>1; 
....................     *(((unsigned int8 *)(&y))+3) = data1; 
....................     *(((unsigned int8 *)(&y))+2) = data2; 
....................      
....................   #endif 
....................  
....................    do { 
....................       res=y; 
....................       y+=(x/y); 
....................  
....................       #if !defined(__PCD__) 
....................      (*p)--; 
....................    #endif 
....................     
....................    #if defined(__PCD__) 
....................     data1 = *(((unsigned int8 *)(&y))+3); 
....................     data2 = *(((unsigned int8 *)(&y))+2); 
....................     rotate_left(&data1,1); 
....................     if(bit_test(data2,7)) 
....................     bit_set(data1,0);     
....................     data1--; 
....................     bit_clear(data2,7); 
....................     if(bit_test(data1,0)) 
....................     bit_set(data2,7); 
....................     data1 = data1 >>1; 
....................     *(((unsigned int8 *)(&y))+3) = data1; 
....................     *(((unsigned int8 *)(&y))+2) = data2; 
....................      
....................   #endif 
....................    } while(res != y); 
....................  
....................    return(res); 
.................... } 
.................... //Overloaded functions for sqrt() for PCD 
.................... // Overloaded function sqrt() for data type - Float48 
.................... #if defined(__PCD__) 
.................... float48 sqrt(float48 x) 
.................... { 
....................    float48 y, res; 
....................    unsigned int16 data1,data2; 
....................    BYTE *p; 
....................  
....................    #ifdef _ERRNO 
....................    if(x < 0) 
....................    { 
....................       errno=EDOM; 
....................    } 
....................    #endif 
....................  
....................    if( x<=0.0) 
....................       return(0.0); 
....................  
....................    y=x; 
....................     
....................    #if !defined(__PCD__) 
....................     p=&y; 
....................    (*p)=(BYTE)((((unsigned int16)(*p)) + 127) >> 1); 
....................    #endif 
....................     
....................    #if defined(__PCD__) 
....................     p = (((unsigned int8 *)(&y))+5); 
....................     data1 = *(((unsigned int8 *)(&y))+5); 
....................     data2 = *(((unsigned int8 *)(&y))+4); 
....................     rotate_left(&data1,1); 
....................     if(bit_test(data2,7)) 
....................     bit_set(data1,0);     
....................     data1 = ((data1+127) >>1); 
....................     bit_clear(data2,7); 
....................     if(bit_test(data1,0)) 
....................     bit_set(data2,7); 
....................     data1 = data1 >>1; 
....................     *(((unsigned int8 *)(&y))+5) = data1; 
....................     *(((unsigned int8 *)(&y))+4) = data2; 
....................      
....................   #endif 
....................  
....................    do { 
....................       res=y; 
....................       y+=(x/y); 
....................  
....................       #if !defined(__PCD__) 
....................      (*p)--; 
....................    #endif 
....................     
....................     data1 = *(((unsigned int8 *)(&y))+5); 
....................     data2 = *(((unsigned int8 *)(&y))+4); 
....................     rotate_left(&data1,1); 
....................     if(bit_test(data2,7)) 
....................     bit_set(data1,0);     
....................     data1--; 
....................     bit_clear(data2,7); 
....................     if(bit_test(data1,0)) 
....................     bit_set(data2,7); 
....................     data1 = data1 >>1; 
....................     *(((unsigned int8 *)(&y))+5) = data1; 
....................     *(((unsigned int8 *)(&y))+4) = data2; 
....................      
....................    } while(res != y); 
....................  
....................    return(res); 
.................... } 
....................  
.................... // Overloaded function sqrt() for data type - Float64 
.................... float64 sqrt(float64 x) 
.................... { 
....................    float64 y, res; 
....................    unsigned int16 *p; 
....................    unsigned int16 temp1,temp2; 
....................  
....................    #ifdef _ERRNO 
....................    if(x < 0) 
....................    { 
....................       errno=EDOM; 
....................    } 
....................    #endif 
....................  
....................    if( x<=0.0) 
....................       return(0.0); 
....................  
....................    y=x; 
....................    p= (((unsigned int16 *)(&y))+3); 
....................    temp1 = *p; 
....................    temp2 = *p; 
....................    bit_clear(temp1,15); 
....................    temp1 = (temp1>>4)+1023; 
....................    temp1 = temp1 >> 1; 
....................    temp1 = (temp1<<4) & 0xFFF0; 
....................    if(bit_test(temp2,15)) 
....................    bit_set(temp1,15); 
....................    temp2 = temp2 & 0x000F; 
....................    temp1 ^= temp2; 
....................     
....................    (*p) = temp1; 
....................     
....................    do { 
....................       res=y; 
....................       y+=(x/y); 
....................      temp1 = *p; 
....................      temp2 = *p; 
....................      bit_clear(temp1,15); 
....................      temp1 = (temp1>>4); 
....................      temp1--; 
....................      temp1 = (temp1<<4) & 0xFFF0; 
....................      if(bit_test(temp2,15)) 
....................      bit_set(temp1,15); 
....................      temp2 = temp2 & 0x000F; 
....................      temp1 ^= temp2; 
....................      (*p) = temp1; 
....................  
....................    } while(res != y); 
....................  
....................    return(res); 
.................... } 
.................... #endif 
....................  
.................... ////////////////////////////// Trig Functions ////////////////////////////// 
.................... #ifdef PI_DIV_BY_TWO 
.................... #undef PI_DIV_BY_TWO 
.................... #endif 
.................... #define PI_DIV_BY_TWO   1.5707963267948966 
.................... #ifdef TWOBYPI 
.................... #undef TWOBYPI 
.................... #define TWOBYPI          0.6366197723675813 
.................... #endif 
.................... //////////////////////////////////////////////////////////////////////////// 
.................... //   float cos(float x) 
.................... //////////////////////////////////////////////////////////////////////////// 
.................... // Description : returns the cosine value of the angle x, which is in radian 
.................... // Date : 9/20/2001 
.................... // 
.................... float32 cos(float32 x) 
.................... { 
....................    float32 y, t, t2 = 1.0; 
....................    unsigned int8 quad, i; 
....................    float32 frac; 
....................    float32 p[6] = {                    //by the series definition for cosine 
....................       -0.5,                            // sum ( ( (-1)^n * x^2n )/(2n)! ) 
....................        0.04166666666667, 
....................       -0.00138888888889, 
....................        0.00002480158730, 
....................       -0.00000027557319, 
....................        0.00000000208767, 
....................       //-0.00000000001147, 
....................       // 0.00000000000005 
....................    }; 
....................  
....................    if (x < 0) x = -x;                  // absolute value of input 
....................  
....................    quad = (unsigned int8)(x / PI_DIV_BY_TWO);    // quadrant 
....................    frac = (x / PI_DIV_BY_TWO) - quad;  // fractional part of input 
....................    quad = quad % 4;                    // quadrant (0 to 3) 
....................  
....................    if (quad == 0 || quad == 2) 
....................       t = frac * PI_DIV_BY_TWO; 
....................    else if (quad == 1) 
....................       t = (1-frac) * PI_DIV_BY_TWO; 
....................    else // should be 3 
....................       t = (frac-1) * PI_DIV_BY_TWO; 
....................  
....................    y = 1.0; 
....................    t = t * t; 
....................    for (i = 0; i <= 5; i++) 
....................    { 
....................       t2 = t2 * t; 
....................       y = y + p[i] * t2; 
....................    } 
....................  
....................    if (quad == 2 || quad == 1) 
....................       y = -y;  // correct sign 
....................  
....................    return (y); 
.................... } 
....................  
....................  
.................... //Overloaded functions for cos() for PCD 
.................... // Overloaded function cos() for data type - Float48 
.................... #if defined(__PCD__) 
.................... float48 cos(float48 x) 
.................... { 
....................    float48 y, t, t2 = 1.0; 
....................    unsigned int8 quad, i; 
....................    float48 frac; 
....................    float48 p[6] = {                    //by the series definition for cosine 
....................       -0.5,                            // sum ( ( (-1)^n * x^2n )/(2n)! ) 
....................        0.04166666666667, 
....................       -0.00138888888889, 
....................        0.00002480158730, 
....................       -0.00000027557319, 
....................        0.00000000208767, 
....................       //-0.00000000001147, 
....................       // 0.00000000000005 
....................    }; 
....................  
....................    if (x < 0) x = -x;                  // absolute value of input 
....................  
....................    quad = (unsigned int8)(x / PI_DIV_BY_TWO);    // quadrant 
....................    frac = (x / PI_DIV_BY_TWO) - quad;  // fractional part of input 
....................    quad = quad % 4;                    // quadrant (0 to 3) 
....................  
....................    if (quad == 0 || quad == 2) 
....................       t = frac * PI_DIV_BY_TWO; 
....................    else if (quad == 1) 
....................       t = (1-frac) * PI_DIV_BY_TWO; 
....................    else // should be 3 
....................       t = (frac-1) * PI_DIV_BY_TWO; 
....................  
....................    y = 0.999999999781; 
....................    t = t * t; 
....................    for (i = 0; i <= 5; i++) 
....................    { 
....................       t2 = t2 * t; 
....................       y = y + p[i] * t2; 
....................    } 
....................  
....................    if (quad == 2 || quad == 1) 
....................       y = -y;  // correct sign 
....................  
....................    return (y); 
.................... } 
....................  
.................... // Overloaded function cos() for data type - Float48 
.................... float64 cos(float64 x) 
.................... { 
....................    float64 y, t, t2 = 1.0; 
....................    unsigned int8 quad, i; 
....................    float64 frac; 
....................    float64 p[6] = {                    //by the series definition for cosine 
....................       -0.5,                            // sum ( ( (-1)^n * x^2n )/(2n)! ) 
....................        0.04166666666667, 
....................       -0.00138888888889, 
....................        0.00002480158730, 
....................       -0.00000027557319, 
....................        0.00000000208767, 
....................       //-0.00000000001147, 
....................       // 0.00000000000005 
....................    }; 
....................  
....................    if (x < 0) x = -x;                  // absolute value of input 
....................  
....................    quad = (unsigned int8)(x / PI_DIV_BY_TWO);    // quadrant 
....................    frac = (x / PI_DIV_BY_TWO) - quad;  // fractional part of input 
....................    quad = quad % 4;                    // quadrant (0 to 3) 
....................  
....................    if (quad == 0 || quad == 2) 
....................       t = frac * PI_DIV_BY_TWO; 
....................    else if (quad == 1) 
....................       t = (1-frac) * PI_DIV_BY_TWO; 
....................    else // should be 3 
....................       t = (frac-1) * PI_DIV_BY_TWO; 
....................  
....................    y = 0.999999999781; 
....................    t = t * t; 
....................    for (i = 0; i <= 5; i++) 
....................    { 
....................       t2 = t2 * t; 
....................       y = y + p[i] * t2; 
....................    } 
....................  
....................    if (quad == 2 || quad == 1) 
....................       y = -y;  // correct sign 
....................  
....................    return (y); 
.................... } 
....................  
.................... #endif 
....................  
.................... //////////////////////////////////////////////////////////////////////////// 
.................... //   float sin(float x) 
.................... //////////////////////////////////////////////////////////////////////////// 
.................... // Description : returns the sine value of the angle x, which is in radian 
.................... // Date : 9/20/2001 
.................... // 
.................... float32 sin(float32 x) 
.................... { 
....................    return cos(x - PI_DIV_BY_TWO); 
.................... } 
....................  
.................... //Overloaded functions for sin() for PCD 
.................... // Overloaded function sin() for data type - Float48 
.................... #if defined(__PCD__) 
.................... float48 sin(float48 x) 
.................... { 
....................    return cos(x - PI_DIV_BY_TWO); 
.................... } 
....................  
.................... // Overloaded function sin() for data type - Float48 
.................... float64 sin(float64 x) 
.................... { 
....................    return cos(x - PI_DIV_BY_TWO); 
.................... } 
.................... #endif 
....................  
.................... //////////////////////////////////////////////////////////////////////////// 
.................... //   float tan(float x) 
.................... //////////////////////////////////////////////////////////////////////////// 
.................... // Description : returns the tangent value of the angle x, which is in radian 
.................... // Date : 9/20/2001 
.................... // 
.................... float32 tan(float32 x) 
.................... { 
....................    float32 c, s; 
....................  
....................    c = cos(x); 
....................    if (c == 0.0) 
....................       return (1.0e+36); 
....................  
....................    s = sin(x); 
....................    return(s/c); 
.................... } 
.................... //Overloaded functions for tan() for PCD 
.................... // Overloaded function tan() for data type - Float48 
.................... #if defined(__PCD__) 
.................... float48 tan(float48 x) 
.................... { 
....................    float48 c, s; 
....................  
....................    c = cos(x); 
....................    if (c == 0.0) 
....................       return (1.0e+36); 
....................  
....................    s = sin(x); 
....................    return(s/c); 
.................... } 
....................  
.................... // Overloaded function tan() for data type - Float48 
.................... float64 tan(float64 x) 
.................... { 
....................    float64 c, s; 
....................  
....................    c = cos(x); 
....................    if (c == 0.0) 
....................       return (1.0e+36); 
....................  
....................    s = sin(x); 
....................    return(s/c); 
.................... } 
.................... #endif 
....................  
.................... float32 const pas[3] = {0.49559947, -4.6145309, 5.6036290}; 
.................... float32 const qas[3] = {1.0000000,  -5.5484666, 5.6036290}; 
....................  
.................... float32 ASIN_COS(float32 x, unsigned int8 n) 
.................... { 
....................    float32 y, res, r, y2; 
....................    int1 s; 
....................    #ifdef _ERRNO 
....................    if(x <-1 || x > 1) 
....................    { 
....................       errno=EDOM; 
....................    } 
....................    #endif 
....................    s = 0; 
....................    y = x; 
....................  
....................    if (x < 0) 
....................    { 
....................       s = 1; 
....................       y = -y; 
....................    } 
....................  
....................    if (y > 0.5) 
....................    { 
....................       y = sqrt((1.0 - y)/2.0); 
....................       n += 2; 
....................    } 
....................  
....................    y2=y*y; 
....................  
....................    res = pas[0]*y2 + pas[1]; 
....................    res = res*y2 + pas[2]; 
....................  
....................    r = qas[0]*y2 + qas[1]; 
....................    r = r*y2 + qas[2]; 
....................  
....................    res = y*res/r; 
....................  
....................    if (n & 2)     // |x| > 0.5 
....................       res = PI_DIV_BY_TWO - 2.0*res; 
....................    if (s) 
....................       res = -res; 
....................    if (n & 1)           // take arccos 
....................       res = PI_DIV_BY_TWO - res; 
....................  
....................    return(res); 
.................... } 
....................  
.................... //Overloaded functions for ASIN_COS() for PCD 
.................... // Overloaded function ASIN_COS() for data type - Float48 
.................... #if defined(__PCD__) 
.................... float48 ASIN_COS(float48 x, unsigned int8 n) 
.................... { 
....................    float48 y, res, r, y2; 
....................    int1 s; 
....................    #ifdef _ERRNO 
....................    if(x <-1 || x > 1) 
....................    { 
....................       errno=EDOM; 
....................    } 
....................    #endif 
....................    s = 0; 
....................    y = x; 
....................  
....................    if (x < 0) 
....................    { 
....................       s = 1; 
....................       y = -y; 
....................    } 
....................  
....................    if (y > 0.5) 
....................    { 
....................       y = sqrt((1.0 - y)/2.0); 
....................       n += 2; 
....................    } 
....................  
....................    y2=y*y; 
....................  
....................    res = pas[0]*y2 + pas[1]; 
....................    res = res*y2 + pas[2]; 
....................  
....................    r = qas[0]*y2 + qas[1]; 
....................    r = r*y2 + qas[2]; 
....................  
....................    res = y*res/r; 
....................  
....................    if (n & 2)     // |x| > 0.5 
....................       res = PI_DIV_BY_TWO - 2.0*res; 
....................    if (s) 
....................       res = -res; 
....................    if (n & 1)           // take arccos 
....................       res = PI_DIV_BY_TWO - res; 
....................  
....................    return(res); 
.................... } 
....................  
.................... // Overloaded function ASIN_COS() for data type - Float64 
.................... float64 ASIN_COS(float64 x, unsigned int8 n) 
.................... { 
....................    float64 y, res, r, y2; 
....................    int1 s; 
....................    #ifdef _ERRNO 
....................    if(x <-1 || x > 1) 
....................    { 
....................       errno=EDOM; 
....................    } 
....................    #endif 
....................    s = 0; 
....................    y = x; 
....................  
....................    if (x < 0) 
....................    { 
....................       s = 1; 
....................       y = -y; 
....................    } 
....................  
....................    if (y > 0.5) 
....................    { 
....................       y = sqrt((1.0 - y)/2.0); 
....................       n += 2; 
....................    } 
....................  
....................    y2=y*y; 
....................  
....................    res = pas[0]*y2 + pas[1]; 
....................    res = res*y2 + pas[2]; 
....................  
....................    r = qas[0]*y2 + qas[1]; 
....................    r = r*y2 + qas[2]; 
....................  
....................    res = y*res/r; 
....................  
....................    if (n & 2)     // |x| > 0.5 
....................       res = PI_DIV_BY_TWO - 2.0*res; 
....................    if (s) 
....................       res = -res; 
....................    if (n & 1)           // take arccos 
....................       res = PI_DIV_BY_TWO - res; 
....................  
....................    return(res); 
.................... } 
.................... #endif 
....................  
.................... //////////////////////////////////////////////////////////////////////////// 
.................... //   float asin(float x) 
.................... //////////////////////////////////////////////////////////////////////////// 
.................... // Description : returns the arcsine value of the value x. 
.................... // Date : N/A 
.................... // 
.................... float32 asin(float32 x) 
.................... { 
....................    float32 r; 
....................  
....................    r = ASIN_COS(x, 0); 
....................    return(r); 
.................... } 
.................... //Overloaded functions for asin() for PCD 
.................... // Overloaded function asin() for data type - Float48 
.................... #if defined(__PCD__) 
.................... float48 asin(float48 x) 
.................... { 
....................    float48 r; 
....................  
....................    r = ASIN_COS(x, 0); 
....................    return(r); 
.................... } 
....................  
.................... // Overloaded function asin() for data type - Float64 
.................... float64 asin(float64 x) 
.................... { 
....................    float64 r; 
....................  
....................    r = ASIN_COS(x, 0); 
....................    return(r); 
.................... } 
.................... #endif 
....................  
.................... //////////////////////////////////////////////////////////////////////////// 
.................... //   float acos(float x) 
.................... //////////////////////////////////////////////////////////////////////////// 
.................... // Description : returns the arccosine value of the value x. 
.................... // Date : N/A 
.................... // 
.................... float32 acos(float32 x) 
.................... { 
....................    float32 r; 
....................  
....................    r = ASIN_COS(x, 1); 
....................    return(r); 
.................... } 
.................... //Overloaded functions for acos() for PCD 
.................... // Overloaded function acos() for data type - Float48 
.................... #if defined(__PCD__) 
.................... float48 acos(float48 x) 
.................... { 
....................    float48 r; 
....................  
....................    r = ASIN_COS(x, 1); 
....................    return(r); 
.................... } 
....................  
.................... // Overloaded function acos() for data type - Float64 
.................... float64 acos(float64 x) 
.................... { 
....................    float64 r; 
....................  
....................    r = ASIN_COS(x, 1); 
....................    return(r); 
.................... } 
.................... #endif 
....................  
.................... float32 const pat[4] = {0.17630401, 5.6710795, 22.376096, 19.818457}; 
.................... float32 const qat[4] = {1.0000000,  11.368190, 28.982246, 19.818457}; 
....................  
.................... //////////////////////////////////////////////////////////////////////////// 
.................... //   float atan(float x) 
.................... //////////////////////////////////////////////////////////////////////////// 
.................... // Description : returns the arctangent value of the value x. 
.................... // Date : N/A 
.................... // 
.................... float32 atan(float32 x) 
.................... { 
....................    float32 y, res, r; 
....................    int1 s, flag; 
....................  
....................    s = 0; 
....................    flag = 0; 
....................    y = x; 
....................  
....................    if (x < 0) 
....................    { 
....................       s = 1; 
....................       y = -y; 
....................    } 
....................  
....................    if (y > 1.0) 
....................    { 
....................       y = 1.0/y; 
....................       flag = 1; 
....................    } 
....................  
....................    res = pat[0]*y*y + pat[1]; 
....................    res = res*y*y + pat[2]; 
....................    res = res*y*y + pat[3]; 
....................  
....................    r = qat[0]*y*y + qat[1]; 
....................    r = r*y*y + qat[2]; 
....................    r = r*y*y + qat[3]; 
....................  
....................    res = y*res/r; 
....................  
....................  
....................    if (flag)                              // for |x| > 1 
....................       res = PI_DIV_BY_TWO - res; 
....................    if (s) 
....................       res = -res; 
....................  
....................    return(res); 
.................... } 
.................... //Overloaded functions for atan() for PCD 
.................... // Overloaded function atan() for data type - Float48 
.................... #if defined(__PCD__) 
.................... float48 atan(float48 x) 
.................... { 
....................    float48 y, res, r; 
....................    int1 s, flag; 
....................  
....................    s = 0; 
....................    flag = 0; 
....................    y = x; 
....................  
....................    if (x < 0) 
....................    { 
....................       s = 1; 
....................       y = -y; 
....................    } 
....................  
....................    if (y > 1.0) 
....................    { 
....................       y = 1.0/y; 
....................       flag = 1; 
....................    } 
....................  
....................    res = pat[0]*y*y + pat[1]; 
....................    res = res*y*y + pat[2]; 
....................    res = res*y*y + pat[3]; 
....................  
....................    r = qat[0]*y*y + qat[1]; 
....................    r = r*y*y + qat[2]; 
....................    r = r*y*y + qat[3]; 
....................  
....................    res = y*res/r; 
....................  
....................  
....................    if (flag)                              // for |x| > 1 
....................       res = PI_DIV_BY_TWO - res; 
....................    if (s) 
....................       res = -res; 
....................  
....................    return(res); 
.................... } 
....................  
.................... // Overloaded function atan() for data type - Float64 
.................... float64 atan(float64 x) 
.................... { 
....................    float64 y, res, r; 
....................    int1 s, flag; 
....................  
....................    s = 0; 
....................    flag = 0; 
....................    y = x; 
....................  
....................    if (x < 0) 
....................    { 
....................       s = 1; 
....................       y = -y; 
....................    } 
....................  
....................    if (y > 1.0) 
....................    { 
....................       y = 1.0/y; 
....................       flag = 1; 
....................    } 
....................  
....................    res = pat[0]*y*y + pat[1]; 
....................    res = res*y*y + pat[2]; 
....................    res = res*y*y + pat[3]; 
....................  
....................    r = qat[0]*y*y + qat[1]; 
....................    r = r*y*y + qat[2]; 
....................    r = r*y*y + qat[3]; 
....................  
....................    res = y*res/r; 
....................  
....................  
....................    if (flag)                              // for |x| > 1 
....................       res = PI_DIV_BY_TWO - res; 
....................    if (s) 
....................       res = -res; 
....................  
....................    return(res); 
.................... } 
.................... #endif 
....................  
.................... ///////////////////////////////////////////////////////////////////////////// 
.................... //   float atan2(float y, float x) 
.................... ///////////////////////////////////////////////////////////////////////////// 
.................... // Description :computes the principal value of arc tangent of y/x, using the 
.................... // signs of both the arguments to determine the quadrant of the return value 
.................... // Returns : returns the arc tangent of y/x. 
.................... // Date : N/A 
.................... // 
....................  
.................... float32 atan2(float32 y,float32 x) 
.................... { 
....................    float32 z; 
....................    int1 sign; 
....................    unsigned int8 quad; 
....................    sign=0; 
....................    quad=0; //quadrant 
....................    quad=((y<=0.0)?((x<=0.0)?3:4):((x<0.0)?2:1)); 
....................    if(y<0.0) 
....................    { 
....................       sign=1; 
....................       y=-y; 
....................    } 
....................    if(x<0.0) 
....................    { 
....................       x=-x; 
....................    } 
....................    if (x==0.0) 
....................    { 
....................       if(y==0.0) 
....................       { 
....................       #ifdef _ERRNO 
....................       { 
....................          errno=EDOM; 
....................       } 
....................       #endif 
....................       } 
....................       else 
....................       { 
....................          if(sign) 
....................          { 
....................          return (-(PI_DIV_BY_TWO)); 
....................          } 
....................          else 
....................          { 
....................          return (PI_DIV_BY_TWO); 
....................          } 
....................       } 
....................    } 
....................    else 
....................    { 
....................       z=y/x; 
....................       switch(quad) 
....................       { 
....................          case 1: 
....................          { 
....................             return atan(z); 
....................             break; 
....................          } 
....................          case 2: 
....................          { 
.................... //            return (atan(z)+PI_DIV_BY_TWO);  //2L3122 
....................             return (PI-atan(z)); 
....................             break; 
....................          } 
....................          case 3: 
....................          { 
....................             return (atan(z)-PI); 
....................             break; 
....................          } 
....................          case 4: 
....................          { 
....................             return (-atan(z)); 
....................             break; 
....................          } 
....................       } 
....................    } 
.................... } 
....................  
.................... //Overloaded functions for atan2() for PCD 
.................... // Overloaded function atan2() for data type - Float48 
.................... #if defined(__PCD__) 
.................... float48 atan2(float48 y,float48 x) 
.................... { 
....................    float48 z; 
....................    int1 sign; 
....................    unsigned int8 quad; 
....................    sign=0; 
....................    quad=0; //quadrant 
....................    quad=((y<=0.0)?((x<=0.0)?3:4):((x<0.0)?2:1)); 
....................    if(y<0.0) 
....................    { 
....................       sign=1; 
....................       y=-y; 
....................    } 
....................    if(x<0.0) 
....................    { 
....................       x=-x; 
....................    } 
....................    if (x==0.0) 
....................    { 
....................       if(y==0.0) 
....................       { 
....................       #ifdef _ERRNO 
....................       { 
....................          errno=EDOM; 
....................       } 
....................       #endif 
....................       } 
....................       else 
....................       { 
....................          if(sign) 
....................          { 
....................          return (-(PI_DIV_BY_TWO)); 
....................          } 
....................          else 
....................          { 
....................          return (PI_DIV_BY_TWO); 
....................          } 
....................       } 
....................    } 
....................    else 
....................    { 
....................       z=y/x; 
....................       switch(quad) 
....................       { 
....................          case 1: 
....................          { 
....................             return atan(z); 
....................             break; 
....................          } 
....................          case 2: 
....................          { 
.................... //            return (atan(z)+PI_DIV_BY_TWO);  //2L3122 
....................             return (PI-atan(z)); 
....................             break; 
....................          } 
....................          case 3: 
....................          { 
....................             return (atan(z)-PI); 
....................             break; 
....................          } 
....................          case 4: 
....................          { 
....................             return (-atan(z)); 
....................             break; 
....................          } 
....................       } 
....................    } 
.................... } 
....................  
.................... // Overloaded function atan2() for data type - Float64 
.................... float64 atan2(float64 y,float64 x) 
.................... { 
....................    float64 z; 
....................    int1 sign; 
....................    unsigned int8 quad; 
....................    sign=0; 
....................    quad=0; //quadrant 
....................    quad=((y<=0.0)?((x<=0.0)?3:4):((x<0.0)?2:1)); 
....................    if(y<0.0) 
....................    { 
....................       sign=1; 
....................       y=-y; 
....................    } 
....................    if(x<0.0) 
....................    { 
....................       x=-x; 
....................    } 
....................    if (x==0.0) 
....................    { 
....................       if(y==0.0) 
....................       { 
....................       #ifdef _ERRNO 
....................       { 
....................          errno=EDOM; 
....................       } 
....................       #endif 
....................       } 
....................       else 
....................       { 
....................          if(sign) 
....................          { 
....................          return (-(PI_DIV_BY_TWO)); 
....................          } 
....................          else 
....................          { 
....................          return (PI_DIV_BY_TWO); 
....................          } 
....................       } 
....................    } 
....................    else 
....................    { 
....................       z=y/x; 
....................       switch(quad) 
....................       { 
....................          case 1: 
....................          { 
....................             return atan(z); 
....................             break; 
....................          } 
....................          case 2: 
....................          { 
.................... //            return (atan(z)+PI_DIV_BY_TWO);  //2L3122 
....................             return (PI-atan(z)); 
....................             break; 
....................          } 
....................          case 3: 
....................          { 
....................             return (atan(z)-PI); 
....................             break; 
....................          } 
....................          case 4: 
....................          { 
....................             return (-atan(z)); 
....................             break; 
....................          } 
....................       } 
....................    } 
.................... } 
.................... #endif 
....................  
.................... //////////////////// Hyperbolic functions //////////////////// 
....................  
.................... //////////////////////////////////////////////////////////////////////////// 
.................... //   float cosh(float x) 
.................... //////////////////////////////////////////////////////////////////////////// 
.................... // Description : Computes the hyperbolic cosine value of x 
.................... // Returns : returns the hyperbolic cosine value of x 
.................... // Date : N/A 
.................... // 
....................  
.................... float32 cosh(float32 x) 
.................... { 
....................    return ((exp(x)+exp(-x))/2); 
.................... } 
.................... //Overloaded functions for cosh() for PCD 
.................... // Overloaded function cosh() for data type - Float48 
.................... #if defined(__PCD__) 
.................... float48 cosh(float48 x) 
.................... { 
....................    return ((exp(x)+exp(-x))/2); 
.................... } 
....................  
.................... // Overloaded function cosh() for data type - Float64 
.................... float64 cosh(float64 x) 
.................... { 
....................    return ((exp(x)+exp(-x))/2); 
.................... } 
.................... #endif 
....................  
.................... //////////////////////////////////////////////////////////////////////////// 
.................... //   float sinh(float x) 
.................... //////////////////////////////////////////////////////////////////////////// 
.................... // Description : Computes the hyperbolic sine value of x 
.................... // Returns : returns the hyperbolic sine value of x 
.................... // Date : N/A 
.................... // 
....................  
.................... float32 sinh(float32 x) 
.................... { 
....................  
....................    return ((exp(x) - exp(-x))/2); 
.................... } 
.................... //Overloaded functions for sinh() for PCD 
.................... // Overloaded function sinh() for data type - Float48 
.................... #if defined(__PCD__) 
.................... float48 sinh(float48 x) 
.................... { 
....................  
....................    return ((exp(x) - exp(-x))/2); 
.................... } 
....................  
.................... // Overloaded function sinh() for data type - Float48 
.................... float64 sinh(float64 x) 
.................... { 
....................  
....................    return ((exp(x) - exp(-x))/2); 
.................... } 
.................... #endif 
....................  
.................... //////////////////////////////////////////////////////////////////////////// 
.................... //   float tanh(float x) 
.................... //////////////////////////////////////////////////////////////////////////// 
.................... // Description : Computes the hyperbolic tangent value of x 
.................... // Returns : returns the hyperbolic tangent value of x 
.................... // Date : N/A 
.................... // 
....................  
.................... float32 tanh(float32 x) 
.................... { 
....................    return(sinh(x)/cosh(x)); 
.................... } 
.................... //Overloaded functions for tanh() for PCD 
.................... // Overloaded function tanh() for data type - Float48 
.................... #if defined(__PCD__) 
.................... float48 tanh(float48 x) 
.................... { 
....................    return(sinh(x)/cosh(x)); 
.................... } 
....................  
.................... // Overloaded function tanh() for data type - Float64 
.................... float64 tanh(float64 x) 
.................... { 
....................    return(sinh(x)/cosh(x)); 
.................... } 
.................... #endif 
....................  
.................... //////////////////////////////////////////////////////////////////////////// 
.................... //   float frexp(float x, signed int *exp) 
.................... //////////////////////////////////////////////////////////////////////////// 
.................... // Description : breaks a floating point number into a normalized fraction and an integral 
.................... // power of 2. It stores the integer in the signed int object pointed to by exp. 
.................... // Returns : returns the value x, such that x is a double with magnitude in the interval 
.................... // [1/2,1) or zero, and value equals x times 2 raised to the power *exp.If value is zero, 
.................... // both parts of the result are zero. 
.................... // Date : N/A 
.................... // 
....................  
.................... #define LOG2 .30102999566398119521 
.................... float32 frexp(float32 x, signed int8 *exp) 
.................... { 
....................    float32 res; 
....................    int1 sign = 0; 
....................    if(x == 0.0) 
....................    { 
....................       *exp=0; 
....................       return (0.0); 
....................    } 
....................    if(x < 0.0) 
....................    { 
....................      x=-x; 
....................      sign=1; 
....................    } 
....................    if (x > 1.0) 
....................    { 
....................       *exp=(ceil(log10(x)/LOG2)); 
....................       res=x/(pow(2, *exp)); 
....................       if (res == 1) 
....................       { 
....................          *exp=*exp+1; 
....................           res=.5; 
....................       } 
....................    } 
....................    else 
....................    { 
....................       if(x < 0.5) 
....................       { 
....................          *exp=-1; 
....................          res=x*2; 
....................       } 
....................       else 
....................       { 
....................          *exp=0; 
....................           res=x; 
....................       } 
....................    } 
....................    if(sign) 
....................    { 
....................       res=-res; 
....................    } 
....................    return res; 
.................... } 
....................  
.................... //Overloaded functions for frexp() for PCD 
.................... // Overloaded function frexp() for data type - Float48 
.................... #if defined(__PCD__) 
.................... float48 frexp(float48 x, signed int8 *exp) 
.................... { 
....................    float48 res; 
....................    int1 sign = 0; 
....................    if(x == 0.0) 
....................    { 
....................       *exp=0; 
....................       return (0.0); 
....................    } 
....................    if(x < 0.0) 
....................    { 
....................      x=-x; 
....................      sign=1; 
....................    } 
....................    if (x > 1.0) 
....................    { 
....................       *exp=(ceil(log10(x)/LOG2)); 
....................       res=x/(pow(2, *exp)); 
....................       if (res == 1) 
....................       { 
....................          *exp=*exp+1; 
....................           res=.5; 
....................       } 
....................    } 
....................    else 
....................    { 
....................       if(x < 0.5) 
....................       { 
....................          *exp=-1; 
....................          res=x*2; 
....................       } 
....................       else 
....................       { 
....................          *exp=0; 
....................           res=x; 
....................       } 
....................    } 
....................    if(sign) 
....................    { 
....................       res=-res; 
....................    } 
....................    return res; 
.................... } 
....................  
.................... // Overloaded function frexp() for data type - Float64 
.................... float64 frexp(float64 x, signed int8 *exp) 
.................... { 
....................    float64 res; 
....................    int1 sign = 0; 
....................    if(x == 0.0) 
....................    { 
....................       *exp=0; 
....................       return (0.0); 
....................    } 
....................    if(x < 0.0) 
....................    { 
....................      x=-x; 
....................      sign=1; 
....................    } 
....................    if (x > 1.0) 
....................    { 
....................       *exp=(ceil(log10(x)/LOG2)); 
....................       res=x/(pow(2, *exp)); 
....................       if (res == 1) 
....................       { 
....................          *exp=*exp+1; 
....................           res=.5; 
....................       } 
....................    } 
....................    else 
....................    { 
....................       if(x < 0.5) 
....................       { 
....................          *exp=-1; 
....................          res=x*2; 
....................       } 
....................       else 
....................       { 
....................          *exp=0; 
....................           res=x; 
....................       } 
....................    } 
....................    if(sign) 
....................    { 
....................       res=-res; 
....................    } 
....................    return res; 
.................... } 
.................... #endif 
....................  
.................... ////////////////////////////////////////////////////////////////////////////// 
.................... //   float ldexp(float x, signed int *exp) 
.................... ////////////////////////////////////////////////////////////////////////////// 
.................... // Description : multiplies a floating point number by an integral power of 2. 
.................... // Returns : returns the value of x times 2 raised to the power exp. 
.................... // Date : N/A 
.................... // 
....................  
.................... float32 ldexp(float32 value, signed int8 exp) 
.................... { 
....................    return (value * pow(2,exp)); 
.................... } 
.................... //Overloaded functions for ldexp() for PCD 
.................... // Overloaded function ldexp() for data type - Float48 
....................  
.................... #if defined(__PCD__) 
.................... float48 ldexp(float48 value, signed int8 exp) 
.................... { 
....................    return (value * pow(2,exp)); 
.................... } 
.................... // Overloaded function ldexp() for data type - Float64 
.................... float64 ldexp(float64 value, signed int8 exp) 
.................... { 
....................    return (value * pow(2,exp)); 
.................... } 
.................... #endif 
....................  
.................... #endif 
....................  
.................... #include "HDM64GS12.c" 
.................... ///////////////////////////////////////////////////////////////////////// 
.................... ////                           HDM64GS12.c                           //// 
.................... ////                                                                 //// 
.................... //// This file contains drivers for using a Hantronix HDM64GS12 with //// 
.................... //// a KS0108 display controller. The HDM64GS12 is 128 by 64 pixels. //// 
.................... //// The driver treats the upper left pixel as (0,0).                //// 
.................... ////                                                                 //// 
.................... //// Use #define FAST_GLCD if the target chip has at least 1k of RAM //// 
.................... //// to decrease the time it takes to update the display.            //// 
.................... //// glcd_update() must then be called to update the display after   //// 
.................... //// changing the pixel information.                                 //// 
.................... //// See ex_glcd.c for suggested usage.                              //// 
.................... //// See KS0108.c for controlling a single 64 by 64 display          //// 
.................... ///////////////////////////////////////////////////////////////////////// 
.................... ////                                                                 //// 
.................... //// LCD Pin connections:                                            //// 
.................... //// (These can be changed as needed in the following defines).      //// 
.................... ////  * 1: VSS is connected to GND                                   //// 
.................... ////  * 2: VDD is connected to +5V                                   //// 
.................... ////  * 3: V0  - LCD operating voltage (Constrast adjustment)        //// 
.................... ////  * 4: D/I - Data or Instruction is connected to B2              //// 
.................... ////  * 5: R/W - Read or Write is connected to B4                    //// 
.................... ////  * 6: Enable is connected to B5                                 //// 
.................... ////  *7-14: Data Bus 0 to 7 is connected to port d                  //// 
.................... ////  *15: Chip Select 1 is connected to B0                          //// 
.................... ////  *16: Chip Select 2 is connected to B1                          //// 
.................... ////  *17: Reset is connected to C0                                  //// 
.................... ////  *18: Negative voltage is also connected to the 20k Ohm POT     //// 
.................... ////  *19: Positive voltage for LED backlight is connected to +5V    //// 
.................... ////  *20: Negavtive voltage for LED backlight is connected to GND   //// 
.................... ////                                                                 //// 
.................... ///////////////////////////////////////////////////////////////////////// 
.................... ////                                                                 //// 
.................... ////  glcd_init(mode)                                                //// 
.................... ////     * Must be called before any other function.                 //// 
.................... ////       - mode can be ON or OFF to turn the LCD on or off         //// 
.................... ////                                                                 //// 
.................... ////  glcd_pixel(x,y,color)                                          //// 
.................... ////     * Sets the pixel to the given color.                        //// 
.................... ////       - color can be ON or OFF                                  //// 
.................... ////                                                                 //// 
.................... ////  glcd_fillScreen(color)                                         //// 
.................... ////     * Fills the entire LCD with the given color.                //// 
.................... ////       - color can be ON or OFF                                  //// 
.................... ////                                                                 //// 
.................... ////  glcd_update()                                                  //// 
.................... ////     * Write the display data stored in RAM to the LCD           //// 
.................... ////     * Only available if FAST_GLCD is defined                    //// 
.................... ////                                                                 //// 
.................... ///////////////////////////////////////////////////////////////////////// 
.................... ////        (C) Copyright 1996, 2004 Custom Computer Services        //// 
.................... //// This source code may only be used by licensed users of the CCS  //// 
.................... //// C compiler.  This source code may only be distributed to other  //// 
.................... //// licensed users of the CCS C compiler.  No other use,            //// 
.................... //// reproduction or distribution is permitted without written       //// 
.................... //// permission.  Derivative programs created using this software    //// 
.................... //// in object code form are not restricted in any way.              //// 
.................... ///////////////////////////////////////////////////////////////////////// 
....................  
....................  
....................  
.................... #ifndef HDM64GS12 
.................... #define HDM64GS12 
....................  
.................... #ifndef FAST_GLCD 
.................... #define FAST_GLCD 
....................  
.................... #ifndef GLCD_WIDTH 
.................... #define GLCD_WIDTH   128 
.................... #endif 
....................  
.................... #ifndef GLCD_CS1 
.................... #define GLCD_CS1     PIN_B2   // Chip Selection 1 
.................... #endif 
....................  
.................... #ifndef GLCD_CS2 
.................... #define GLCD_CS2     PIN_B3   // Chip Selection 2 
.................... #endif 
....................  
.................... #ifndef GLCD_DI 
.................... #define GLCD_DI      PIN_B5   // Data or Instruction input 
.................... #endif 
....................  
.................... #ifndef GLCD_RW 
.................... #define GLCD_RW      PIN_B6   // Read/Write 
.................... #endif 
....................  
.................... #ifndef GLCD_E 
.................... #define GLCD_E       PIN_B7   // Enable 
.................... #endif 
....................  
.................... #ifndef GLCD_RST 
.................... #define GLCD_RST     PIN_B4   // Reset 
.................... #endif 
....................  
.................... #define GLCD_LEFT    0 
.................... #define GLCD_RIGHT   1 
....................  
.................... #ifndef ON 
.................... #define ON           1 
.................... #endif 
....................  
.................... #ifndef OFF 
.................... #define OFF          0 
.................... #endif 
....................  
.................... ///////////////////////////////////////////////////////////////////////// 
.................... // Function Prototypes 
.................... ///////////////////////////////////////////////////////////////////////// 
.................... void glcd_init(int1 mode); 
.................... void glcd_pixel(int8 x, int8 y, int1 color); 
.................... void glcd_fillScreen(int1 color); 
.................... void glcd_writeByte(int1 side, BYTE data); 
.................... BYTE glcd_readByte(int1 side); 
.................... void glcd_update(); 
.................... ///////////////////////////////////////////////////////////////////////// 
....................  
.................... #ifdef FAST_GLCD 
.................... struct 
.................... { 
....................    int8 left[512]; 
....................    int8 right[512]; 
.................... } displayData; 
.................... #endif 
....................  
....................  
.................... // Purpose:       Initialize the LCD. 
.................... //                Call before using any other LCD function. 
.................... // Inputs:        OFF - Turns the LCD off 
.................... //                ON  - Turns the LCD on 
.................... void glcd_init(int1 mode) 
.................... { 
....................    // Initialze some pins 
....................    output_high(GLCD_RST); 
*
01610:  BCF    F93.4
01612:  BSF    F8A.4
....................    output_low(GLCD_E); 
01614:  BCF    F93.7
01616:  BCF    F8A.7
....................    output_low(GLCD_CS1); 
01618:  BCF    F93.2
0161A:  BCF    F8A.2
....................    output_low(GLCD_CS2); 
0161C:  BCF    F93.3
0161E:  BCF    F8A.3
....................  
....................    output_low(GLCD_DI);                 // Set for instruction 
01620:  BCF    F93.5
01622:  BCF    F8A.5
....................    glcd_writeByte(GLCD_LEFT,  0xC0);    // Specify first RAM line at the top 
01624:  MOVLB  6
01626:  CLRF   x84
01628:  MOVLW  C0
0162A:  MOVWF  x85
0162C:  MOVLB  0
0162E:  RCALL  14C8
....................    glcd_writeByte(GLCD_RIGHT, 0xC0);    //   of the screen 
01630:  MOVLW  01
01632:  MOVLB  6
01634:  MOVWF  x84
01636:  MOVLW  C0
01638:  MOVWF  x85
0163A:  MOVLB  0
0163C:  RCALL  14C8
....................    glcd_writeByte(GLCD_LEFT,  0x40);    // Set the column address to 0 
0163E:  MOVLB  6
01640:  CLRF   x84
01642:  MOVLW  40
01644:  MOVWF  x85
01646:  MOVLB  0
01648:  RCALL  14C8
....................    glcd_writeByte(GLCD_RIGHT, 0x40); 
0164A:  MOVLW  01
0164C:  MOVLB  6
0164E:  MOVWF  x84
01650:  MOVLW  40
01652:  MOVWF  x85
01654:  MOVLB  0
01656:  RCALL  14C8
....................    glcd_writeByte(GLCD_LEFT,  0xB8);    // Set the page address to 0 
01658:  MOVLB  6
0165A:  CLRF   x84
0165C:  MOVLW  B8
0165E:  MOVWF  x85
01660:  MOVLB  0
01662:  RCALL  14C8
....................    glcd_writeByte(GLCD_RIGHT, 0xB8); 
01664:  MOVLW  01
01666:  MOVLB  6
01668:  MOVWF  x84
0166A:  MOVLW  B8
0166C:  MOVWF  x85
0166E:  MOVLB  0
01670:  RCALL  14C8
....................  
....................    if(mode == ON) 
01672:  MOVLB  6
01674:  DECFSZ x6C,W
01676:  BRA    1694
....................    { 
....................       glcd_writeByte(GLCD_LEFT,  0x3F); // Turn the display on 
01678:  CLRF   x84
0167A:  MOVLW  3F
0167C:  MOVWF  x85
0167E:  MOVLB  0
01680:  RCALL  14C8
....................       glcd_writeByte(GLCD_RIGHT, 0x3F); 
01682:  MOVLW  01
01684:  MOVLB  6
01686:  MOVWF  x84
01688:  MOVLW  3F
0168A:  MOVWF  x85
0168C:  MOVLB  0
0168E:  RCALL  14C8
....................    } 
....................    else 
01690:  BRA    16AC
01692:  MOVLB  6
....................    { 
....................       glcd_writeByte(GLCD_LEFT,  0x3E); // Turn the display off 
01694:  CLRF   x84
01696:  MOVLW  3E
01698:  MOVWF  x85
0169A:  MOVLB  0
0169C:  RCALL  14C8
....................       glcd_writeByte(GLCD_RIGHT, 0x3E); 
0169E:  MOVLW  01
016A0:  MOVLB  6
016A2:  MOVWF  x84
016A4:  MOVLW  3E
016A6:  MOVWF  x85
016A8:  MOVLB  0
016AA:  RCALL  14C8
....................    } 
....................  
....................    glcd_fillScreen(OFF);                // Clear the display 
016AC:  MOVLB  6
016AE:  CLRF   x73
016B0:  MOVLB  0
016B2:  RCALL  14FE
....................  
....................    #ifdef FAST_GLCD 
....................    glcd_update(); 
016B4:  RCALL  1558
....................    #endif 
.................... } 
016B6:  RETLW  00
....................  
....................  
.................... // Purpose:    Update the LCD with data from the display arrays 
.................... #ifdef FAST_GLCD 
.................... void glcd_update() 
.................... { 
....................    int8 i, j; 
....................    int8 *p1, *p2; 
....................  
....................    p1 = displayData.left; 
*
01558:  MOVLB  6
0155A:  CLRF   x80
0155C:  MOVLW  16
0155E:  MOVWF  x7F
....................    p2 = displayData.right; 
01560:  MOVLW  02
01562:  MOVWF  x82
01564:  MOVLW  16
01566:  MOVWF  x81
....................  
....................    // Loop through the vertical pages 
....................    for(i = 0; i < 8; ++i) 
01568:  CLRF   x7D
0156A:  MOVF   x7D,W
0156C:  SUBLW  07
0156E:  BNC   160C
....................    { 
....................       output_low(GLCD_DI);                      // Set for instruction 
01570:  BCF    F93.5
01572:  BCF    F8A.5
....................       glcd_writeByte(GLCD_LEFT, 0x40);          // Set horizontal address to 0 
01574:  CLRF   x84
01576:  MOVLW  40
01578:  MOVWF  x85
0157A:  MOVLB  0
0157C:  RCALL  14C8
....................       glcd_writeByte(GLCD_RIGHT, 0x40); 
0157E:  MOVLW  01
01580:  MOVLB  6
01582:  MOVWF  x84
01584:  MOVLW  40
01586:  MOVWF  x85
01588:  MOVLB  0
0158A:  RCALL  14C8
....................       glcd_writeByte(GLCD_LEFT, i | 0xB8);      // Set page address 
0158C:  MOVLB  6
0158E:  MOVF   x7D,W
01590:  IORLW  B8
01592:  MOVWF  x83
01594:  CLRF   x84
01596:  MOVWF  x85
01598:  MOVLB  0
0159A:  RCALL  14C8
....................       glcd_writeByte(GLCD_RIGHT, i | 0xB8); 
0159C:  MOVLB  6
0159E:  MOVF   x7D,W
015A0:  IORLW  B8
015A2:  MOVWF  x83
015A4:  MOVLW  01
015A6:  MOVWF  x84
015A8:  MOVFF  683,685
015AC:  MOVLB  0
015AE:  RCALL  14C8
....................       output_high(GLCD_DI);                     // Set for data 
015B0:  BCF    F93.5
015B2:  BSF    F8A.5
....................  
....................       // Loop through the horizontal sections 
....................       for(j = 0; j < 64; ++j) 
015B4:  MOVLB  6
015B6:  CLRF   x7E
015B8:  MOVF   x7E,W
015BA:  SUBLW  3F
015BC:  BNC   1608
....................       { 
....................          glcd_writeByte(GLCD_LEFT, *p1++);      // Turn pixels on or off 
015BE:  MOVFF  680,03
015C2:  MOVF   x7F,W
015C4:  INCF   x7F,F
015C6:  BTFSC  FD8.2
015C8:  INCF   x80,F
015CA:  MOVWF  FE9
015CC:  MOVFF  03,FEA
015D0:  MOVFF  FEF,683
015D4:  CLRF   x84
015D6:  MOVFF  683,685
015DA:  MOVLB  0
015DC:  RCALL  14C8
....................          glcd_writeByte(GLCD_RIGHT, *p2++);     // Turn pixels on or off 
015DE:  MOVLB  6
015E0:  MOVFF  682,03
015E4:  MOVF   x81,W
015E6:  INCF   x81,F
015E8:  BTFSC  FD8.2
015EA:  INCF   x82,F
015EC:  MOVWF  FE9
015EE:  MOVFF  03,FEA
015F2:  MOVFF  FEF,683
015F6:  MOVLW  01
015F8:  MOVWF  x84
015FA:  MOVFF  683,685
015FE:  MOVLB  0
01600:  RCALL  14C8
....................       } 
01602:  MOVLB  6
01604:  INCF   x7E,F
01606:  BRA    15B8
....................    } 
01608:  INCF   x7D,F
0160A:  BRA    156A
.................... } 
0160C:  MOVLB  0
0160E:  RETLW  00
.................... #endif 
....................  
....................  
.................... // Purpose:    Turn a pixel on a graphic LCD on or off 
.................... // Inputs:     1) x - the x coordinate of the pixel 
.................... //             2) y - the y coordinate of the pixel 
.................... //             3) color - ON or OFF 
.................... void glcd_pixel(int8 x, int8 y, int1 color) 
.................... #ifdef FAST_GLCD 
.................... { 
....................    int8* p; 
....................    int16 temp; 
....................    temp =  y/8; 
*
04A7A:  MOVLB  6
04A7C:  CLRF   xA5
04A7E:  RRCF   xA0,W
04A80:  MOVWF  xA4
04A82:  RRCF   xA4,F
04A84:  RRCF   xA4,F
04A86:  MOVLW  1F
04A88:  ANDWF  xA4,F
....................    temp *= 64; 
04A8A:  RLCF   xA4,F
04A8C:  RLCF   xA5,F
04A8E:  RLCF   xA4,F
04A90:  RLCF   xA5,F
04A92:  RLCF   xA4,F
04A94:  RLCF   xA5,F
04A96:  RLCF   xA4,F
04A98:  RLCF   xA5,F
04A9A:  RLCF   xA4,F
04A9C:  RLCF   xA5,F
04A9E:  RLCF   xA4,F
04AA0:  RLCF   xA5,F
04AA2:  MOVLW  C0
04AA4:  ANDWF  xA4,F
....................    temp += x; 
04AA6:  MOVF   x9F,W
04AA8:  ADDWF  xA4,F
04AAA:  MOVLW  00
04AAC:  ADDWFC xA5,F
....................  
....................    if(x > 63) 
04AAE:  MOVF   x9F,W
04AB0:  SUBLW  3F
04AB2:  BC    4ACE
....................    { 
....................       p = displayData.right + temp - 64; 
04AB4:  MOVLW  16
04AB6:  ADDWF  xA4,W
04AB8:  MOVWF  xA6
04ABA:  MOVLW  02
04ABC:  ADDWFC xA5,W
04ABE:  MOVWF  xA7
04AC0:  MOVLW  40
04AC2:  SUBWF  xA6,W
04AC4:  MOVWF  xA2
04AC6:  MOVLW  00
04AC8:  SUBWFB xA7,W
04ACA:  MOVWF  xA3
....................    } 
....................    else 
04ACC:  BRA    4ADA
....................    { 
....................       p = displayData.left + temp; 
04ACE:  MOVLW  16
04AD0:  ADDWF  xA4,W
04AD2:  MOVWF  xA2
04AD4:  MOVLW  00
04AD6:  ADDWFC xA5,W
04AD8:  MOVWF  xA3
....................    } 
....................  
....................    if(color) 
04ADA:  MOVF   xA1,F
04ADC:  BZ    4B08
....................    { 
....................       bit_set(*p, y%8); 
04ADE:  MOVFF  6A3,03
04AE2:  MOVFF  6A2,FE9
04AE6:  MOVFF  6A3,FEA
04AEA:  MOVF   xA0,W
04AEC:  ANDLW  07
04AEE:  MOVWF  xA6
04AF0:  MOVLW  01
04AF2:  MOVWF  00
04AF4:  MOVF   xA6,W
04AF6:  MOVWF  01
04AF8:  BZ    4B02
04AFA:  BCF    FD8.0
04AFC:  RLCF   00,F
04AFE:  DECFSZ 01,F
04B00:  BRA    4AFA
04B02:  MOVF   00,W
04B04:  IORWF  FEF,F
....................    } 
....................    else 
04B06:  BRA    4B32
....................    { 
....................       bit_clear(*p, y%8); 
04B08:  MOVFF  6A3,03
04B0C:  MOVFF  6A2,FE9
04B10:  MOVFF  6A3,FEA
04B14:  MOVF   xA0,W
04B16:  ANDLW  07
04B18:  MOVWF  xA6
04B1A:  MOVLW  01
04B1C:  MOVWF  00
04B1E:  MOVF   xA6,W
04B20:  MOVWF  01
04B22:  BZ    4B2C
04B24:  BCF    FD8.0
04B26:  RLCF   00,F
04B28:  DECFSZ 01,F
04B2A:  BRA    4B24
04B2C:  MOVF   00,W
04B2E:  XORLW  FF
04B30:  ANDWF  FEF,F
....................    } 
.................... } 
04B32:  MOVLB  0
04B34:  RETLW  00
.................... #else 
.................... { 
....................    BYTE data; 
....................    int1 side = GLCD_LEFT;  // Stores which chip to use on the LCD 
....................  
....................    if(x > 63)              // Check for first or second display area 
....................    { 
....................       x -= 64; 
....................       side = GLCD_RIGHT; 
....................    } 
....................  
....................    output_low(GLCD_DI);                         // Set for instruction 
....................    bit_clear(x,7);                              // Clear the MSB. Part of an instruction code 
....................    bit_set(x,6);                                // Set bit 6. Also part of an instruction code 
....................    glcd_writeByte(side, x);                     // Set the horizontal address 
....................    glcd_writeByte(side, (y/8 & 0xBF) | 0xB8);   // Set the vertical page address 
....................    output_high(GLCD_DI);                        // Set for data 
....................    glcd_readByte(side);                         // Need two reads to get data 
....................    data = glcd_readByte(side);                  //  at new address 
....................  
....................    if(color == ON) 
....................       bit_set(data, y%8);        // Turn the pixel on 
....................    else                          // or 
....................       bit_clear(data, y%8);      // turn the pixel off 
....................  
....................    output_low(GLCD_DI);          // Set for instruction 
....................    glcd_writeByte(side, x);      // Set the horizontal address 
....................    output_high(GLCD_DI);         // Set for data 
....................    glcd_writeByte(side, data);   // Write the pixel data 
.................... } 
.................... #endif 
....................  
....................  
.................... // Purpose:    Fill the LCD screen with the passed in color 
.................... // Inputs:     ON  - turn all the pixels on 
.................... //             OFF - turn all the pixels off 
.................... void glcd_fillScreen(int1 color) 
.................... #ifdef FAST_GLCD 
.................... { 
....................    int8  data; 
....................    int8  *p1, *p2; 
....................    int16 i; 
....................  
....................    p1 = displayData.left; 
*
014FE:  MOVLB  6
01500:  CLRF   x76
01502:  MOVLW  16
01504:  MOVWF  x75
....................    p2 = displayData.right; 
01506:  MOVLW  02
01508:  MOVWF  x78
0150A:  MOVLW  16
0150C:  MOVWF  x77
....................    data = 0xFF * color; 
0150E:  MOVF   x73,W
01510:  MULLW  FF
01512:  MOVFF  FF3,674
....................  
....................    for(i=0; i<512; ++i) 
01516:  CLRF   x7A
01518:  CLRF   x79
0151A:  MOVF   x7A,W
0151C:  SUBLW  01
0151E:  BNC   1554
....................    { 
....................       *p1++ = data; 
01520:  MOVFF  676,03
01524:  MOVF   x75,W
01526:  INCF   x75,F
01528:  BTFSC  FD8.2
0152A:  INCF   x76,F
0152C:  MOVWF  FE9
0152E:  MOVFF  03,FEA
01532:  MOVFF  674,FEF
....................       *p2++ = data; 
01536:  MOVFF  678,03
0153A:  MOVF   x77,W
0153C:  INCF   x77,F
0153E:  BTFSC  FD8.2
01540:  INCF   x78,F
01542:  MOVWF  FE9
01544:  MOVFF  03,FEA
01548:  MOVFF  674,FEF
....................    } 
0154C:  INCF   x79,F
0154E:  BTFSC  FD8.2
01550:  INCF   x7A,F
01552:  BRA    151A
.................... } 
01554:  MOVLB  0
01556:  RETLW  00
.................... #else 
.................... { 
....................    int8 i, j; 
....................  
....................    // Loop through the vertical pages 
....................    for(i = 0; i < 8; ++i) 
....................    { 
....................       output_low(GLCD_DI);                      // Set for instruction 
....................       glcd_writeByte(GLCD_LEFT, 0b01000000);    // Set horizontal address to 0 
....................       glcd_writeByte(GLCD_RIGHT, 0b01000000); 
....................       glcd_writeByte(GLCD_LEFT, i | 0b10111000);// Set page address 
....................       glcd_writeByte(GLCD_RIGHT, i | 0b10111000); 
....................       output_high(GLCD_DI);                     // Set for data 
....................  
....................       // Loop through the horizontal sections 
....................       for(j = 0; j < 64; ++j) 
....................       { 
....................          glcd_writeByte(GLCD_LEFT, 0xFF*color);  // Turn pixels on or off 
....................          glcd_writeByte(GLCD_RIGHT, 0xFF*color); // Turn pixels on or off 
....................       } 
....................    } 
.................... } 
.................... #endif 
....................  
....................  
.................... // Purpose:    Write a byte of data to the specified chip 
.................... // Inputs:     1) chipSelect - which chip to write the data to 
.................... //             2) data - the byte of data to write 
.................... void glcd_writeByte(int1 side, BYTE data) 
.................... { 
....................    if(side)                   // Choose which side to write to 
*
014C8:  MOVLB  6
014CA:  MOVF   x84,F
014CC:  BZ    14D4
....................       output_high(GLCD_CS2); 
014CE:  BCF    F93.3
014D0:  BSF    F8A.3
....................    else 
014D2:  BRA    14D8
....................       output_high(GLCD_CS1); 
014D4:  BCF    F93.2
014D6:  BSF    F8A.2
....................  
....................    output_low(GLCD_RW);       // Set for writing 
014D8:  BCF    F93.6
014DA:  BCF    F8A.6
....................    output_d(data);            // Put the data on the port 
014DC:  CLRF   F95
014DE:  MOVFF  685,F8C
....................    delay_cycles(1); 
014E2:  NOP   
....................    output_high(GLCD_E);       // Pulse the enable pin 
014E4:  BCF    F93.7
014E6:  BSF    F8A.7
....................    delay_cycles(5); 
014E8:  BRA    14EA
014EA:  BRA    14EC
014EC:  NOP   
....................    output_low(GLCD_E); 
014EE:  BCF    F93.7
014F0:  BCF    F8A.7
....................  
....................    output_low(GLCD_CS1);      // Reset the chip select lines 
014F2:  BCF    F93.2
014F4:  BCF    F8A.2
....................    output_low(GLCD_CS2); 
014F6:  BCF    F93.3
014F8:  BCF    F8A.3
.................... } 
014FA:  MOVLB  0
014FC:  RETLW  00
....................  
....................  
.................... // Purpose:    Reads a byte of data from the specified chip 
.................... // Ouputs:     A byte of data read from the chip 
.................... BYTE glcd_readByte(int1 side) 
.................... { 
....................    BYTE data;                 // Stores the data read from the LCD 
....................  
....................    set_tris_d(0xFF);          // Set port d to input 
....................    output_high(GLCD_RW);      // Set for reading 
....................  
....................    if(side)                   // Choose which side to write to 
....................       output_high(GLCD_CS2); 
....................    else 
....................       output_high(GLCD_CS1); 
....................  
....................    delay_cycles(1); 
....................    output_high(GLCD_E);       // Pulse the enable pin 
....................    delay_cycles(4); 
....................    data = input_d();          // Get the data from the display's output register 
....................    output_low(GLCD_E); 
....................  
....................    output_low(GLCD_CS1);      // Reset the chip select lines 
....................    output_low(GLCD_CS2); 
....................    return data;               // Return the read data 
.................... } 
....................  
.................... #endif 
....................  
.................... #include "GRAPHICS.c" 
.................... ///////////////////////////////////////////////////////////////////////// 
.................... ////                          graphics.c                             //// 
.................... ////                                                                 //// 
.................... ////   This file contains functions to draw lines, rectangles, bars, //// 
.................... ////   circles and text to a display. A function which draws a       //// 
.................... ////   single pixel must be defined before calling the functions in  //// 
.................... ////   this file. Call it glcd_pixel(x, y, color) where x is the     //// 
.................... ////   horizontal coordinate, y is the vertical coordinate, and      //// 
.................... ////   color is 1 bit to turn the pixel on or off.                   //// 
.................... ////                                                                 //// 
.................... ////   * Note: (0, 0) is treated as the upper left corner            //// 
.................... ////                                                                 //// 
.................... ///////////////////////////////////////////////////////////////////////// 
.................... ////                                                                 //// 
.................... ////  glcd_line(x1, y1, x2, y2, color)                               //// 
.................... ////     * Draws a line from the first point to the second point     //// 
.................... ////       with the given color                                      //// 
.................... ////       - color can be ON or OFF                                  //// 
.................... ////                                                                 //// 
.................... ////  glcd_rect(x1, y1, x2, y2, fill, color)                         //// 
.................... ////     * Draws a rectangle with one corner at point (x1,y1) and    //// 
.................... ////       the other corner at point (x2,y2)                         //// 
.................... ////       - fill can be YES or NO                                   //// 
.................... ////       - color can be ON or OFF                                  //// 
.................... ////                                                                 //// 
.................... ////  glcd_bar(x1, y1, x2, y2, width, color)                         //// 
.................... ////     * Draws a bar (wide line) from the first point to the       //// 
.................... ////       second point                                              //// 
.................... ////       - width is the number of pixels wide                      //// 
.................... ////       - color is ON or OFF                                      //// 
.................... ////                                                                 //// 
.................... ////  glcd_circle(x, y, radius, fill, color)                         //// 
.................... ////     * Draws a circle with center at (x,y)                       //// 
.................... ////       - fill can be YES or NO                                   //// 
.................... ////       - color can be ON or OFF                                  //// 
.................... ////                                                                 //// 
.................... ////  glcd_text57(x, y, textptr, size, color)                        //// 
.................... ////     * Write the null terminated text pointed to by textptr with //// 
.................... ////       the upper left coordinate of the first character at (x,y) //// 
.................... ////       Characters are 5 pixels wide and 7 pixels tall            //// 
.................... ////       - size is an integer that scales the size of the text     //// 
.................... ////       - color is ON or OFF                                      //// 
.................... ////     * Note - This function wraps characters to the next line    //// 
.................... ////              use #define GLCD_WIDTH to specify a display width  //// 
.................... ////                                                                 //// 
.................... ///////////////////////////////////////////////////////////////////////// 
.................... ////        (C) Copyright 1996, 2004 Custom Computer Services        //// 
.................... //// This source code may only be used by licensed users of the CCS  //// 
.................... //// C compiler.  This source code may only be distributed to other  //// 
.................... //// licensed users of the CCS C compiler.  No other use,            //// 
.................... //// reproduction or distribution is permitted without written       //// 
.................... //// permission.  Derivative programs created using this software    //// 
.................... //// in object code form are not restricted in any way.              //// 
.................... ///////////////////////////////////////////////////////////////////////// 
....................  
....................  
.................... ///////////////////////////////////////////////////////////////////////// 
.................... #ifndef GRAPHICS_DRAWING_FUNCTIONS 
.................... #define GRAPHICS_DRAWING_FUNCTIONS 
.................... ///////////////////////////////////////////////////////////////////////// 
....................  
....................  
.................... ///////////////////////////////////////////////////////////////////////// 
.................... #ifndef ON 
.................... #define ON  1 
.................... #endif 
....................  
.................... #ifndef OFF 
.................... #define OFF 0 
.................... #endif 
....................  
.................... #ifndef YES 
.................... #define YES 1 
.................... #endif 
....................  
.................... #ifndef NO 
.................... #define NO  0 
.................... #endif 
.................... ///////////////////////////////////////////////////////////////////////// 
....................  
....................  
.................... ///////////////////////////////////////////////////////////////////////// 
.................... //// Defines a 5x7 font 
.................... ///////////////////////////////////////////////////////////////////////// 
.................... const int8 FONT[51][5] ={0x00, 0x00, 0x00, 0x00, 0x00, // SPACE 
....................                          0x00, 0x00, 0x5F, 0x00, 0x00, // ! 
....................                          0x00, 0x03, 0x00, 0x03, 0x00, // " 
....................                          0x14, 0x3E, 0x14, 0x3E, 0x14, // # 
....................                          0x24, 0x2A, 0x7F, 0x2A, 0x12, // $ 
....................                          0x43, 0x33, 0x08, 0x66, 0x61, // % 
....................                          0x36, 0x49, 0x55, 0x22, 0x50, // & 
....................                          0x00, 0x05, 0x03, 0x00, 0x00, // ' 
....................                          0x00, 0x1C, 0x22, 0x41, 0x00, // ( 
....................                          0x00, 0x41, 0x22, 0x1C, 0x00, // ) 
....................                          0x14, 0x08, 0x3E, 0x08, 0x14, // * 
....................                          0x08, 0x08, 0x3E, 0x08, 0x08, // + 
....................                          0x00, 0x50, 0x30, 0x00, 0x00, // , 
....................                          0x08, 0x08, 0x08, 0x08, 0x08, // - 
....................                          0x00, 0x60, 0x60, 0x00, 0x00, // . 
....................                          0x20, 0x10, 0x08, 0x04, 0x02, // / 
....................                          0x3E, 0x51, 0x49, 0x45, 0x3E, // 0 
....................                          0x00, 0x04, 0x02, 0x7F, 0x00, // 1 
....................                          0x42, 0x61, 0x51, 0x49, 0x46, // 2 
....................                          0x22, 0x41, 0x49, 0x49, 0x36, // 3 
....................                          0x18, 0x14, 0x12, 0x7F, 0x10, // 4 
....................                          0x27, 0x45, 0x45, 0x45, 0x39, // 5 
....................                          0x3E, 0x49, 0x49, 0x49, 0x32, // 6 
....................                          0x01, 0x01, 0x71, 0x09, 0x07, // 7 
....................                          0x36, 0x49, 0x49, 0x49, 0x36, // 8 
....................                          0x26, 0x49, 0x49, 0x49, 0x3E, // 9 
....................                          0x00, 0x36, 0x36, 0x00, 0x00, // : 
....................                          0x00, 0x56, 0x36, 0x00, 0x00, // ; 
....................                          0x08, 0x14, 0x22, 0x41, 0x00, // < 
....................                          0x14, 0x14, 0x14, 0x14, 0x14, // = 
....................                          0x00, 0x41, 0x22, 0x14, 0x08, // > 
....................                          0x02, 0x01, 0x51, 0x09, 0x06, // ? 
....................                          0x3E, 0x41, 0x59, 0x55, 0x5E, // @ 
....................                          0x7E, 0x09, 0x09, 0x09, 0x7E, // A 
....................                          0x7F, 0x49, 0x49, 0x49, 0x36, // B 
....................                          0x3E, 0x41, 0x41, 0x41, 0x22, // C 
....................                          0x7F, 0x41, 0x41, 0x41, 0x3E, // D 
....................                          0x7F, 0x49, 0x49, 0x49, 0x41, // E 
....................                          0x7F, 0x09, 0x09, 0x09, 0x01, // F 
....................                          0x3E, 0x41, 0x41, 0x49, 0x3A, // G 
....................                          0x7F, 0x08, 0x08, 0x08, 0x7F, // H 
....................                          0x00, 0x41, 0x7F, 0x41, 0x00, // I 
....................                          0x30, 0x40, 0x40, 0x40, 0x3F, // J 
....................                          0x7F, 0x08, 0x14, 0x22, 0x41, // K 
....................                          0x7F, 0x40, 0x40, 0x40, 0x40, // L 
....................                          0x7F, 0x02, 0x0C, 0x02, 0x7F, // M 
....................                          0x7F, 0x02, 0x04, 0x08, 0x7F, // N 
....................                          0x3E, 0x41, 0x41, 0x41, 0x3E, // O 
....................                          0x7F, 0x09, 0x09, 0x09, 0x06, // P 
....................                          0x1E, 0x21, 0x21, 0x21, 0x5E, // Q 
....................                          0x7F, 0x09, 0x09, 0x09, 0x76};// R 
....................  
.................... const int8 FONT2[44][5]={0x26, 0x49, 0x49, 0x49, 0x32, // S 
....................                          0x01, 0x01, 0x7F, 0x01, 0x01, // T 
....................                          0x3F, 0x40, 0x40, 0x40, 0x3F, // U 
....................                          0x1F, 0x20, 0x40, 0x20, 0x1F, // V 
....................                          0x7F, 0x20, 0x10, 0x20, 0x7F, // W 
....................                          0x41, 0x22, 0x1C, 0x22, 0x41, // X 
....................                          0x07, 0x08, 0x70, 0x08, 0x07, // Y 
....................                          0x61, 0x51, 0x49, 0x45, 0x43, // Z 
....................                          0x00, 0x7F, 0x41, 0x00, 0x00, // [ 
....................                          0x02, 0x04, 0x08, 0x10, 0x20, // \ 
....................                          0x00, 0x00, 0x41, 0x7F, 0x00, // ] 
....................                          0x04, 0x02, 0x01, 0x02, 0x04, // ^ 
....................                          0x40, 0x40, 0x40, 0x40, 0x40, // _ 
....................                          0x00, 0x01, 0x02, 0x04, 0x00, // ` 
....................                          0x20, 0x54, 0x54, 0x54, 0x78, // a 
....................                          0x7F, 0x44, 0x44, 0x44, 0x38, // b 
....................                          0x38, 0x44, 0x44, 0x44, 0x44, // c 
....................                          0x38, 0x44, 0x44, 0x44, 0x7F, // d 
....................                          0x38, 0x54, 0x54, 0x54, 0x18, // e 
....................                          0x04, 0x04, 0x7E, 0x05, 0x05, // f 
....................                          0x08, 0x54, 0x54, 0x54, 0x3C, // g 
....................                          0x7F, 0x08, 0x04, 0x04, 0x78, // h 
....................                          0x00, 0x44, 0x7D, 0x40, 0x00, // i 
....................                          0x20, 0x40, 0x44, 0x3D, 0x00, // j 
....................                          0x7F, 0x10, 0x28, 0x44, 0x00, // k 
....................                          0x00, 0x41, 0x7F, 0x40, 0x00, // l 
....................                          0x7C, 0x04, 0x78, 0x04, 0x78, // m 
....................                          0x7C, 0x08, 0x04, 0x04, 0x78, // n 
....................                          0x38, 0x44, 0x44, 0x44, 0x38, // o 
....................                          0x7C, 0x14, 0x14, 0x14, 0x08, // p 
....................                          0x08, 0x14, 0x14, 0x14, 0x7C, // q 
....................                          0x00, 0x7C, 0x08, 0x04, 0x04, // r 
....................                          0x48, 0x54, 0x54, 0x54, 0x20, // s 
....................                          0x04, 0x04, 0x3F, 0x44, 0x44, // t 
....................                          0x3C, 0x40, 0x40, 0x20, 0x7C, // u 
....................                          0x1C, 0x20, 0x40, 0x20, 0x1C, // v 
....................                          0x3C, 0x40, 0x30, 0x40, 0x3C, // w 
....................                          0x44, 0x28, 0x10, 0x28, 0x44, // x 
....................                          0x0C, 0x50, 0x50, 0x50, 0x3C, // y 
....................                          0x44, 0x64, 0x54, 0x4C, 0x44, // z 
....................                          0x00, 0x08, 0x36, 0x41, 0x41, // { 
....................                          0x00, 0x00, 0x7F, 0x00, 0x00, // | 
....................                          0x41, 0x41, 0x36, 0x08, 0x00, // } 
....................                          0x02, 0x01, 0x02, 0x04, 0x02};// ~ 
.................... ///////////////////////////////////////////////////////////////////////// 
....................  
....................  
.................... ///////////////////////////////////////////////////////////////////////// 
.................... // Purpose:       Draw a line on a graphic LCD using Bresenham's 
.................... //                line drawing algorithm 
.................... // Inputs:        (x1, y1) - the start coordinate 
.................... //                (x2, y2) - the end coordinate 
.................... //                color - ON or OFF 
.................... // Dependencies:  glcd_pixel() 
.................... ///////////////////////////////////////////////////////////////////////// 
.................... #ifdef LARGE_LCD 
.................... void glcd_line(int16 x1, int16 y1, int16 x2, int16 y2, int1 color) 
.................... #else 
.................... void glcd_line(int8 x1, int8 y1, int8 x2, int8 y2, int1 color) 
.................... #endif 
.................... { 
*
04B36:  MOVLW  01
04B38:  MOVLB  6
04B3A:  MOVWF  x98
04B3C:  MOVWF  x99
04B3E:  CLRF   x9E
....................    int16        dy, dx; 
....................    signed int8  addx=1, addy=1; 
....................    signed int16 P, diff; 
....................  
....................    #ifdef LARGE_LCD 
....................    int16 i=0; 
....................    dx = abs((signed int16)(x2 - x1)); 
....................    dy = abs((signed int16)(y2 - y1)); 
....................    #else 
....................    int8 i=0; 
....................    dx = abs((signed int8)(x2 - x1)); 
04B40:  MOVF   x8F,W
04B42:  SUBWF  x91,W
04B44:  MOVWF  x9F
04B46:  MOVF   x9F,W
04B48:  BTFSS  x9F.7
04B4A:  BRA    4B52
04B4C:  MOVLW  00
04B4E:  BSF    FD8.0
04B50:  SUBFWB x9F,W
04B52:  CLRF   03
04B54:  MOVWF  x96
04B56:  MOVFF  03,697
....................    dy = abs((signed int8)(y2 - y1)); 
04B5A:  MOVF   x90,W
04B5C:  SUBWF  x92,W
04B5E:  MOVWF  x9F
04B60:  MOVF   x9F,W
04B62:  BTFSS  x9F.7
04B64:  BRA    4B6C
04B66:  MOVLW  00
04B68:  BSF    FD8.0
04B6A:  SUBFWB x9F,W
04B6C:  CLRF   03
04B6E:  MOVWF  x94
04B70:  MOVFF  03,695
....................    #endif 
....................  
....................    if(x1 > x2) 
04B74:  MOVF   x8F,W
04B76:  SUBWF  x91,W
04B78:  BC    4B7E
....................       addx = -1; 
04B7A:  MOVLW  FF
04B7C:  MOVWF  x98
....................    if(y1 > y2) 
04B7E:  MOVF   x90,W
04B80:  SUBWF  x92,W
04B82:  BC    4B88
....................       addy = -1; 
04B84:  MOVLW  FF
04B86:  MOVWF  x99
....................  
....................    if(dx >= dy) 
04B88:  MOVF   x95,W
04B8A:  SUBWF  x97,W
04B8C:  BNC   4C04
04B8E:  BNZ   4B96
04B90:  MOVF   x94,W
04B92:  SUBWF  x96,W
04B94:  BNC   4C04
....................    { 
....................       dy *= 2; 
04B96:  BCF    FD8.0
04B98:  RLCF   x94,F
04B9A:  RLCF   x95,F
....................       P = dy - dx; 
04B9C:  MOVF   x96,W
04B9E:  SUBWF  x94,W
04BA0:  MOVWF  00
04BA2:  MOVF   x97,W
04BA4:  SUBWFB x95,W
04BA6:  MOVFF  00,69A
04BAA:  MOVWF  x9B
....................       diff = P - dx; 
04BAC:  MOVF   x96,W
04BAE:  SUBWF  x9A,W
04BB0:  MOVWF  x9C
04BB2:  MOVF   x97,W
04BB4:  SUBWFB x9B,W
04BB6:  MOVWF  x9D
....................  
....................       for(; i<=dx; ++i) 
04BB8:  MOVF   x97,F
04BBA:  BNZ   4BC2
04BBC:  MOVF   x9E,W
04BBE:  SUBWF  x96,W
04BC0:  BNC   4C02
....................       { 
....................          glcd_pixel(x1, y1, color); 
04BC2:  MOVFF  68F,69F
04BC6:  MOVFF  690,6A0
04BCA:  MOVFF  693,6A1
04BCE:  MOVLB  0
04BD0:  RCALL  4A7A
....................  
....................          if(P < 0) 
04BD2:  MOVLB  6
04BD4:  BTFSC  x9B.7
04BD6:  BRA    4BDA
04BD8:  BRA    4BEA
....................          { 
....................             P  += dy; 
04BDA:  MOVF   x94,W
04BDC:  ADDWF  x9A,F
04BDE:  MOVF   x95,W
04BE0:  ADDWFC x9B,F
....................             x1 += addx; 
04BE2:  MOVF   x98,W
04BE4:  ADDWF  x8F,W
04BE6:  MOVWF  x8F
....................          } 
....................          else 
04BE8:  BRA    4BFE
....................          { 
....................             P  += diff; 
04BEA:  MOVF   x9C,W
04BEC:  ADDWF  x9A,F
04BEE:  MOVF   x9D,W
04BF0:  ADDWFC x9B,F
....................             x1 += addx; 
04BF2:  MOVF   x98,W
04BF4:  ADDWF  x8F,W
04BF6:  MOVWF  x8F
....................             y1 += addy; 
04BF8:  MOVF   x99,W
04BFA:  ADDWF  x90,W
04BFC:  MOVWF  x90
....................          } 
....................       } 
04BFE:  INCF   x9E,F
04C00:  BRA    4BB8
....................    } 
....................    else 
04C02:  BRA    4C70
....................    { 
....................       dx *= 2; 
04C04:  BCF    FD8.0
04C06:  RLCF   x96,F
04C08:  RLCF   x97,F
....................       P = dx - dy; 
04C0A:  MOVF   x94,W
04C0C:  SUBWF  x96,W
04C0E:  MOVWF  00
04C10:  MOVF   x95,W
04C12:  SUBWFB x97,W
04C14:  MOVFF  00,69A
04C18:  MOVWF  x9B
....................       diff = P - dy; 
04C1A:  MOVF   x94,W
04C1C:  SUBWF  x9A,W
04C1E:  MOVWF  x9C
04C20:  MOVF   x95,W
04C22:  SUBWFB x9B,W
04C24:  MOVWF  x9D
....................  
....................       for(; i<=dy; ++i) 
04C26:  MOVF   x95,F
04C28:  BNZ   4C30
04C2A:  MOVF   x9E,W
04C2C:  SUBWF  x94,W
04C2E:  BNC   4C70
....................       { 
....................          glcd_pixel(x1, y1, color); 
04C30:  MOVFF  68F,69F
04C34:  MOVFF  690,6A0
04C38:  MOVFF  693,6A1
04C3C:  MOVLB  0
04C3E:  RCALL  4A7A
....................  
....................          if(P < 0) 
04C40:  MOVLB  6
04C42:  BTFSC  x9B.7
04C44:  BRA    4C48
04C46:  BRA    4C58
....................          { 
....................             P  += dx; 
04C48:  MOVF   x96,W
04C4A:  ADDWF  x9A,F
04C4C:  MOVF   x97,W
04C4E:  ADDWFC x9B,F
....................             y1 += addy; 
04C50:  MOVF   x99,W
04C52:  ADDWF  x90,W
04C54:  MOVWF  x90
....................          } 
....................          else 
04C56:  BRA    4C6C
....................          { 
....................             P  += diff; 
04C58:  MOVF   x9C,W
04C5A:  ADDWF  x9A,F
04C5C:  MOVF   x9D,W
04C5E:  ADDWFC x9B,F
....................             x1 += addx; 
04C60:  MOVF   x98,W
04C62:  ADDWF  x8F,W
04C64:  MOVWF  x8F
....................             y1 += addy; 
04C66:  MOVF   x99,W
04C68:  ADDWF  x90,W
04C6A:  MOVWF  x90
....................          } 
....................       } 
04C6C:  INCF   x9E,F
04C6E:  BRA    4C26
....................    } 
.................... } 
04C70:  MOVLB  0
04C72:  RETLW  00
....................  
....................  
.................... ///////////////////////////////////////////////////////////////////////// 
.................... // Purpose:       Draw a rectangle on a graphic LCD 
.................... // Inputs:        (x1, y1) - the start coordinate 
.................... //                (x2, y2) - the end coordinate 
.................... //                fill  - YES or NO 
.................... //                color - ON or OFF 
.................... // Dependencies:  glcd_pixel(), glcd_line() 
.................... ///////////////////////////////////////////////////////////////////////// 
.................... #ifdef LARGE_LCD 
.................... void glcd_rect(int16 x1, int16 y1, int16 x2, int16 y2, int1 fill, int1 color) 
.................... #else 
.................... void glcd_rect(int8 x1, int8 y1, int8 x2, int8 y2, int1 fill, int1 color) 
.................... #endif 
.................... { 
....................    if(fill) 
04C74:  MOVLB  6
04C76:  MOVF   x88,F
04C78:  BZ    4CD6
....................    { 
....................       #ifdef LARGE_LCD 
....................       int16 i, xmin, xmax, ymin, ymax; 
....................       #else 
....................       int8  i, xmin, xmax, ymin, ymax; 
....................       #endif 
....................  
....................       if(x1 < x2)                            //  Find x min and max 
04C7A:  MOVF   x86,W
04C7C:  SUBWF  x84,W
04C7E:  BC    4C8A
....................       { 
....................          xmin = x1; 
04C80:  MOVFF  684,68B
....................          xmax = x2; 
04C84:  MOVFF  686,68C
....................       } 
....................       else 
04C88:  BRA    4C92
....................       { 
....................          xmin = x2; 
04C8A:  MOVFF  686,68B
....................          xmax = x1; 
04C8E:  MOVFF  684,68C
....................       } 
....................  
....................       if(y1 < y2)                            // Find the y min and max 
04C92:  MOVF   x87,W
04C94:  SUBWF  x85,W
04C96:  BC    4CA2
....................       { 
....................          ymin = y1; 
04C98:  MOVFF  685,68D
....................          ymax = y2; 
04C9C:  MOVFF  687,68E
....................       } 
....................       else 
04CA0:  BRA    4CAA
....................       { 
....................          ymin = y2; 
04CA2:  MOVFF  687,68D
....................          ymax = y1; 
04CA6:  MOVFF  685,68E
....................       } 
....................  
....................       for(; xmin <= xmax; ++xmin) 
04CAA:  MOVF   x8B,W
04CAC:  SUBWF  x8C,W
04CAE:  BNC   4CD4
....................       { 
....................          for(i=ymin; i<=ymax; ++i) 
04CB0:  MOVFF  68D,68A
04CB4:  MOVF   x8A,W
04CB6:  SUBWF  x8E,W
04CB8:  BNC   4CD0
....................          { 
....................             glcd_pixel(xmin, i, color); 
04CBA:  MOVFF  68B,69F
04CBE:  MOVFF  68A,6A0
04CC2:  MOVFF  689,6A1
04CC6:  MOVLB  0
04CC8:  RCALL  4A7A
....................          } 
04CCA:  MOVLB  6
04CCC:  INCF   x8A,F
04CCE:  BRA    4CB4
....................       } 
04CD0:  INCF   x8B,F
04CD2:  BRA    4CAA
....................    } 
....................    else 
04CD4:  BRA    4D32
....................    { 
....................       glcd_line(x1, y1, x2, y1, color);      // Draw the 4 sides 
04CD6:  MOVFF  684,68F
04CDA:  MOVFF  685,690
04CDE:  MOVFF  686,691
04CE2:  MOVFF  685,692
04CE6:  MOVFF  689,693
04CEA:  MOVLB  0
04CEC:  RCALL  4B36
....................       glcd_line(x1, y2, x2, y2, color); 
04CEE:  MOVFF  684,68F
04CF2:  MOVFF  687,690
04CF6:  MOVFF  686,691
04CFA:  MOVFF  687,692
04CFE:  MOVFF  689,693
04D02:  RCALL  4B36
....................       glcd_line(x1, y1, x1, y2, color); 
04D04:  MOVFF  684,68F
04D08:  MOVFF  685,690
04D0C:  MOVFF  684,691
04D10:  MOVFF  687,692
04D14:  MOVFF  689,693
04D18:  RCALL  4B36
....................       glcd_line(x2, y1, x2, y2, color); 
04D1A:  MOVFF  686,68F
04D1E:  MOVFF  685,690
04D22:  MOVFF  686,691
04D26:  MOVFF  687,692
04D2A:  MOVFF  689,693
04D2E:  RCALL  4B36
04D30:  MOVLB  6
....................    } 
.................... } 
04D32:  MOVLB  0
04D34:  RETLW  00
....................  
.................... ///////////////////////////////////////////////////////////////////////// 
.................... // Purpose:       Draw a bar (wide line) on a graphic LCD 
.................... // Inputs:        (x1, y1) - the start coordinate 
.................... //                (x2, y2) - the end coordinate 
.................... //                width  - The number of pixels wide 
.................... //                color - ON or OFF 
.................... ///////////////////////////////////////////////////////////////////////// 
.................... #ifdef LARGE_LCD 
.................... void glcd_bar(int16 x1, int16 y1, int16 x2, int16 y2, int8 width, int1 color) 
.................... #else 
.................... void glcd_bar(int8 x1, int8 y1, int8 x2, int8 y2, int8 width, int1 color) 
.................... #endif 
.................... { 
....................    int8         half_width; 
....................    signed int16 dy, dx; 
....................    signed int8  addx=1, addy=1, j; 
....................    signed int16 P, diff, c1, c2; 
....................  
....................    #ifdef LARGE_LCD 
....................    int16 i=0; 
....................    dx = abs((signed int16)(x2 - x1)); 
....................    dy = abs((signed int16)(y2 - y1)); 
....................    #else 
....................    int8 i=0; 
....................    dx = abs((signed int8)(x2 - x1)); 
....................    dy = abs((signed int8)(y2 - y1)); 
....................    #endif 
....................  
....................    half_width = width/2; 
....................    c1 = -(dx*x1 + dy*y1); 
....................    c2 = -(dx*x2 + dy*y2); 
....................  
....................    if(x1 > x2) 
....................    { 
....................       signed int16 temp; 
....................       temp = c1; 
....................       c1 = c2; 
....................       c2 = temp; 
....................       addx = -1; 
....................    } 
....................    if(y1 > y2) 
....................    { 
....................       signed int16 temp; 
....................       temp = c1; 
....................       c1 = c2; 
....................       c2 = temp; 
....................       addy = -1; 
....................    } 
....................  
....................    if(dx >= dy) 
....................    { 
....................       P = 2*dy - dx; 
....................       diff = P - dx; 
....................  
....................       for(i=0; i<=dx; ++i) 
....................       { 
....................          for(j=-half_width; j<half_width+width%2; ++j) 
....................          { 
....................             #ifdef LARGE_LCD 
....................             int16 temp; 
....................             #else 
....................             int8 temp; 
....................             #endif 
....................  
....................             temp = dx*x1+dy*(y1+j);    // Use more RAM to increase speed 
....................             if(temp+c1 >= 0 && temp+c2 <=0) 
....................                glcd_pixel(x1, y1+j, color); 
....................          } 
....................          if(P < 0) 
....................          { 
....................             P  += 2*dy; 
....................             x1 += addx; 
....................          } 
....................          else 
....................          { 
....................             P  += diff; 
....................             x1 += addx; 
....................             y1 += addy; 
....................          } 
....................       } 
....................    } 
....................    else 
....................    { 
....................       P = 2*dx - dy; 
....................       diff = P - dy; 
....................  
....................       for(i=0; i<=dy; ++i) 
....................       { 
....................          if(P < 0) 
....................          { 
....................             P  += 2*dx; 
....................             y1 += addy; 
....................          } 
....................          else 
....................          { 
....................             P  += diff; 
....................             x1 += addx; 
....................             y1 += addy; 
....................          } 
....................          for(j=-half_width; j<half_width+width%2; ++j) 
....................          { 
....................             #ifdef LARGE_LCD 
....................             int16 temp; 
....................             #else 
....................             int8 temp; 
....................             #endif 
....................  
....................             temp = dx*x1+dy*(y1+j);    // Use more RAM to increase speed 
....................             if(temp+c1 >= 0 && temp+c2 <=0) 
....................                glcd_pixel(x1+j, y1, color); 
....................          } 
....................       } 
....................    } 
.................... } 
....................  
....................  
.................... ///////////////////////////////////////////////////////////////////////// 
.................... // Purpose:       Draw a circle on a graphic LCD 
.................... // Inputs:        (x,y) - the center of the circle 
.................... //                radius - the radius of the circle 
.................... //                fill - YES or NO 
.................... //                color - ON or OFF 
.................... ///////////////////////////////////////////////////////////////////////// 
.................... #ifdef LARGE_LCD 
.................... void glcd_circle(int16 x, int16 y, int16 radius, int1 fill, int1 color) 
.................... #else 
.................... void glcd_circle(int8 x, int8 y, int8 radius, int1 fill, int1 color) 
.................... #endif 
.................... { 
....................    #ifdef LARGE_LCD 
....................    signed int16 a, b, P; 
....................    #else 
....................    signed int8  a, b, P; 
....................    #endif 
....................  
....................    a = 0; 
....................    b = radius; 
....................    P = 1 - radius; 
....................  
....................    do 
....................    { 
....................       if(fill) 
....................       { 
....................          glcd_line(x-a, y+b, x+a, y+b, color); 
....................          glcd_line(x-a, y-b, x+a, y-b, color); 
....................          glcd_line(x-b, y+a, x+b, y+a, color); 
....................          glcd_line(x-b, y-a, x+b, y-a, color); 
....................       } 
....................       else 
....................       { 
....................          glcd_pixel(a+x, b+y, color); 
....................          glcd_pixel(b+x, a+y, color); 
....................          glcd_pixel(x-a, b+y, color); 
....................          glcd_pixel(x-b, a+y, color); 
....................          glcd_pixel(b+x, y-a, color); 
....................          glcd_pixel(a+x, y-b, color); 
....................          glcd_pixel(x-a, y-b, color); 
....................          glcd_pixel(x-b, y-a, color); 
....................       } 
....................  
....................       if(P < 0) 
....................          P += 3 + 2 * a++; 
....................       else 
....................          P += 5 + 2 * (a++ - b--); 
....................     } while(a <= b); 
.................... } 
....................  
....................  
.................... ///////////////////////////////////////////////////////////////////////// 
.................... // Purpose:       Write text on a graphic LCD 
.................... // Inputs:        (x,y) - The upper left coordinate of the first letter 
.................... //                textptr - A pointer to an array of text to display 
.................... //                size - The size of the text: 1 = 5x7, 2 = 10x14, ... 
.................... //                color - ON or OFF 
.................... ///////////////////////////////////////////////////////////////////////// 
.................... #ifdef LARGE_LCD 
.................... void glcd_text57(int16 x, int16 y, char* textptr, int8 size, int1 color) 
.................... #else 
.................... void glcd_text57(int8 x, int8 y, char* textptr, int8 size, int1 color) 
.................... #endif 
.................... { 
....................    int8 j, k, l, m;                       // Loop counters 
....................    int8 pixelData[5];                     // Stores character data 
....................  
....................    for(; *textptr != '\0'; ++textptr, ++x)// Loop through the passed string 
04D36:  MOVFF  687,03
04D3A:  MOVLB  6
04D3C:  MOVFF  686,FE9
04D40:  MOVFF  687,FEA
04D44:  MOVF   FEF,F
04D46:  BTFSC  FD8.2
04D48:  BRA    4EEA
....................    { 
....................       if(*textptr < 'S') // Checks if the letter is in the first font array 
04D4A:  MOVFF  687,03
04D4E:  MOVFF  686,FE9
04D52:  MOVFF  687,FEA
04D56:  MOVF   FEF,W
04D58:  SUBLW  52
04D5A:  BNC   4DAA
....................          memcpy(pixelData, FONT[*textptr - ' '], 5); 
04D5C:  MOVFF  687,03
04D60:  MOVFF  686,FE9
04D64:  MOVFF  687,FEA
04D68:  MOVLW  20
04D6A:  SUBWF  FEF,W
04D6C:  MULLW  05
04D6E:  MOVF   FF3,W
04D70:  CLRF   03
04D72:  MOVWF  x93
04D74:  MOVLW  06
04D76:  MOVWF  FEA
04D78:  MOVLW  8E
04D7A:  MOVWF  FE9
04D7C:  CLRF   x97
04D7E:  MOVFF  693,696
04D82:  MOVFF  FF2,694
04D86:  BCF    FF2.7
04D88:  MOVLW  05
04D8A:  MOVWF  01
04D8C:  CLRF   FF7
04D8E:  MOVF   x93,W
04D90:  MOVLB  0
04D92:  CALL   0096
04D96:  TBLRD*-
04D98:  TBLRD*+
04D9A:  MOVFF  FF5,FEE
04D9E:  DECFSZ 01,F
04DA0:  BRA    4D98
04DA2:  MOVLB  6
04DA4:  BTFSC  x94.7
04DA6:  BSF    FF2.7
....................       else if(*textptr <= '~') // Check if the letter is in the second font array 
04DA8:  BRA    4E14
04DAA:  MOVFF  687,03
04DAE:  MOVFF  686,FE9
04DB2:  MOVFF  687,FEA
04DB6:  MOVF   FEF,W
04DB8:  SUBLW  7E
04DBA:  BNC   4E0A
....................          memcpy(pixelData, FONT2[*textptr - 'S'], 5); 
04DBC:  MOVFF  687,03
04DC0:  MOVFF  686,FE9
04DC4:  MOVFF  687,FEA
04DC8:  MOVLW  53
04DCA:  SUBWF  FEF,W
04DCC:  MULLW  05
04DCE:  MOVF   FF3,W
04DD0:  CLRF   03
04DD2:  MOVWF  x93
04DD4:  MOVLW  06
04DD6:  MOVWF  FEA
04DD8:  MOVLW  8E
04DDA:  MOVWF  FE9
04DDC:  CLRF   x97
04DDE:  MOVFF  693,696
04DE2:  MOVFF  FF2,694
04DE6:  BCF    FF2.7
04DE8:  MOVLW  05
04DEA:  MOVWF  01
04DEC:  CLRF   FF7
04DEE:  MOVF   x93,W
04DF0:  MOVLB  0
04DF2:  CALL   01B0
04DF6:  TBLRD*-
04DF8:  TBLRD*+
04DFA:  MOVFF  FF5,FEE
04DFE:  DECFSZ 01,F
04E00:  BRA    4DF8
04E02:  MOVLB  6
04E04:  BTFSC  x94.7
04E06:  BSF    FF2.7
....................       else 
04E08:  BRA    4E14
....................          memcpy(pixelData, FONT[0], 5);   // Default to space 
04E0A:  CLRF   x8E
04E0C:  CLRF   x8F
04E0E:  CLRF   x90
04E10:  CLRF   x91
04E12:  CLRF   x92
....................  
....................       // Handles newline and carriage returns 
....................       switch(*textptr) 
....................       { 
04E14:  MOVFF  687,03
04E18:  MOVF   x86,W
04E1A:  MOVWF  FE9
04E1C:  MOVFF  03,FEA
04E20:  MOVF   FEF,W
04E22:  XORLW  0A
04E24:  MOVLB  0
04E26:  BZ    4E2E
04E28:  XORLW  07
04E2A:  BZ    4E3E
04E2C:  BRA    4E44
....................          case '\n': 
....................             y += 7*size + 1; 
04E2E:  MOVLB  6
04E30:  MOVF   x88,W
04E32:  MULLW  07
04E34:  MOVF   FF3,W
04E36:  ADDLW  01
04E38:  ADDWF  x85,F
....................             continue; 
04E3A:  BRA    4EDC
04E3C:  MOVLB  0
....................          case '\r': 
....................             x = 0; 
04E3E:  MOVLB  6
04E40:  CLRF   x84
....................             continue; 
04E42:  BRA    4EDC
....................       } 
....................  
....................       if(x+5*size >= GLCD_WIDTH)          // Performs character wrapping 
04E44:  MOVLB  6
04E46:  MOVF   x88,W
04E48:  MULLW  05
04E4A:  MOVF   FF3,W
04E4C:  ADDWF  x84,W
04E4E:  SUBLW  7F
04E50:  BC    4E5E
....................       { 
....................          x = 0;                           // Set x at far left position 
04E52:  CLRF   x84
....................          y += 7*size + 1;                 // Set y at next position down 
04E54:  MOVF   x88,W
04E56:  MULLW  07
04E58:  MOVF   FF3,W
04E5A:  ADDLW  01
04E5C:  ADDWF  x85,F
....................       } 
....................       for(j=0; j<5; ++j, x+=size)         // Loop through character byte data 
04E5E:  CLRF   x8A
04E60:  MOVF   x8A,W
04E62:  SUBLW  04
04E64:  BNC   4EDC
....................       { 
....................          for(k=0; k < 7; ++k)             // Loop through the vertical pixels 
04E66:  CLRF   x8B
04E68:  MOVF   x8B,W
04E6A:  SUBLW  06
04E6C:  BNC   4ED4
....................          { 
....................             if(bit_test(pixelData[j], k)) // Check if the pixel should be set 
04E6E:  CLRF   03
04E70:  MOVF   x8A,W
04E72:  ADDLW  8E
04E74:  MOVWF  FE9
04E76:  MOVLW  06
04E78:  ADDWFC 03,W
04E7A:  MOVWF  FEA
04E7C:  MOVFF  FEF,693
04E80:  MOVFF  693,00
04E84:  MOVF   x8B,W
04E86:  MOVWF  01
04E88:  BZ    4E92
04E8A:  BCF    FD8.0
04E8C:  RRCF   00,F
04E8E:  DECFSZ 01,F
04E90:  BRA    4E8A
04E92:  BTFSS  00.0
04E94:  BRA    4ED0
....................             { 
....................                for(l=0; l < size; ++l)    // These two loops change the 
04E96:  CLRF   x8C
04E98:  MOVF   x88,W
04E9A:  SUBWF  x8C,W
04E9C:  BC    4ED0
....................                {                          // character's size 
....................                   for(m=0; m < size; ++m) 
04E9E:  CLRF   x8D
04EA0:  MOVF   x88,W
04EA2:  SUBWF  x8D,W
04EA4:  BC    4ECC
....................                   { 
....................                      glcd_pixel(x+m, y+k*size+l, color); // Draws the pixel 
04EA6:  MOVF   x8D,W
04EA8:  ADDWF  x84,W
04EAA:  MOVWF  x93
04EAC:  MOVF   x8B,W
04EAE:  MULWF  x88
04EB0:  MOVF   FF3,W
04EB2:  ADDWF  x85,W
04EB4:  ADDWF  x8C,W
04EB6:  MOVWF  x94
04EB8:  MOVFF  693,69F
04EBC:  MOVWF  xA0
04EBE:  MOVFF  689,6A1
04EC2:  MOVLB  0
04EC4:  RCALL  4A7A
....................                   } 
04EC6:  MOVLB  6
04EC8:  INCF   x8D,F
04ECA:  BRA    4EA0
....................                } 
04ECC:  INCF   x8C,F
04ECE:  BRA    4E98
....................             } 
....................          } 
04ED0:  INCF   x8B,F
04ED2:  BRA    4E68
....................       } 
04ED4:  INCF   x8A,F
04ED6:  MOVF   x88,W
04ED8:  ADDWF  x84,F
04EDA:  BRA    4E60
....................    } 
04EDC:  INCF   x86,F
04EDE:  BTFSC  FD8.2
04EE0:  INCF   x87,F
04EE2:  INCF   x84,F
04EE4:  MOVLB  0
04EE6:  BRA    4D36
04EE8:  MOVLB  6
.................... } 
04EEA:  MOVLB  0
04EEC:  RETLW  00
....................  
.................... #endif 
....................  
.................... #include "imagen.h" 
.................... const int8 Bombillo [64][16] = { 
.................... 0x00, 0x00, 0x00, 0x00, 0x00, 0x00, 0x00, 0x00, 0x00, 0x00, 0x00, 0x00, 0x00, 0x00, 0x00, 0x00, 
.................... 0x00, 0x00, 0x00, 0x00, 0x00, 0x00, 0x00, 0x00, 0x00, 0x00, 0x00, 0x00, 0x00, 0x00, 0x00, 0x00, 
.................... 0x00, 0x00, 0x00, 0x00, 0x00, 0x00, 0x00, 0x00, 0x00, 0x00, 0x00, 0x00, 0x00, 0x00, 0x00, 0x00, 
.................... 0x00, 0x00, 0x00, 0x00, 0x00, 0x00, 0x00, 0x00, 0x00, 0x00, 0x00, 0x00, 0x00, 0x00, 0x00, 0x00, 
.................... 0x00, 0x00, 0x00, 0x00, 0x00, 0x00, 0x00, 0x00, 0x00, 0x00, 0x00, 0x00, 0x00, 0x00, 0x00, 0x00, 
.................... 0x00, 0x00, 0x00, 0x00, 0x00, 0x00, 0x00, 0x00, 0x00, 0x00, 0x00, 0x00, 0x00, 0x00, 0x00, 0x00, 
.................... 0x00, 0x00, 0x00, 0x00, 0x00, 0x00, 0x00, 0x00, 0x00, 0x00, 0x00, 0x00, 0x00, 0x00, 0x00, 0x00, 
.................... 0x00, 0x00, 0x00, 0x00, 0x00, 0x00, 0x00, 0x00, 0x00, 0x00, 0x00, 0x00, 0x00, 0x00, 0x00, 0x00, 
.................... 0x00, 0x00, 0x00, 0x00, 0x00, 0x00, 0x00, 0x00, 0x00, 0x00, 0x00, 0x00, 0x00, 0x00, 0x00, 0x00, 
.................... 0x00, 0x00, 0x00, 0x00, 0x00, 0x00, 0x00, 0x00, 0x00, 0x00, 0x00, 0x00, 0x00, 0x00, 0x00, 0x00, 
.................... 0x00, 0x00, 0x00, 0x00, 0x00, 0x00, 0x00, 0x00, 0x00, 0x00, 0x00, 0x00, 0x00, 0x00, 0x00, 0x00, 
.................... 0x00, 0x00, 0x00, 0x00, 0x00, 0x00, 0x00, 0x00, 0x00, 0x00, 0x00, 0x00, 0x00, 0x00, 0x00, 0x00, 
.................... 0x00, 0x00, 0x00, 0x00, 0x00, 0x00, 0x00, 0x00, 0x00, 0x00, 0x00, 0x00, 0x00, 0x00, 0x00, 0x00, 
.................... 0x00, 0x00, 0x00, 0x00, 0x00, 0x00, 0x00, 0x00, 0x00, 0x00, 0x00, 0x00, 0x00, 0x00, 0x00, 0x00, 
.................... 0x00, 0x00, 0x00, 0x00, 0x00, 0x00, 0x00, 0x00, 0x00, 0x00, 0x00, 0x00, 0x00, 0x00, 0x00, 0x00, 
.................... 0x00, 0x00, 0x00, 0x00, 0x00, 0x00, 0x00, 0x00, 0x00, 0x00, 0x00, 0x00, 0x00, 0x08, 0x00, 0x80, 
.................... 0x00, 0x00, 0x00, 0x00, 0x00, 0x00, 0x00, 0x00, 0x00, 0x00, 0x00, 0x00, 0x00, 0x04, 0x01, 0x00, 
.................... 0x00, 0x00, 0x00, 0x00, 0x00, 0x00, 0x00, 0x00, 0x00, 0x00, 0x00, 0x00, 0x00, 0x02, 0x02, 0x00, 
.................... 0x00, 0x00, 0x00, 0x00, 0x00, 0x00, 0x00, 0x00, 0x00, 0x00, 0x00, 0x00, 0x00, 0x00, 0x78, 0x00, 
.................... 0x00, 0x00, 0x00, 0x00, 0x00, 0x00, 0x00, 0x00, 0x00, 0x00, 0x00, 0x00, 0x00, 0x00, 0x84, 0x00, 
.................... 0x00, 0x00, 0x00, 0x00, 0x00, 0x00, 0x00, 0x00, 0x00, 0x00, 0x00, 0x00, 0x00, 0x01, 0x02, 0x00, 
.................... 0x00, 0x00, 0x00, 0x00, 0x00, 0x00, 0x00, 0x00, 0x00, 0x00, 0x00, 0x00, 0x00, 0xF9, 0x02, 0xF8, 
.................... 0x00, 0x00, 0x00, 0x00, 0x00, 0x00, 0x00, 0x00, 0x00, 0x00, 0x00, 0x00, 0x00, 0x01, 0x02, 0x00, 
.................... 0x00, 0x00, 0x00, 0x00, 0x00, 0x00, 0x00, 0x00, 0x00, 0x00, 0x00, 0x00, 0x00, 0x01, 0x02, 0x00, 
.................... 0x00, 0x00, 0x00, 0x00, 0x00, 0x00, 0x00, 0x00, 0x00, 0x00, 0x00, 0x00, 0x00, 0x04, 0x84, 0x80, 
.................... 0x00, 0x00, 0x00, 0x00, 0x00, 0x00, 0x00, 0x00, 0x00, 0x00, 0x00, 0x00, 0x00, 0x08, 0x78, 0x40, 
.................... 0x00, 0x00, 0x00, 0x00, 0x00, 0x00, 0x00, 0x00, 0x00, 0x00, 0x00, 0x00, 0x00, 0x10, 0x48, 0x20, 
.................... 0x00, 0x00, 0x00, 0x00, 0x00, 0x00, 0x00, 0x00, 0x00, 0x00, 0x00, 0x00, 0x00, 0x20, 0x48, 0x10, 
.................... 0x00, 0x00, 0x00, 0x00, 0x00, 0x00, 0x00, 0x00, 0x00, 0x00, 0x00, 0x00, 0x00, 0x00, 0x78, 0x00, 
.................... 0x00, 0x00, 0x00, 0x00, 0x00, 0x00, 0x00, 0x00, 0x00, 0x00, 0x00, 0x00, 0x00, 0x00, 0x00, 0x00, 
.................... 0x00, 0x00, 0x00, 0x00, 0x00, 0x00, 0x00, 0x00, 0x00, 0x00, 0x00, 0x00, 0x00, 0x00, 0x00, 0x00, 
.................... 0x00, 0x00, 0x00, 0x00, 0x00, 0x00, 0x00, 0x00, 0x00, 0x00, 0x00, 0x00, 0x00, 0x00, 0x00, 0x00, 
.................... 0x00, 0x00, 0x00, 0x00, 0x00, 0x00, 0x00, 0x00, 0x00, 0x00, 0x00, 0x00, 0x00, 0x00, 0x00, 0x00, 
.................... 0x00, 0x00, 0x00, 0x00, 0x00, 0x00, 0x00, 0x00, 0x00, 0x00, 0x00, 0x00, 0x00, 0x00, 0x00, 0x00, 
.................... 0x00, 0x00, 0x00, 0x00, 0x00, 0x00, 0x00, 0x00, 0x00, 0x00, 0x00, 0x00, 0x00, 0x00, 0x00, 0x00, 
.................... 0x00, 0x00, 0x00, 0x00, 0x00, 0x00, 0x00, 0x00, 0x00, 0x00, 0x00, 0x00, 0x00, 0x00, 0x00, 0x00, 
.................... 0x00, 0x00, 0x00, 0x00, 0x00, 0x00, 0x00, 0x00, 0x00, 0x00, 0x00, 0x00, 0x00, 0x00, 0x00, 0x00, 
.................... 0x00, 0x00, 0x00, 0x00, 0x00, 0x00, 0x00, 0x00, 0x00, 0x00, 0x00, 0x00, 0x00, 0x00, 0x00, 0x00, 
.................... 0x00, 0x00, 0x00, 0x00, 0x00, 0x00, 0x00, 0x00, 0x00, 0x00, 0x00, 0x00, 0x00, 0x00, 0x00, 0x00, 
.................... 0x00, 0x00, 0x00, 0x00, 0x00, 0x00, 0x00, 0x00, 0x00, 0x00, 0x00, 0x00, 0x00, 0x00, 0x00, 0x00, 
.................... 0x00, 0x00, 0x00, 0x00, 0x00, 0x00, 0x00, 0x00, 0x00, 0x00, 0x00, 0x00, 0x00, 0x00, 0x00, 0x00, 
.................... 0x00, 0x00, 0x00, 0x00, 0x00, 0x00, 0x00, 0x00, 0x00, 0x00, 0x00, 0x00, 0x00, 0x00, 0x00, 0x00, 
.................... 0x00, 0x00, 0x00, 0x00, 0x00, 0x00, 0x00, 0x00, 0x00, 0x00, 0x00, 0x00, 0x00, 0x00, 0x00, 0x00, 
.................... 0x00, 0x00, 0x00, 0x00, 0x00, 0x00, 0x00, 0x00, 0x00, 0x00, 0x00, 0x00, 0x00, 0x00, 0x00, 0x00, 
.................... 0x00, 0x00, 0x00, 0x00, 0x00, 0x00, 0x00, 0x00, 0x00, 0x00, 0x00, 0x00, 0x00, 0x00, 0x00, 0x00, 
.................... 0x00, 0x00, 0x00, 0x00, 0x00, 0x00, 0x00, 0x00, 0x00, 0x00, 0x00, 0x00, 0x00, 0x00, 0x00, 0x00, 
.................... 0x00, 0x00, 0x00, 0x00, 0x00, 0x00, 0x00, 0x00, 0x00, 0x00, 0x00, 0x00, 0x00, 0x00, 0x00, 0x00, 
.................... 0x00, 0x00, 0x00, 0x00, 0x00, 0x00, 0x00, 0x00, 0x00, 0x00, 0x00, 0x00, 0x00, 0x00, 0x00, 0x00, 
.................... 0x00, 0x00, 0x00, 0x00, 0x00, 0x00, 0x00, 0x00, 0x00, 0x00, 0x00, 0x00, 0x00, 0x00, 0x00, 0x00, 
.................... 0x00, 0x00, 0x00, 0x00, 0x00, 0x00, 0x00, 0x00, 0x00, 0x00, 0x00, 0x00, 0x00, 0x00, 0x00, 0x00, 
.................... 0x00, 0x00, 0x00, 0x00, 0x00, 0x00, 0x00, 0x00, 0x00, 0x00, 0x00, 0x00, 0x00, 0x00, 0x00, 0x00, 
.................... 0x00, 0x00, 0x00, 0x00, 0x00, 0x00, 0x00, 0x00, 0x00, 0x00, 0x00, 0x00, 0x00, 0x00, 0x00, 0x00, 
.................... 0x00, 0x00, 0x00, 0x00, 0x00, 0x00, 0x00, 0x00, 0x00, 0x00, 0x00, 0x00, 0x00, 0x00, 0x00, 0x00, 
.................... 0x00, 0x00, 0x00, 0x00, 0x00, 0x00, 0x00, 0x00, 0x00, 0x00, 0x00, 0x00, 0x00, 0x00, 0x00, 0x00, 
.................... 0x00, 0x00, 0x00, 0x00, 0x00, 0x00, 0x00, 0x00, 0x00, 0x00, 0x00, 0x00, 0x00, 0x00, 0x00, 0x00, 
.................... 0x00, 0x00, 0x00, 0x00, 0x00, 0x00, 0x00, 0x00, 0x00, 0x00, 0x00, 0x00, 0x00, 0x00, 0x00, 0x00, 
.................... 0x00, 0x00, 0x00, 0x00, 0x00, 0x00, 0x00, 0x00, 0x00, 0x00, 0x00, 0x00, 0x00, 0x00, 0x00, 0x00, 
.................... 0x00, 0x00, 0x00, 0x00, 0x00, 0x00, 0x00, 0x00, 0x00, 0x00, 0x00, 0x00, 0x00, 0x00, 0x00, 0x00, 
.................... 0x00, 0x00, 0x00, 0x00, 0x00, 0x00, 0x00, 0x00, 0x00, 0x00, 0x00, 0x00, 0x00, 0x00, 0x00, 0x00, 
.................... 0x00, 0x00, 0x00, 0x00, 0x00, 0x00, 0x00, 0x00, 0x00, 0x00, 0x00, 0x00, 0x00, 0x00, 0x00, 0x00, 
.................... 0x00, 0x00, 0x00, 0x00, 0x00, 0x00, 0x00, 0x00, 0x00, 0x00, 0x00, 0x00, 0x00, 0x00, 0x00, 0x00, 
.................... 0x00, 0x00, 0x00, 0x00, 0x00, 0x00, 0x00, 0x00, 0x00, 0x00, 0x00, 0x00, 0x00, 0x00, 0x00, 0x00, 
.................... 0x00, 0x00, 0x00, 0x00, 0x00, 0x00, 0x00, 0x00, 0x00, 0x00, 0x00, 0x00, 0x00, 0x00, 0x00, 0x00, 
.................... 0x00, 0x00, 0x00, 0x00, 0x00, 0x00, 0x00, 0x00, 0x00, 0x00, 0x00, 0x00, 0x00, 0x00, 0x00, 0x00 
.................... }; 
....................  
.................... const int8 Tomai [64][16] = { 
.................... 0x00, 0x00, 0x00, 0x00, 0x00, 0x00, 0x00, 0x00, 0x00, 0x00, 0x00, 0x00, 0x00, 0x00, 0x00, 0x00, 
.................... 0x00, 0x00, 0x00, 0x00, 0x00, 0x00, 0x00, 0x00, 0x00, 0x00, 0x00, 0x00, 0x00, 0x00, 0x00, 0x00, 
.................... 0x00, 0x00, 0x00, 0x00, 0x00, 0x00, 0x00, 0x00, 0x00, 0x00, 0x00, 0x00, 0x00, 0x00, 0x00, 0x00, 
.................... 0x00, 0x00, 0x00, 0x00, 0x00, 0x00, 0x00, 0x00, 0x00, 0x00, 0x00, 0x00, 0x00, 0x00, 0x00, 0x00, 
.................... 0x00, 0x00, 0x00, 0x00, 0x00, 0x00, 0x00, 0x00, 0x00, 0x00, 0x00, 0x00, 0x00, 0x00, 0x00, 0x00, 
.................... 0x00, 0x00, 0x00, 0x00, 0x00, 0x00, 0x00, 0x00, 0x00, 0x00, 0x00, 0x00, 0x00, 0x00, 0x00, 0x00, 
.................... 0x00, 0x00, 0x00, 0x00, 0x00, 0x00, 0x00, 0x00, 0x00, 0x00, 0x00, 0x00, 0x00, 0x00, 0x00, 0x00, 
.................... 0x00, 0x00, 0x00, 0x00, 0x00, 0x00, 0x00, 0x00, 0x00, 0x00, 0x00, 0x00, 0x00, 0x00, 0x00, 0x00, 
.................... 0x00, 0x00, 0x00, 0x00, 0x00, 0x00, 0x00, 0x00, 0x00, 0x00, 0x00, 0x00, 0x00, 0x00, 0x00, 0x00, 
.................... 0x00, 0x00, 0x00, 0x00, 0x00, 0x00, 0x00, 0x00, 0x00, 0x00, 0x00, 0x00, 0x00, 0x00, 0x00, 0x00, 
.................... 0x00, 0x00, 0x00, 0x00, 0x00, 0x00, 0x00, 0x00, 0x00, 0x00, 0x00, 0x00, 0x00, 0x00, 0x00, 0x00, 
.................... 0x00, 0x00, 0x00, 0x00, 0x00, 0x00, 0x00, 0x00, 0x00, 0x00, 0x00, 0x00, 0x00, 0x00, 0x00, 0x00, 
.................... 0x00, 0x00, 0x00, 0x00, 0x00, 0x00, 0x00, 0x00, 0x00, 0x00, 0x00, 0x00, 0x00, 0x00, 0x00, 0x00, 
.................... 0x00, 0x00, 0x00, 0x00, 0x00, 0x00, 0x00, 0x00, 0x00, 0x00, 0x00, 0x00, 0x00, 0x00, 0x00, 0x00, 
.................... 0x00, 0x00, 0x00, 0x00, 0x00, 0x00, 0x00, 0x00, 0x00, 0x00, 0x00, 0x00, 0x00, 0x00, 0x00, 0x00, 
.................... 0x00, 0x00, 0x00, 0x00, 0x00, 0x00, 0x00, 0x00, 0x00, 0x00, 0x00, 0x00, 0x00, 0x00, 0x00, 0x00, 
.................... 0x00, 0x00, 0x00, 0x00, 0x00, 0x00, 0x00, 0x00, 0x00, 0x00, 0x00, 0x00, 0x00, 0x00, 0x00, 0x00, 
.................... 0x00, 0x00, 0x00, 0x00, 0x00, 0x00, 0x00, 0x00, 0x00, 0x00, 0x00, 0x00, 0x00, 0x00, 0x00, 0x00, 
.................... 0x00, 0x00, 0x00, 0x00, 0x00, 0x00, 0x00, 0x00, 0x00, 0x00, 0x00, 0x00, 0x00, 0x00, 0x00, 0x00, 
.................... 0x00, 0x00, 0x00, 0x00, 0x00, 0x00, 0x00, 0x00, 0x00, 0x00, 0x00, 0x00, 0x00, 0x00, 0x00, 0x00, 
.................... 0x00, 0x00, 0x00, 0x00, 0x00, 0x00, 0x00, 0x00, 0x00, 0x00, 0x00, 0x00, 0x00, 0x00, 0x00, 0x00, 
.................... 0x00, 0x00, 0x00, 0x00, 0x00, 0x00, 0x00, 0x00, 0x00, 0x00, 0x00, 0x00, 0x00, 0x00, 0x00, 0x00, 
.................... 0x00, 0x00, 0x00, 0x00, 0x00, 0x00, 0x00, 0x00, 0x00, 0x00, 0x00, 0x00, 0x00, 0x00, 0x00, 0x00, 
.................... 0x00, 0x00, 0x00, 0x00, 0x00, 0x00, 0x00, 0x00, 0x00, 0x00, 0x00, 0x00, 0x00, 0x00, 0x00, 0x00, 
.................... 0x00, 0x00, 0x00, 0x00, 0x00, 0x00, 0x00, 0x00, 0x00, 0x00, 0x00, 0x00, 0x00, 0x00, 0x00, 0x00, 
.................... 0x00, 0x00, 0x00, 0x00, 0x00, 0x00, 0x00, 0x00, 0x00, 0x00, 0x00, 0x00, 0x00, 0x00, 0x00, 0x00, 
.................... 0x00, 0x00, 0x00, 0x00, 0x00, 0x00, 0x00, 0x00, 0x00, 0x00, 0x00, 0x00, 0x00, 0x00, 0x00, 0x00, 
.................... 0x00, 0x00, 0x00, 0x00, 0x00, 0x00, 0x00, 0x00, 0x00, 0x00, 0x00, 0x00, 0x00, 0x00, 0x00, 0x00, 
.................... 0x00, 0x00, 0x00, 0x00, 0x00, 0x00, 0x00, 0x00, 0x00, 0x00, 0x00, 0x00, 0x00, 0x00, 0x00, 0x00, 
.................... 0x00, 0x00, 0x00, 0x00, 0x00, 0x00, 0x00, 0x00, 0x00, 0x00, 0x00, 0x00, 0x00, 0x00, 0x00, 0x00, 
.................... 0x00, 0x00, 0x00, 0x00, 0x00, 0x00, 0x00, 0x00, 0x00, 0x00, 0x00, 0x00, 0x00, 0x7F, 0xFF, 0xF8, 
.................... 0x00, 0x00, 0x00, 0x00, 0x00, 0x00, 0x00, 0x00, 0x00, 0x00, 0x00, 0x00, 0x00, 0x40, 0x00, 0x08, 
.................... 0x00, 0x00, 0x00, 0x00, 0x00, 0x00, 0x00, 0x00, 0x00, 0x00, 0x00, 0x00, 0x00, 0x47, 0x03, 0x88, 
.................... 0x00, 0x00, 0x00, 0x00, 0x00, 0x00, 0x00, 0x00, 0x00, 0x00, 0x00, 0x00, 0x00, 0x45, 0x02, 0x88, 
.................... 0x00, 0x00, 0x00, 0x00, 0x00, 0x00, 0x00, 0x00, 0x00, 0x00, 0x00, 0x00, 0x00, 0x45, 0x02, 0x88, 
.................... 0x00, 0x00, 0x00, 0x00, 0x00, 0x00, 0x00, 0x00, 0x00, 0x00, 0x00, 0x00, 0x00, 0x45, 0x02, 0x88, 
.................... 0x00, 0x00, 0x00, 0x00, 0x00, 0x00, 0x00, 0x00, 0x00, 0x00, 0x00, 0x00, 0x00, 0x45, 0x02, 0x88, 
.................... 0x00, 0x00, 0x00, 0x00, 0x00, 0x00, 0x00, 0x00, 0x00, 0x00, 0x00, 0x00, 0x00, 0x47, 0x03, 0x88, 
.................... 0x00, 0x00, 0x00, 0x00, 0x00, 0x00, 0x00, 0x00, 0x00, 0x00, 0x00, 0x00, 0x00, 0x40, 0x00, 0x08, 
.................... 0x00, 0x00, 0x00, 0x00, 0x00, 0x00, 0x00, 0x00, 0x00, 0x00, 0x00, 0x00, 0x00, 0x40, 0xFC, 0x08, 
.................... 0x00, 0x00, 0x00, 0x00, 0x00, 0x00, 0x00, 0x00, 0x00, 0x00, 0x00, 0x00, 0x00, 0x40, 0x84, 0x08, 
.................... 0x00, 0x00, 0x00, 0x00, 0x00, 0x00, 0x00, 0x00, 0x00, 0x00, 0x00, 0x00, 0x00, 0x40, 0x84, 0x08, 
.................... 0x00, 0x00, 0x00, 0x00, 0x00, 0x00, 0x00, 0x00, 0x00, 0x00, 0x00, 0x00, 0x00, 0x40, 0xFC, 0x08, 
.................... 0x00, 0x00, 0x00, 0x00, 0x00, 0x00, 0x00, 0x00, 0x00, 0x00, 0x00, 0x00, 0x00, 0x40, 0x00, 0x08, 
.................... 0x00, 0x00, 0x00, 0x00, 0x00, 0x00, 0x00, 0x00, 0x00, 0x00, 0x00, 0x00, 0x00, 0x7F, 0xFF, 0xF8, 
.................... 0x00, 0x00, 0x00, 0x00, 0x00, 0x00, 0x00, 0x00, 0x00, 0x00, 0x00, 0x00, 0x00, 0x00, 0x00, 0x00, 
.................... 0x00, 0x00, 0x00, 0x00, 0x00, 0x00, 0x00, 0x00, 0x00, 0x00, 0x00, 0x00, 0x00, 0x00, 0x00, 0x00, 
.................... 0x00, 0x00, 0x00, 0x00, 0x00, 0x00, 0x00, 0x00, 0x00, 0x00, 0x00, 0x00, 0x00, 0x00, 0x00, 0x00, 
.................... 0x00, 0x00, 0x00, 0x00, 0x00, 0x00, 0x00, 0x00, 0x00, 0x00, 0x00, 0x00, 0x00, 0x00, 0x00, 0x00, 
.................... 0x00, 0x00, 0x00, 0x00, 0x00, 0x00, 0x00, 0x00, 0x00, 0x00, 0x00, 0x00, 0x00, 0x00, 0x00, 0x00, 
.................... 0x00, 0x00, 0x00, 0x00, 0x00, 0x00, 0x00, 0x00, 0x00, 0x00, 0x00, 0x00, 0x00, 0x00, 0x00, 0x00, 
.................... 0x00, 0x00, 0x00, 0x00, 0x00, 0x00, 0x00, 0x00, 0x00, 0x00, 0x00, 0x00, 0x00, 0x00, 0x00, 0x00, 
.................... 0x00, 0x00, 0x00, 0x00, 0x00, 0x00, 0x00, 0x00, 0x00, 0x00, 0x00, 0x00, 0x00, 0x00, 0x00, 0x00, 
.................... 0x00, 0x00, 0x00, 0x00, 0x00, 0x00, 0x00, 0x00, 0x00, 0x00, 0x00, 0x00, 0x00, 0x00, 0x00, 0x00, 
.................... 0x00, 0x00, 0x00, 0x00, 0x00, 0x00, 0x00, 0x00, 0x00, 0x00, 0x00, 0x00, 0x00, 0x00, 0x00, 0x00, 
.................... 0x00, 0x00, 0x00, 0x00, 0x00, 0x00, 0x00, 0x00, 0x00, 0x00, 0x00, 0x00, 0x00, 0x00, 0x00, 0x00, 
.................... 0x00, 0x00, 0x00, 0x00, 0x00, 0x00, 0x00, 0x00, 0x00, 0x00, 0x00, 0x00, 0x00, 0x00, 0x00, 0x00, 
.................... 0x00, 0x00, 0x00, 0x00, 0x00, 0x00, 0x00, 0x00, 0x00, 0x00, 0x00, 0x00, 0x00, 0x00, 0x00, 0x00, 
.................... 0x00, 0x00, 0x00, 0x00, 0x00, 0x00, 0x00, 0x00, 0x00, 0x00, 0x00, 0x00, 0x00, 0x00, 0x00, 0x00, 
.................... 0x00, 0x00, 0x00, 0x00, 0x00, 0x00, 0x00, 0x00, 0x00, 0x00, 0x00, 0x00, 0x00, 0x00, 0x00, 0x00, 
.................... 0x00, 0x00, 0x00, 0x00, 0x00, 0x00, 0x00, 0x00, 0x00, 0x00, 0x00, 0x00, 0x00, 0x00, 0x00, 0x00, 
.................... 0x00, 0x00, 0x00, 0x00, 0x00, 0x00, 0x00, 0x00, 0x00, 0x00, 0x00, 0x00, 0x00, 0x00, 0x00, 0x00, 
.................... 0x00, 0x00, 0x00, 0x00, 0x00, 0x00, 0x00, 0x00, 0x00, 0x00, 0x00, 0x00, 0x00, 0x00, 0x00, 0x00, 
.................... 0x00, 0x00, 0x00, 0x00, 0x00, 0x00, 0x00, 0x00, 0x00, 0x00, 0x00, 0x00, 0x00, 0x00, 0x00, 0x00 
.................... }; 
....................  
.................... const int8 Ventilador [64][16] = { 
.................... 0x00, 0x00, 0x00, 0x00, 0x00, 0x00, 0x00, 0x00, 0x00, 0x00, 0x00, 0x00, 0x00, 0x00, 0x00, 0x00, 
.................... 0x00, 0x00, 0x00, 0x00, 0x00, 0x00, 0x00, 0x00, 0x00, 0x00, 0x00, 0x00, 0x00, 0x00, 0x00, 0x00, 
.................... 0x00, 0x00, 0x00, 0x00, 0x00, 0x00, 0x00, 0x00, 0x00, 0x00, 0x00, 0x00, 0x00, 0x00, 0x00, 0x00, 
.................... 0x00, 0x00, 0x00, 0x00, 0x00, 0x00, 0x00, 0x00, 0x00, 0x00, 0x00, 0x00, 0x00, 0x00, 0x00, 0x00, 
.................... 0x00, 0x00, 0x00, 0x00, 0x00, 0x00, 0x00, 0x00, 0x00, 0x00, 0x00, 0x00, 0x00, 0x00, 0x00, 0x00, 
.................... 0x00, 0x00, 0x00, 0x00, 0x00, 0x00, 0x00, 0x00, 0x00, 0x00, 0x00, 0x00, 0x00, 0x00, 0x00, 0x00, 
.................... 0x00, 0x00, 0x00, 0x00, 0x00, 0x00, 0x00, 0x00, 0x00, 0x00, 0x00, 0x00, 0x00, 0x00, 0x00, 0x00, 
.................... 0x00, 0x00, 0x00, 0x00, 0x00, 0x00, 0x00, 0x00, 0x00, 0x00, 0x00, 0x00, 0x00, 0x00, 0x00, 0x00, 
.................... 0x00, 0x00, 0x00, 0x00, 0x00, 0x00, 0x00, 0x00, 0x00, 0x00, 0x00, 0x00, 0x00, 0x00, 0x00, 0x00, 
.................... 0x00, 0x00, 0x00, 0x00, 0x00, 0x00, 0x00, 0x00, 0x00, 0x00, 0x00, 0x00, 0x00, 0x00, 0x00, 0x00, 
.................... 0x00, 0x00, 0x00, 0x00, 0x00, 0x00, 0x00, 0x00, 0x00, 0x00, 0x00, 0x00, 0x00, 0x00, 0x00, 0x00, 
.................... 0x00, 0x00, 0x00, 0x00, 0x00, 0x00, 0x00, 0x00, 0x00, 0x00, 0x00, 0x00, 0x00, 0x00, 0x00, 0x00, 
.................... 0x00, 0x00, 0x00, 0x00, 0x00, 0x00, 0x00, 0x00, 0x00, 0x00, 0x00, 0x00, 0x00, 0x00, 0x00, 0x00, 
.................... 0x00, 0x00, 0x00, 0x00, 0x00, 0x00, 0x00, 0x00, 0x00, 0x00, 0x00, 0x00, 0x00, 0x00, 0x00, 0x00, 
.................... 0x00, 0x00, 0x00, 0x00, 0x00, 0x00, 0x00, 0x00, 0x00, 0x00, 0x00, 0x00, 0x00, 0x00, 0x00, 0x00, 
.................... 0x00, 0x00, 0x00, 0x00, 0x00, 0x00, 0x00, 0x00, 0x00, 0x00, 0x00, 0x00, 0x00, 0x00, 0x00, 0x00, 
.................... 0x00, 0x00, 0x00, 0x00, 0x00, 0x00, 0x00, 0x00, 0x00, 0x00, 0x00, 0x00, 0x00, 0x00, 0x00, 0x00, 
.................... 0x00, 0x00, 0x00, 0x00, 0x00, 0x00, 0x00, 0x00, 0x00, 0x00, 0x00, 0x00, 0x00, 0x00, 0x00, 0x00, 
.................... 0x00, 0x00, 0x00, 0x00, 0x00, 0x00, 0x00, 0x00, 0x00, 0x00, 0x00, 0x00, 0x00, 0x00, 0x00, 0x00, 
.................... 0x00, 0x00, 0x00, 0x00, 0x00, 0x00, 0x00, 0x00, 0x00, 0x00, 0x00, 0x00, 0x00, 0x00, 0x00, 0x00, 
.................... 0x00, 0x00, 0x00, 0x00, 0x00, 0x00, 0x00, 0x00, 0x00, 0x00, 0x00, 0x00, 0x00, 0x00, 0x00, 0x00, 
.................... 0x00, 0x00, 0x00, 0x00, 0x00, 0x00, 0x00, 0x00, 0x00, 0x00, 0x00, 0x00, 0x00, 0x00, 0x00, 0x00, 
.................... 0x00, 0x00, 0x00, 0x00, 0x00, 0x00, 0x00, 0x00, 0x00, 0x00, 0x00, 0x00, 0x00, 0x00, 0x00, 0x00, 
.................... 0x00, 0x00, 0x00, 0x00, 0x00, 0x00, 0x00, 0x00, 0x00, 0x00, 0x00, 0x00, 0x00, 0x00, 0x00, 0x00, 
.................... 0x00, 0x00, 0x00, 0x00, 0x00, 0x00, 0x00, 0x00, 0x00, 0x00, 0x00, 0x00, 0x00, 0x00, 0x00, 0x00, 
.................... 0x00, 0x00, 0x00, 0x00, 0x00, 0x00, 0x00, 0x00, 0x00, 0x00, 0x00, 0x00, 0x00, 0x00, 0x00, 0x00, 
.................... 0x00, 0x00, 0x00, 0x00, 0x00, 0x00, 0x00, 0x00, 0x00, 0x00, 0x00, 0x00, 0x00, 0x00, 0x00, 0x00, 
.................... 0x00, 0x00, 0x00, 0x00, 0x00, 0x00, 0x00, 0x00, 0x00, 0x00, 0x00, 0x00, 0x00, 0x00, 0x00, 0x00, 
.................... 0x00, 0x00, 0x00, 0x00, 0x00, 0x00, 0x00, 0x00, 0x00, 0x00, 0x00, 0x00, 0x00, 0x00, 0x00, 0x00, 
.................... 0x00, 0x00, 0x00, 0x00, 0x00, 0x00, 0x00, 0x00, 0x00, 0x00, 0x00, 0x00, 0x00, 0x00, 0x00, 0x00, 
.................... 0x00, 0x00, 0x00, 0x00, 0x00, 0x00, 0x00, 0x00, 0x00, 0x00, 0x00, 0x00, 0x00, 0x00, 0x00, 0x00, 
.................... 0x00, 0x00, 0x00, 0x00, 0x00, 0x00, 0x00, 0x00, 0x00, 0x00, 0x00, 0x00, 0x00, 0x00, 0x00, 0x00, 
.................... 0x00, 0x00, 0x00, 0x00, 0x00, 0x00, 0x00, 0x00, 0x00, 0x00, 0x00, 0x00, 0x00, 0x00, 0x00, 0x00, 
.................... 0x00, 0x00, 0x00, 0x00, 0x00, 0x00, 0x00, 0x00, 0x00, 0x00, 0x00, 0x00, 0x00, 0x00, 0x00, 0x00, 
.................... 0x00, 0x00, 0x00, 0x00, 0x00, 0x00, 0x00, 0x00, 0x00, 0x00, 0x00, 0x00, 0x00, 0x00, 0x00, 0x00, 
.................... 0x00, 0x00, 0x00, 0x00, 0x00, 0x00, 0x00, 0x00, 0x00, 0x00, 0x00, 0x00, 0x00, 0x00, 0x00, 0x00, 
.................... 0x00, 0x00, 0x00, 0x00, 0x00, 0x00, 0x00, 0x00, 0x00, 0x00, 0x00, 0x00, 0x00, 0x00, 0x00, 0x00, 
.................... 0x00, 0x00, 0x00, 0x00, 0x00, 0x00, 0x00, 0x00, 0x00, 0x00, 0x00, 0x00, 0x00, 0x00, 0x00, 0x00, 
.................... 0x00, 0x00, 0x00, 0x00, 0x00, 0x00, 0x00, 0x00, 0x00, 0x00, 0x00, 0x00, 0x00, 0x00, 0x00, 0x00, 
.................... 0x00, 0x00, 0x00, 0x00, 0x00, 0x00, 0x00, 0x00, 0x00, 0x00, 0x00, 0x00, 0x00, 0x00, 0x00, 0x00, 
.................... 0x00, 0x00, 0x00, 0x00, 0x00, 0x00, 0x00, 0x00, 0x00, 0x00, 0x00, 0x00, 0x00, 0x00, 0x00, 0x00, 
.................... 0x00, 0x00, 0x00, 0x00, 0x00, 0x00, 0x00, 0x00, 0x00, 0x00, 0x00, 0x00, 0x00, 0x00, 0x00, 0x00, 
.................... 0x00, 0x00, 0x00, 0x00, 0x00, 0x00, 0x00, 0x00, 0x00, 0x00, 0x00, 0x00, 0x00, 0x00, 0x00, 0x00, 
.................... 0x00, 0x00, 0x00, 0x00, 0x00, 0x00, 0x00, 0x00, 0x00, 0x00, 0x00, 0x00, 0x00, 0x00, 0x00, 0x00, 
.................... 0x00, 0x00, 0x00, 0x00, 0x00, 0x00, 0x00, 0x00, 0x00, 0x00, 0x00, 0x00, 0x00, 0x00, 0x00, 0x00, 
.................... 0x00, 0x00, 0x00, 0x00, 0x00, 0x00, 0x00, 0x00, 0x00, 0x00, 0x00, 0x00, 0x00, 0x00, 0x00, 0x00, 
.................... 0x00, 0x00, 0x00, 0x00, 0x00, 0x00, 0x00, 0x00, 0x00, 0x00, 0x00, 0x00, 0x00, 0x00, 0x60, 0x00, 
.................... 0x00, 0x00, 0x00, 0x00, 0x00, 0x00, 0x00, 0x00, 0x00, 0x00, 0x00, 0x00, 0x00, 0x00, 0xF0, 0x00, 
.................... 0x00, 0x00, 0x00, 0x00, 0x00, 0x00, 0x00, 0x00, 0x00, 0x00, 0x00, 0x00, 0x00, 0x01, 0xF8, 0x00, 
.................... 0x00, 0x00, 0x00, 0x00, 0x00, 0x00, 0x00, 0x00, 0x00, 0x00, 0x00, 0x00, 0x00, 0x01, 0xF8, 0x00, 
.................... 0x00, 0x00, 0x00, 0x00, 0x00, 0x00, 0x00, 0x00, 0x00, 0x00, 0x00, 0x00, 0x00, 0x01, 0xF8, 0x00, 
.................... 0x00, 0x00, 0x00, 0x00, 0x00, 0x00, 0x00, 0x00, 0x00, 0x00, 0x00, 0x00, 0x00, 0x00, 0xF0, 0x00, 
.................... 0x00, 0x00, 0x00, 0x00, 0x00, 0x00, 0x00, 0x00, 0x00, 0x00, 0x00, 0x00, 0x00, 0x38, 0x71, 0xC0, 
.................... 0x00, 0x00, 0x00, 0x00, 0x00, 0x00, 0x00, 0x00, 0x00, 0x00, 0x00, 0x00, 0x00, 0x7C, 0x93, 0xE0, 
.................... 0x00, 0x00, 0x00, 0x00, 0x00, 0x00, 0x00, 0x00, 0x00, 0x00, 0x00, 0x00, 0x00, 0xFF, 0x0F, 0xF0, 
.................... 0x00, 0x00, 0x00, 0x00, 0x00, 0x00, 0x00, 0x00, 0x00, 0x00, 0x00, 0x00, 0x00, 0xFF, 0x0F, 0xF0, 
.................... 0x00, 0x00, 0x00, 0x00, 0x00, 0x00, 0x00, 0x00, 0x00, 0x00, 0x00, 0x00, 0x00, 0x7D, 0x93, 0xE0, 
.................... 0x00, 0x00, 0x00, 0x00, 0x00, 0x00, 0x00, 0x00, 0x00, 0x00, 0x00, 0x00, 0x00, 0x38, 0x61, 0xC0, 
.................... 0x00, 0x00, 0x00, 0x00, 0x00, 0x00, 0x00, 0x00, 0x00, 0x00, 0x00, 0x00, 0x00, 0x00, 0xF0, 0x00, 
.................... 0x00, 0x00, 0x00, 0x00, 0x00, 0x00, 0x00, 0x00, 0x00, 0x00, 0x00, 0x00, 0x00, 0x01, 0xF8, 0x00, 
.................... 0x00, 0x00, 0x00, 0x00, 0x00, 0x00, 0x00, 0x00, 0x00, 0x00, 0x00, 0x00, 0x00, 0x01, 0xF8, 0x00, 
.................... 0x00, 0x00, 0x00, 0x00, 0x00, 0x00, 0x00, 0x00, 0x00, 0x00, 0x00, 0x00, 0x00, 0x01, 0xF8, 0x00, 
.................... 0x00, 0x00, 0x00, 0x00, 0x00, 0x00, 0x00, 0x00, 0x00, 0x00, 0x00, 0x00, 0x00, 0x00, 0xF0, 0x00, 
.................... 0x00, 0x00, 0x00, 0x00, 0x00, 0x00, 0x00, 0x00, 0x00, 0x00, 0x00, 0x00, 0x00, 0x00, 0x60, 0x00 
.................... }; 
....................  
.................... #include "FuncionesDisplay.h" 
....................  
.................... typedef struct{ 
....................    char Letra[20]; 
.................... }MENUU; 
....................  
.................... MENUU Menus; 
....................   
.................... void displayContrasena(int digito, int x, int y, int sombreado) 
.................... { 
....................    char voltage[9]; 
....................    sprintf(voltage, "%i", digito); 
04EEE:  MOVLW  06
04EF0:  MOVLB  4
04EF2:  MOVWF  x2B
04EF4:  MOVLW  79
04EF6:  MOVWF  x2A
04EF8:  MOVFF  675,682
04EFC:  MOVLW  1F
04EFE:  MOVLB  6
04F00:  MOVWF  x83
04F02:  MOVLB  0
04F04:  RCALL  499C
....................     
....................    if(sombreado==1) 
04F06:  MOVLB  6
04F08:  DECFSZ x78,W
04F0A:  BRA    4F5A
....................       {glcd_rect(x, y, x+18, y+24, YES, ON);glcd_text57(x+2, y+1, voltage, 2, OFF);} 
04F0C:  MOVLW  12
04F0E:  ADDWF  x76,W
04F10:  MOVWF  x82
04F12:  MOVLW  18
04F14:  ADDWF  x77,W
04F16:  MOVWF  x83
04F18:  MOVFF  676,684
04F1C:  MOVFF  677,685
04F20:  MOVFF  682,686
04F24:  MOVWF  x87
04F26:  MOVLW  01
04F28:  MOVWF  x88
04F2A:  MOVWF  x89
04F2C:  MOVLB  0
04F2E:  RCALL  4C74
04F30:  MOVLW  02
04F32:  MOVLB  6
04F34:  ADDWF  x76,W
04F36:  MOVWF  x82
04F38:  MOVLW  01
04F3A:  ADDWF  x77,W
04F3C:  MOVWF  x83
04F3E:  MOVFF  682,684
04F42:  MOVWF  x85
04F44:  MOVLW  06
04F46:  MOVWF  x87
04F48:  MOVLW  79
04F4A:  MOVWF  x86
04F4C:  MOVLW  02
04F4E:  MOVWF  x88
04F50:  CLRF   x89
04F52:  MOVLB  0
04F54:  RCALL  4D36
....................    else    
04F56:  BRA    4FA4
04F58:  MOVLB  6
....................       {glcd_rect(x, y, x+18, y+24, NO, OFF);glcd_text57(x+2, y+1, voltage, 2, ON);} 
04F5A:  MOVLW  12
04F5C:  ADDWF  x76,W
04F5E:  MOVWF  x82
04F60:  MOVLW  18
04F62:  ADDWF  x77,W
04F64:  MOVWF  x83
04F66:  MOVFF  676,684
04F6A:  MOVFF  677,685
04F6E:  MOVFF  682,686
04F72:  MOVWF  x87
04F74:  CLRF   x88
04F76:  CLRF   x89
04F78:  MOVLB  0
04F7A:  RCALL  4C74
04F7C:  MOVLW  02
04F7E:  MOVLB  6
04F80:  ADDWF  x76,W
04F82:  MOVWF  x82
04F84:  MOVLW  01
04F86:  ADDWF  x77,W
04F88:  MOVWF  x83
04F8A:  MOVFF  682,684
04F8E:  MOVWF  x85
04F90:  MOVLW  06
04F92:  MOVWF  x87
04F94:  MOVLW  79
04F96:  MOVWF  x86
04F98:  MOVLW  02
04F9A:  MOVWF  x88
04F9C:  MOVLW  01
04F9E:  MOVWF  x89
04FA0:  MOVLB  0
04FA2:  RCALL  4D36
....................  
.................... } 
04FA4:  RETLW  00
....................  
.................... void displayTiempo(int digito, int x, int y, int sombreado, int tamano) 
.................... { 
....................    char voltage[9]; 
....................    sprintf(voltage, "%i", digito); 
*
05784:  MOVLW  06
05786:  MOVLB  4
05788:  MOVWF  x2B
0578A:  MOVLW  71
0578C:  MOVWF  x2A
0578E:  MOVFF  66C,682
05792:  MOVLW  1F
05794:  MOVLB  6
05796:  MOVWF  x83
05798:  MOVLB  0
0579A:  CALL   499C
....................     
....................    if(sombreado==1) 
0579E:  MOVLB  6
057A0:  DECFSZ x6F,W
057A2:  BRA    57FC
....................       {glcd_rect(x, y, x+(tamano*6), y+(tamano*8), YES, ON);glcd_text57(x+2, y+1, voltage, tamano, OFF);} 
057A4:  MOVF   x70,W
057A6:  MULLW  06
057A8:  MOVF   FF3,W
057AA:  ADDWF  x6D,W
057AC:  MOVWF  x7A
057AE:  MOVF   x70,W
057B0:  MULLW  08
057B2:  MOVF   FF3,W
057B4:  ADDWF  x6E,W
057B6:  MOVWF  x7B
057B8:  MOVFF  66D,684
057BC:  MOVFF  66E,685
057C0:  MOVFF  67A,686
057C4:  MOVWF  x87
057C6:  MOVLW  01
057C8:  MOVWF  x88
057CA:  MOVWF  x89
057CC:  MOVLB  0
057CE:  CALL   4C74
057D2:  MOVLW  02
057D4:  MOVLB  6
057D6:  ADDWF  x6D,W
057D8:  MOVWF  x7A
057DA:  MOVLW  01
057DC:  ADDWF  x6E,W
057DE:  MOVWF  x7B
057E0:  MOVFF  67A,684
057E4:  MOVWF  x85
057E6:  MOVLW  06
057E8:  MOVWF  x87
057EA:  MOVLW  71
057EC:  MOVWF  x86
057EE:  MOVFF  670,688
057F2:  CLRF   x89
057F4:  MOVLB  0
057F6:  CALL   4D36
057FA:  MOVLB  6
....................    if(sombreado==0) 
057FC:  MOVF   x6F,F
057FE:  BNZ   585A
....................       {glcd_rect(x, y, x+(tamano*6), y+(tamano*8), YES, OFF);glcd_text57(x+2, y+1, voltage, tamano, ON);} 
05800:  MOVF   x70,W
05802:  MULLW  06
05804:  MOVF   FF3,W
05806:  ADDWF  x6D,W
05808:  MOVWF  x7A
0580A:  MOVF   x70,W
0580C:  MULLW  08
0580E:  MOVF   FF3,W
05810:  ADDWF  x6E,W
05812:  MOVWF  x7B
05814:  MOVFF  66D,684
05818:  MOVFF  66E,685
0581C:  MOVFF  67A,686
05820:  MOVWF  x87
05822:  MOVLW  01
05824:  MOVWF  x88
05826:  CLRF   x89
05828:  MOVLB  0
0582A:  CALL   4C74
0582E:  MOVLW  02
05830:  MOVLB  6
05832:  ADDWF  x6D,W
05834:  MOVWF  x7A
05836:  MOVLW  01
05838:  ADDWF  x6E,W
0583A:  MOVWF  x7B
0583C:  MOVFF  67A,684
05840:  MOVWF  x85
05842:  MOVLW  06
05844:  MOVWF  x87
05846:  MOVLW  71
05848:  MOVWF  x86
0584A:  MOVFF  670,688
0584E:  MOVLW  01
05850:  MOVWF  x89
05852:  MOVLB  0
05854:  CALL   4D36
05858:  MOVLB  6
....................  
.................... } 
0585A:  MOVLB  0
0585C:  RETLW  00
....................  
.................... void displayMenu(char palabra[100], int x, int y, int sombreado, int tamano) 
.................... { 
....................    strcpy(Menus.Letra,palabra); 
*
04FA6:  MOVLB  6
04FA8:  MOVFF  673,01
04FAC:  MOVFF  674,03
04FB0:  MOVFF  673,679
04FB4:  MOVFF  674,67A
04FB8:  MOVLW  04
04FBA:  MOVWF  FEA
04FBC:  MOVLW  16
04FBE:  MOVWF  FE9
04FC0:  MOVFF  674,FE2
04FC4:  MOVFF  673,FE1
04FC8:  MOVF   FE7,F
04FCA:  MOVFF  FE6,FEE
04FCE:  BNZ   4FC8
....................    if(sombreado==1) 
04FD0:  DECFSZ x77,W
04FD2:  BRA    501E
....................       {glcd_rect(0, y, 127, y+(tamano*8), YES, ON);glcd_text57(x+1, y+1, Menus.Letra, tamano, OFF);} 
04FD4:  MOVF   x78,W
04FD6:  MULLW  08
04FD8:  MOVF   FF3,W
04FDA:  ADDWF  x76,W
04FDC:  MOVWF  x79
04FDE:  CLRF   x84
04FE0:  MOVFF  676,685
04FE4:  MOVLW  7F
04FE6:  MOVWF  x86
04FE8:  MOVFF  679,687
04FEC:  MOVLW  01
04FEE:  MOVWF  x88
04FF0:  MOVWF  x89
04FF2:  MOVLB  0
04FF4:  RCALL  4C74
04FF6:  MOVLW  01
04FF8:  MOVLB  6
04FFA:  ADDWF  x75,W
04FFC:  MOVWF  x79
04FFE:  MOVLW  01
05000:  ADDWF  x76,W
05002:  MOVWF  x7A
05004:  MOVFF  679,684
05008:  MOVWF  x85
0500A:  MOVLW  04
0500C:  MOVWF  x87
0500E:  MOVLW  16
05010:  MOVWF  x86
05012:  MOVFF  678,688
05016:  CLRF   x89
05018:  MOVLB  0
0501A:  RCALL  4D36
0501C:  MOVLB  6
....................    if(sombreado==0) 
0501E:  MOVF   x77,F
05020:  BNZ   506E
....................       {glcd_rect(0, y, 127, y+(tamano*8), YES, OFF);glcd_text57(x+1, y+1, Menus.Letra, tamano, ON);} 
05022:  MOVF   x78,W
05024:  MULLW  08
05026:  MOVF   FF3,W
05028:  ADDWF  x76,W
0502A:  MOVWF  x79
0502C:  CLRF   x84
0502E:  MOVFF  676,685
05032:  MOVLW  7F
05034:  MOVWF  x86
05036:  MOVFF  679,687
0503A:  MOVLW  01
0503C:  MOVWF  x88
0503E:  CLRF   x89
05040:  MOVLB  0
05042:  RCALL  4C74
05044:  MOVLW  01
05046:  MOVLB  6
05048:  ADDWF  x75,W
0504A:  MOVWF  x79
0504C:  MOVLW  01
0504E:  ADDWF  x76,W
05050:  MOVWF  x7A
05052:  MOVFF  679,684
05056:  MOVWF  x85
05058:  MOVLW  04
0505A:  MOVWF  x87
0505C:  MOVLW  16
0505E:  MOVWF  x86
05060:  MOVFF  678,688
05064:  MOVLW  01
05066:  MOVWF  x89
05068:  MOVLB  0
0506A:  RCALL  4D36
0506C:  MOVLB  6
....................  
.................... } 
0506E:  MOVLB  0
05070:  RETLW  00
....................  
.................... void displayfloat(float adc,int x,int y,int sombreado, int tamano) { 
....................    char voltage[9];     
....................       sprintf(voltage, "%2.0fC",adc); // Converts adc to text 
*
05CDC:  MOVLW  06
05CDE:  MOVLB  4
05CE0:  MOVWF  x2B
05CE2:  MOVLW  78
05CE4:  MOVWF  x2A
05CE6:  MOVLW  01
05CE8:  MOVWF  FE9
05CEA:  MOVFF  673,684
05CEE:  MOVFF  672,683
05CF2:  MOVFF  671,682
05CF6:  MOVFF  670,681
05CFA:  MOVLB  6
05CFC:  CLRF   x85
05CFE:  MOVLB  0
05D00:  BRA    5B26
05D02:  MOVLW  B0
05D04:  MOVLB  6
05D06:  MOVWF  x8E
05D08:  MOVLB  0
05D0A:  CALL   497A
05D0E:  MOVLW  43
05D10:  MOVLB  6
05D12:  MOVWF  x8E
05D14:  MOVLB  0
05D16:  CALL   497A
....................        
....................    if(sombreado==1) 
05D1A:  MOVLB  6
05D1C:  DECFSZ x76,W
05D1E:  BRA    5D78
....................       {glcd_rect(x, y, x+(tamano*20), y+(tamano*8), YES, ON);glcd_text57(x+2, y+1, voltage, tamano, OFF);} 
05D20:  MOVF   x77,W
05D22:  MULLW  14
05D24:  MOVF   FF3,W
05D26:  ADDWF  x74,W
05D28:  MOVWF  x81
05D2A:  MOVF   x77,W
05D2C:  MULLW  08
05D2E:  MOVF   FF3,W
05D30:  ADDWF  x75,W
05D32:  MOVWF  x82
05D34:  MOVFF  674,684
05D38:  MOVFF  675,685
05D3C:  MOVFF  681,686
05D40:  MOVWF  x87
05D42:  MOVLW  01
05D44:  MOVWF  x88
05D46:  MOVWF  x89
05D48:  MOVLB  0
05D4A:  CALL   4C74
05D4E:  MOVLW  02
05D50:  MOVLB  6
05D52:  ADDWF  x74,W
05D54:  MOVWF  x81
05D56:  MOVLW  01
05D58:  ADDWF  x75,W
05D5A:  MOVWF  x82
05D5C:  MOVFF  681,684
05D60:  MOVWF  x85
05D62:  MOVLW  06
05D64:  MOVWF  x87
05D66:  MOVLW  78
05D68:  MOVWF  x86
05D6A:  MOVFF  677,688
05D6E:  CLRF   x89
05D70:  MOVLB  0
05D72:  CALL   4D36
05D76:  MOVLB  6
....................    if(sombreado==0) 
05D78:  MOVF   x76,F
05D7A:  BNZ   5DD6
....................       {glcd_rect(x, y, x+(tamano*20), y+(tamano*8), YES, OFF);glcd_text57(x+2, y+1, voltage, tamano, ON);} 
05D7C:  MOVF   x77,W
05D7E:  MULLW  14
05D80:  MOVF   FF3,W
05D82:  ADDWF  x74,W
05D84:  MOVWF  x81
05D86:  MOVF   x77,W
05D88:  MULLW  08
05D8A:  MOVF   FF3,W
05D8C:  ADDWF  x75,W
05D8E:  MOVWF  x82
05D90:  MOVFF  674,684
05D94:  MOVFF  675,685
05D98:  MOVFF  681,686
05D9C:  MOVWF  x87
05D9E:  MOVLW  01
05DA0:  MOVWF  x88
05DA2:  CLRF   x89
05DA4:  MOVLB  0
05DA6:  CALL   4C74
05DAA:  MOVLW  02
05DAC:  MOVLB  6
05DAE:  ADDWF  x74,W
05DB0:  MOVWF  x81
05DB2:  MOVLW  01
05DB4:  ADDWF  x75,W
05DB6:  MOVWF  x82
05DB8:  MOVFF  681,684
05DBC:  MOVWF  x85
05DBE:  MOVLW  06
05DC0:  MOVWF  x87
05DC2:  MOVLW  78
05DC4:  MOVWF  x86
05DC6:  MOVFF  677,688
05DCA:  MOVLW  01
05DCC:  MOVWF  x89
05DCE:  MOVLB  0
05DD0:  CALL   4D36
05DD4:  MOVLB  6
....................        
.................... } 
05DD6:  MOVLB  0
05DD8:  RETLW  00
....................  
.................... // Funcion para conversor analogo-digital 
.................... unsigned int16 sensores(int x){ 
.................... unsigned int16 y;set_adc_channel(x);delay_ms(1);y=read_adc();return (y); 
*
03204:  MOVLB  6
03206:  RLCF   x7D,W
03208:  MOVWF  00
0320A:  RLCF   00,F
0320C:  MOVLW  FC
0320E:  ANDWF  00,F
03210:  MOVFF  00,01
03214:  MOVF   FC2,W
03216:  ANDLW  C3
03218:  IORWF  00,W
0321A:  MOVWF  FC2
0321C:  MOVLW  01
0321E:  MOVWF  x80
03220:  MOVLB  0
03222:  CALL   14A0
03226:  BSF    FC2.1
03228:  BTFSC  FC2.1
0322A:  BRA    3228
0322C:  MOVFF  FC4,67F
03230:  MOVLB  6
03232:  MOVFF  FC3,67E
03236:  MOVFF  67E,01
0323A:  MOVFF  67F,02
.................... } 
0323E:  MOVLB  0
03240:  RETLW  00
.................... void displayInt16(int16 digito, int x, int y, int sombreado, int tamano) 
.................... { 
....................    char voltage[9]; 
....................     
....................    if(sombreado==2) 
*
05E98:  MOVLB  6
05E9A:  MOVF   x72,W
05E9C:  SUBLW  02
05E9E:  BNZ   5F16
....................    { 
....................       sprintf(voltage, "%04Lu", digito); 
05EA0:  MOVLW  06
05EA2:  MOVLB  4
05EA4:  MOVWF  x2B
05EA6:  MOVLW  74
05EA8:  MOVWF  x2A
05EAA:  MOVLW  09
05EAC:  MOVWF  FE9
05EAE:  MOVFF  66F,67E
05EB2:  MOVFF  66E,67D
05EB6:  MOVLB  0
05EB8:  RCALL  5DDA
....................       glcd_rect(x, y, x+(tamano*18), y+(tamano*8), YES, ON); 
05EBA:  MOVLB  6
05EBC:  MOVF   x73,W
05EBE:  MULLW  12
05EC0:  MOVF   FF3,W
05EC2:  ADDWF  x70,W
05EC4:  MOVWF  x7D
05EC6:  MOVF   x73,W
05EC8:  MULLW  08
05ECA:  MOVF   FF3,W
05ECC:  ADDWF  x71,W
05ECE:  MOVWF  x7E
05ED0:  MOVFF  670,684
05ED4:  MOVFF  671,685
05ED8:  MOVFF  67D,686
05EDC:  MOVWF  x87
05EDE:  MOVLW  01
05EE0:  MOVWF  x88
05EE2:  MOVWF  x89
05EE4:  MOVLB  0
05EE6:  CALL   4C74
....................       glcd_text57(x+1, y+1, voltage, tamano, OFF); 
05EEA:  MOVLW  01
05EEC:  MOVLB  6
05EEE:  ADDWF  x70,W
05EF0:  MOVWF  x7D
05EF2:  MOVLW  01
05EF4:  ADDWF  x71,W
05EF6:  MOVWF  x7E
05EF8:  MOVFF  67D,684
05EFC:  MOVWF  x85
05EFE:  MOVLW  06
05F00:  MOVWF  x87
05F02:  MOVLW  74
05F04:  MOVWF  x86
05F06:  MOVFF  673,688
05F0A:  CLRF   x89
05F0C:  MOVLB  0
05F0E:  CALL   4D36
....................    } 
....................    else 
05F12:  BRA    604A
05F14:  MOVLB  6
....................    { 
....................       sprintf(voltage, "%04Lu", digito); 
05F16:  MOVLW  06
05F18:  MOVLB  4
05F1A:  MOVWF  x2B
05F1C:  MOVLW  74
05F1E:  MOVWF  x2A
05F20:  MOVLW  09
05F22:  MOVWF  FE9
05F24:  MOVFF  66F,67E
05F28:  MOVFF  66E,67D
05F2C:  MOVLB  0
05F2E:  RCALL  5DDA
....................     
....................       if(sombreado==4) 
05F30:  MOVLB  6
05F32:  MOVF   x72,W
05F34:  SUBLW  04
05F36:  BNZ   5F92
....................       { 
....................          glcd_rect(x, y, x+(tamano*16), y+(tamano*8), YES, OFF); 
05F38:  MOVF   x73,W
05F3A:  MULLW  10
05F3C:  MOVF   FF3,W
05F3E:  ADDWF  x70,W
05F40:  MOVWF  x7D
05F42:  MOVF   x73,W
05F44:  MULLW  08
05F46:  MOVF   FF3,W
05F48:  ADDWF  x71,W
05F4A:  MOVWF  x7E
05F4C:  MOVFF  670,684
05F50:  MOVFF  671,685
05F54:  MOVFF  67D,686
05F58:  MOVWF  x87
05F5A:  MOVLW  01
05F5C:  MOVWF  x88
05F5E:  CLRF   x89
05F60:  MOVLB  0
05F62:  CALL   4C74
....................          glcd_text57(x+1, y+1, voltage, tamano, ON); 
05F66:  MOVLW  01
05F68:  MOVLB  6
05F6A:  ADDWF  x70,W
05F6C:  MOVWF  x7D
05F6E:  MOVLW  01
05F70:  ADDWF  x71,W
05F72:  MOVWF  x7E
05F74:  MOVFF  67D,684
05F78:  MOVWF  x85
05F7A:  MOVLW  06
05F7C:  MOVWF  x87
05F7E:  MOVLW  74
05F80:  MOVWF  x86
05F82:  MOVFF  673,688
05F86:  MOVLW  01
05F88:  MOVWF  x89
05F8A:  MOVLB  0
05F8C:  CALL   4D36
05F90:  MOVLB  6
....................       } 
....................       if(sombreado==1) 
05F92:  DECFSZ x72,W
05F94:  BRA    5FEE
....................          {glcd_rect(x, y, x+(tamano*5), y+(tamano*8), YES, ON);glcd_text57(x+1, y+1, voltage, tamano, OFF);} 
05F96:  MOVF   x73,W
05F98:  MULLW  05
05F9A:  MOVF   FF3,W
05F9C:  ADDWF  x70,W
05F9E:  MOVWF  x7D
05FA0:  MOVF   x73,W
05FA2:  MULLW  08
05FA4:  MOVF   FF3,W
05FA6:  ADDWF  x71,W
05FA8:  MOVWF  x7E
05FAA:  MOVFF  670,684
05FAE:  MOVFF  671,685
05FB2:  MOVFF  67D,686
05FB6:  MOVWF  x87
05FB8:  MOVLW  01
05FBA:  MOVWF  x88
05FBC:  MOVWF  x89
05FBE:  MOVLB  0
05FC0:  CALL   4C74
05FC4:  MOVLW  01
05FC6:  MOVLB  6
05FC8:  ADDWF  x70,W
05FCA:  MOVWF  x7D
05FCC:  MOVLW  01
05FCE:  ADDWF  x71,W
05FD0:  MOVWF  x7E
05FD2:  MOVFF  67D,684
05FD6:  MOVWF  x85
05FD8:  MOVLW  06
05FDA:  MOVWF  x87
05FDC:  MOVLW  74
05FDE:  MOVWF  x86
05FE0:  MOVFF  673,688
05FE4:  CLRF   x89
05FE6:  MOVLB  0
05FE8:  CALL   4D36
05FEC:  MOVLB  6
....................       if(sombreado==0) 
05FEE:  MOVF   x72,F
05FF0:  BNZ   604C
....................          {glcd_rect(x, y, x+(tamano*5), y+(tamano*8), YES, OFF);glcd_text57(x+1, y+1, voltage, tamano, ON);} 
05FF2:  MOVF   x73,W
05FF4:  MULLW  05
05FF6:  MOVF   FF3,W
05FF8:  ADDWF  x70,W
05FFA:  MOVWF  x7D
05FFC:  MOVF   x73,W
05FFE:  MULLW  08
06000:  MOVF   FF3,W
06002:  ADDWF  x71,W
06004:  MOVWF  x7E
06006:  MOVFF  670,684
0600A:  MOVFF  671,685
0600E:  MOVFF  67D,686
06012:  MOVWF  x87
06014:  MOVLW  01
06016:  MOVWF  x88
06018:  CLRF   x89
0601A:  MOVLB  0
0601C:  CALL   4C74
06020:  MOVLW  01
06022:  MOVLB  6
06024:  ADDWF  x70,W
06026:  MOVWF  x7D
06028:  MOVLW  01
0602A:  ADDWF  x71,W
0602C:  MOVWF  x7E
0602E:  MOVFF  67D,684
06032:  MOVWF  x85
06034:  MOVLW  06
06036:  MOVWF  x87
06038:  MOVLW  74
0603A:  MOVWF  x86
0603C:  MOVFF  673,688
06040:  MOVLW  01
06042:  MOVWF  x89
06044:  MOVLB  0
06046:  CALL   4D36
0604A:  MOVLB  6
....................    } 
....................    glcd_update(); 
0604C:  MOVLB  0
0604E:  CALL   1558
.................... } 
06052:  RETLW  00
....................  
....................  
.................... #define   UP               !input(PIN_A5) 
.................... #define   DOWN             !input(PIN_E0) 
.................... #define   RIGHT            !input(PIN_E1) 
.................... #define   LEFT             !input(PIN_E2) 
....................  
.................... #define   Alarma_on           output_bit(PIN_C5,1) 
.................... #define   Alarma_off          output_bit(PIN_C5,0) 
.................... #define   LuzBlanca_on        output_bit(PIN_C2,0) 
.................... #define   LuzBlanca_off       output_bit(PIN_C2,1) 
.................... #define   Aux_on              output_bit(PIN_C0,1) 
.................... #define   Aux_off             output_bit(PIN_C0,0) 
.................... #define   Motor_on            output_bit(PIN_C1,0) 
.................... #define   Motor_off           output_bit(PIN_C1,1) 
.................... #define   Display_on          output_bit(PIN_B1,1) 
.................... #define   Display_off         output_bit(PIN_B1,0) 
....................  
.................... short Flanco=0,Flanco1=0,Flanco2=0,Flanco3=0,Flanco4=0,Flanco5=0,imprimir=0,flag_blower=0,flag_toma=0,flag_luz=0,flag_alarma=0,w=0,flag_uv=0; 
.................... short tiempo_purga=0,tiempo_trabajo=0,flag_latencia=0,tiempo_postpurga=0; 
.................... short guardatrabajo=0,Lectura=0,n=0; 
.................... char  JP[] = "JP Inglobal", Cabina[] = "Cabina Extractora",Dos_puntos[]=":",UV[]="UV"; 
.................... char  Clase[] = "Sin Ductos", Tiempo[] = "Tiempo de Purga"; 
.................... char  Inflowt[] = "Vel:",Downflowt[] = "Temperatura", ZF[] = "Fabrica:208.0", ZA[] = "Actual:",AJ[]="Ajuste:"; 
.................... char  Vida_Filtro[] = "T. Filtro:",ZFP[] = "Fabrica:235.0", Perdida[]="!Filtro Saturado!"; 
.................... int8 Menu=200, unidad=1, Opcion=1,negativo=10,G_l=0,G_h=0,tiemporeset=0; 
.................... int8 q=0,r=0,l=0,h=0,Entero=0,Decimal1=0,Alarma=10,instruccion=0,address=0,regl=0,regh=0; 
....................  
.................... unsigned int16 Inflow_adc=0,Filtro_Downflow_adc=0,Temporal1=0; 
....................  
.................... int16 t_latencia=0,minutos_uv=0,minutos_trabajo=0,G16=0,tup=0,tdown=0,tright=0,tleft=0,tvidrio=0,reg=0; 
.................... signed int  Tpurga[4]={0,0,0,0};       // Tiempo de Purga transcurrido 
.................... signed int  Tpurgap[4]={9,0,0,0};      // Tiempo de Purga programado 
.................... signed int  Tppurga[4]={0,0,0,0};      // Tiempo de Post-Purga transcurrido 
.................... signed int  Tppurgap[4]={9,0,0,0};     // Tiempo de Post-Purga programado 
.................... signed int  Tuv[4]={0,0,0,0};          // Tiempo de UV transcurrido(en Horas) 
.................... signed int  Tempouvp[4]={0,0,0,0};        // Tiempo de UV transcurrido 
.................... signed int  Ttrabajo[4]={0,0,0,0};        // Tiempo de trabajo transcurrido (en Horas) 
.................... signed int  Contrasena[4]={0,0,0,0};      // Contrasena de 4 digitos 
.................... signed int  Password[4]={0,0,0,0};        // Contrasena Almacenada de 4 digitos 
.................... float Inflow=0.0,Downflow=0.0,Filtro_Downflow=0.0,Diferencia=0.0; 
.................... float Velocidad=0.0,x_uno=0.0,x_cuadrado=0.0,x_cubo=0.0,Ajuste1=0.0,Ajuste2=0.0; 
.................... float Temporal=0.0,Temporal2=0.0; 
.................... float a=0.00000957915546738639,b=-0.00727819571978831,c= 1.85375754678451,d= -156.816806902063; 
.................... //float t=378.463968402560,f=-18275.0402762787;//Sensor 2 Posible bueno 
....................  
.................... float promedio[8]={0.0,0.0,0.0,0.0,0.0,0.0,0.0,0.0}; 
.................... float promedio2[8]={0.0,0.0,0.0,0.0,0.0,0.0,0.0,0.0}; 
.................... float PromPresion[8]={0.0,0.0,0.0,0.0,0.0,0.0,0.0,0.0}; 
.................... float Flujo=0.0,zero_fabrica=208.0,zero_actual=0.0; 
.................... float V1=0.0,Presion=0.0,G=2.0; 
....................  
.................... int16 pulsos=0,retardo=0,tiempos=0; 
.................... int8 i=0,l2=0,h2=0,Temperatura=0; 
.................... short Cruce=OFF,Purga=OFF; 
.................... int16 tiempocruce=0; 
.................... int8 Porcentaje=0,VelMotor=0; 
.................... float Tcruce=0.0,Tcruce2=0; 
....................  
.................... //Comunicacion//------------------------ 
.................... byte SlaveA0Tx[0X20]; 
.................... byte txbuf[100]; 
.................... byte dato=0;            //Contendr la informacin a enviar o recibir 
.................... byte direccion=0;       //Contendr la direccin del esclavo en el bus I2C 
.................... byte posicion=0;  
....................  
.................... #include "Funciones.h" 
.................... void Envio_I2C(direccion, posicion, dato){ 
....................  
....................    i2c_start();            // Comienzo comunicacin 
*
01C86:  BSF    F94.4
01C88:  MOVLW  05
01C8A:  MOVWF  00
01C8C:  DECFSZ 00,F
01C8E:  BRA    1C8C
01C90:  BSF    F94.3
01C92:  MOVLW  06
01C94:  MOVWF  00
01C96:  DECFSZ 00,F
01C98:  BRA    1C96
01C9A:  BCF    F8B.4
01C9C:  BCF    F94.4
01C9E:  MOVLW  05
01CA0:  MOVWF  00
01CA2:  DECFSZ 00,F
01CA4:  BRA    1CA2
01CA6:  BCF    F8B.3
01CA8:  BCF    F94.3
....................    i2c_write(direccion);   // Direccin del esclavo en el bus I2C 
01CAA:  MOVFF  675,678
01CAE:  RCALL  16B8
....................    i2c_write(posicion);    // Posicin donde se guardara el dato transmitido 
01CB0:  MOVFF  676,678
01CB4:  RCALL  16B8
....................    i2c_write(dato);        // Dato a transmitir 
01CB6:  MOVFF  677,678
01CBA:  RCALL  16B8
....................    i2c_stop();             // Fin comunicacin 
01CBC:  BCF    F94.4
01CBE:  NOP   
01CC0:  BSF    F94.3
01CC2:  BTFSS  F82.3
01CC4:  BRA    1CC2
01CC6:  MOVLW  05
01CC8:  MOVWF  00
01CCA:  DECFSZ 00,F
01CCC:  BRA    1CCA
01CCE:  BRA    1CD0
01CD0:  NOP   
01CD2:  BSF    F94.4
01CD4:  MOVLW  05
01CD6:  MOVWF  00
01CD8:  DECFSZ 00,F
01CDA:  BRA    1CD8
....................  } 
01CDC:  GOTO   1D2A (RETURN)
....................  
.................... void Lectura_I2C (byte direccion, byte posicion, byte &dato) { 
....................  
....................    i2c_start();            // Comienzo de la comunicacin 
*
017A0:  BSF    F94.4
017A2:  MOVLW  05
017A4:  MOVWF  00
017A6:  DECFSZ 00,F
017A8:  BRA    17A6
017AA:  BSF    F94.3
017AC:  MOVLW  06
017AE:  MOVWF  00
017B0:  DECFSZ 00,F
017B2:  BRA    17B0
017B4:  BCF    F8B.4
017B6:  BCF    F94.4
017B8:  MOVLW  05
017BA:  MOVWF  00
017BC:  DECFSZ 00,F
017BE:  BRA    17BC
017C0:  BCF    F8B.3
017C2:  BCF    F94.3
*
01860:  BSF    F94.4
01862:  MOVLW  05
01864:  MOVWF  00
01866:  DECFSZ 00,F
01868:  BRA    1866
0186A:  BSF    F94.3
0186C:  MOVLW  06
0186E:  MOVWF  00
01870:  DECFSZ 00,F
01872:  BRA    1870
01874:  BCF    F8B.4
01876:  BCF    F94.4
01878:  MOVLW  05
0187A:  MOVWF  00
0187C:  DECFSZ 00,F
0187E:  BRA    187C
01880:  BCF    F8B.3
01882:  BCF    F94.3
....................    i2c_write(direccion);   // Direccin del esclavo en el bus I2C 
*
017C4:  MOVFF  673,678
017C8:  MOVLB  0
017CA:  RCALL  16B8
*
01884:  MOVFF  673,678
01888:  MOVLB  0
0188A:  RCALL  16B8
....................    i2c_write(posicion);    // Posicin de donde se leer el dato en el esclavo 
*
017CC:  MOVFF  674,678
017D0:  RCALL  16B8
*
0188C:  MOVFF  674,678
01890:  RCALL  16B8
....................    i2c_start();            // Reinicio 
*
017D2:  BSF    F94.4
017D4:  MOVLW  05
017D6:  MOVWF  00
017D8:  DECFSZ 00,F
017DA:  BRA    17D8
017DC:  BSF    F94.3
017DE:  MOVLW  06
017E0:  MOVWF  00
017E2:  DECFSZ 00,F
017E4:  BRA    17E2
017E6:  BTFSS  F82.3
017E8:  BRA    17E6
017EA:  BCF    F8B.4
017EC:  BCF    F94.4
017EE:  MOVLW  05
017F0:  MOVWF  00
017F2:  DECFSZ 00,F
017F4:  BRA    17F2
017F6:  BCF    F8B.3
017F8:  BCF    F94.3
*
01892:  BSF    F94.4
01894:  MOVLW  05
01896:  MOVWF  00
01898:  DECFSZ 00,F
0189A:  BRA    1898
0189C:  BSF    F94.3
0189E:  MOVLW  06
018A0:  MOVWF  00
018A2:  DECFSZ 00,F
018A4:  BRA    18A2
018A6:  BTFSS  F82.3
018A8:  BRA    18A6
018AA:  BCF    F8B.4
018AC:  BCF    F94.4
018AE:  MOVLW  05
018B0:  MOVWF  00
018B2:  DECFSZ 00,F
018B4:  BRA    18B2
018B6:  BCF    F8B.3
018B8:  BCF    F94.3
....................    i2c_write(direccion+1); // Direccin del esclavo en modo lectura 
*
017FA:  MOVLW  01
017FC:  MOVLB  6
017FE:  ADDWF  x73,W
01800:  MOVWF  x75
01802:  MOVWF  x78
01804:  MOVLB  0
01806:  RCALL  16B8
*
018BA:  MOVLW  01
018BC:  MOVLB  6
018BE:  ADDWF  x73,W
018C0:  MOVWF  x75
018C2:  MOVWF  x78
018C4:  MOVLB  0
018C6:  RCALL  16B8
....................    dato=i2c_read(0);       // Lectura del dato 
*
01808:  CLRF   00
0180A:  RCALL  172E
0180C:  MOVFF  01,669
*
018C8:  CLRF   00
018CA:  RCALL  172E
018CC:  MOVFF  01,669
....................    i2c_stop();             // Fin comunicacin 
*
01810:  BCF    F94.4
01812:  NOP   
01814:  BSF    F94.3
01816:  BTFSS  F82.3
01818:  BRA    1816
0181A:  MOVLW  05
0181C:  MOVWF  00
0181E:  DECFSZ 00,F
01820:  BRA    181E
01822:  BRA    1824
01824:  NOP   
01826:  BSF    F94.4
01828:  MOVLW  05
0182A:  MOVWF  00
0182C:  DECFSZ 00,F
0182E:  BRA    182C
*
018D0:  BCF    F94.4
018D2:  NOP   
018D4:  BSF    F94.3
018D6:  BTFSS  F82.3
018D8:  BRA    18D6
018DA:  MOVLW  05
018DC:  MOVWF  00
018DE:  DECFSZ 00,F
018E0:  BRA    18DE
018E2:  BRA    18E4
018E4:  NOP   
018E6:  BSF    F94.4
018E8:  MOVLW  05
018EA:  MOVWF  00
018EC:  DECFSZ 00,F
018EE:  BRA    18EC
.................... } 
....................  
.................... void Carga_Vector(void){ 
....................    SlaveA0Tx[0]=instruccion; 
*
01C72:  MOVFF  4D5,5E5
....................    SlaveA0Tx[1]=address; 
01C76:  MOVFF  4D6,5E6
....................    SlaveA0Tx[2]=regl; 
01C7A:  MOVFF  4D7,5E7
....................    SlaveA0Tx[3]=regh; 
01C7E:  MOVFF  4D8,5E8
.................... } 
01C82:  GOTO   1CE2 (RETURN)
....................  
.................... void Lee_Vector(void){ 
....................     
.................... } 
*
00004:  GOTO   190E (RETURN)
....................  
.................... void Envio_Esclavos(void){ 
....................    Carga_Vector(); 
*
01CE0:  BRA    1C72
....................    for(n=0;n<4;n++) 
01CE2:  MOVLB  4
01CE4:  BCF    x2E.3
01CE6:  MOVLW  00
01CE8:  BTFSC  x2E.3
01CEA:  MOVLW  01
01CEC:  SUBLW  03
01CEE:  BNC   1D30
....................    { 
....................       direccion=0xB0; 
01CF0:  MOVLW  B0
01CF2:  MOVLB  6
01CF4:  MOVWF  x6A
....................       Envio_I2C(direccion,n,SlaveA0Tx[n]); 
01CF6:  MOVLW  00
01CF8:  MOVLB  4
01CFA:  BTFSC  x2E.3
01CFC:  MOVLW  01
01CFE:  MOVLB  6
01D00:  MOVWF  x73
01D02:  MOVLW  00
01D04:  MOVLB  4
01D06:  BTFSC  x2E.3
01D08:  MOVLW  01
01D0A:  CLRF   03
01D0C:  ADDLW  E5
01D0E:  MOVWF  FE9
01D10:  MOVLW  05
01D12:  ADDWFC 03,W
01D14:  MOVWF  FEA
01D16:  MOVFF  FEF,674
01D1A:  MOVFF  66A,675
01D1E:  MOVFF  673,676
01D22:  MOVFF  674,677
01D26:  MOVLB  0
01D28:  BRA    1C86
....................    }  
01D2A:  MOVLB  4
01D2C:  BTG    x2E.3
01D2E:  BRA    1CE6
.................... } 
01D30:  MOVLB  0
01D32:  RETLW  00
.................... void Lectura_Esclavos(void){ 
....................    Lectura_I2C(0xB0, 0, dato);    //Lectura por I2C 
*
01798:  MOVLW  B0
0179A:  MOVLB  6
0179C:  MOVWF  x73
0179E:  CLRF   x74
....................    txbuf[0]=(int8)dato; 
*
01830:  MOVFF  669,605
....................    if(txbuf[0]>100) 
01834:  MOVLB  6
01836:  MOVF   x05,W
01838:  SUBLW  64
0183A:  BC    183E
....................       txbuf[0]=0; 
0183C:  CLRF   x05
....................    for(i=1;i<txbuf[0];i++) 
0183E:  MOVLW  01
01840:  MOVLB  5
01842:  MOVWF  xD5
01844:  MOVLB  6
01846:  MOVF   x05,W
01848:  MOVLB  5
0184A:  SUBWF  xD5,W
0184C:  BC    1908
....................    { 
....................       direccion=0xB0;                        //Direccin en el bus I2c 
0184E:  MOVLW  B0
01850:  MOVLB  6
01852:  MOVWF  x6A
....................       posicion=i;                         //Posicin de memoria a leer 
01854:  MOVFF  5D5,66B
....................       Lectura_I2C(direccion, posicion, dato);    //Lectura por I2C 
01858:  MOVFF  66A,673
0185C:  MOVFF  66B,674
....................       txbuf[i]=(int8)dato; 
*
018F0:  CLRF   03
018F2:  MOVLB  5
018F4:  MOVF   xD5,W
018F6:  ADDLW  05
018F8:  MOVWF  FE9
018FA:  MOVLW  06
018FC:  ADDWFC 03,W
018FE:  MOVWF  FEA
01900:  MOVFF  669,FEF
....................    } 
01904:  INCF   xD5,F
01906:  BRA    1844
....................    Lee_Vector(); 
01908:  MOVLB  0
0190A:  GOTO   0004
.................... } 
0190E:  RETLW  00
....................  
....................  
.................... float leeTemperatura(int8 media){ 
*
0476E:  MOVLB  6
04770:  CLRF   x70
04772:  CLRF   x6F
04774:  CLRF   x6E
04776:  CLRF   x6D
04778:  CLRF   x74
0477A:  CLRF   x73
0477C:  CLRF   x72
0477E:  CLRF   x71
04780:  CLRF   x78
04782:  CLRF   x77
04784:  CLRF   x76
04786:  CLRF   x75
04788:  CLRF   x7C
0478A:  CLRF   x7B
0478C:  CLRF   x7A
0478E:  CLRF   x79
....................    float ADC=0,V=0,T=0,Tempera=0; 
....................    ADC=sensores(2); 
04790:  MOVLW  02
04792:  MOVWF  x7D
04794:  MOVLB  0
04796:  CALL   3204
0479A:  MOVFF  02,6A2
0479E:  MOVFF  01,6A1
047A2:  CALL   1932
047A6:  MOVFF  03,670
047AA:  MOVFF  02,66F
047AE:  MOVFF  01,66E
047B2:  MOVFF  00,66D
....................    V=5*ADC/1023; 
047B6:  MOVLB  6
047B8:  CLRF   xA0
047BA:  CLRF   x9F
047BC:  MOVLW  20
047BE:  MOVWF  x9E
047C0:  MOVLW  81
047C2:  MOVWF  x9D
047C4:  MOVFF  670,6A4
047C8:  MOVFF  66F,6A3
047CC:  MOVFF  66E,6A2
047D0:  MOVFF  66D,6A1
047D4:  MOVLB  0
047D6:  CALL   1AC6
047DA:  MOVFF  00,67D
047DE:  MOVFF  01,67E
047E2:  MOVFF  02,67F
047E6:  MOVFF  03,680
047EA:  MOVFF  03,6A0
047EE:  MOVFF  02,69F
047F2:  MOVFF  01,69E
047F6:  MOVFF  00,69D
047FA:  MOVLB  6
047FC:  CLRF   xA4
047FE:  MOVLW  C0
04800:  MOVWF  xA3
04802:  MOVLW  7F
04804:  MOVWF  xA2
04806:  MOVLW  88
04808:  MOVWF  xA1
0480A:  MOVLB  0
0480C:  CALL   1968
04810:  MOVFF  03,674
04814:  MOVFF  02,673
04818:  MOVFF  01,672
0481C:  MOVFF  00,671
....................    T=V/0.01; 
04820:  MOVFF  674,6A0
04824:  MOVFF  673,69F
04828:  MOVFF  672,69E
0482C:  MOVFF  671,69D
04830:  MOVLW  0A
04832:  MOVLB  6
04834:  MOVWF  xA4
04836:  MOVLW  D7
04838:  MOVWF  xA3
0483A:  MOVLW  23
0483C:  MOVWF  xA2
0483E:  MOVLW  78
04840:  MOVWF  xA1
04842:  MOVLB  0
04844:  CALL   1968
04848:  MOVFF  03,678
0484C:  MOVFF  02,677
04850:  MOVFF  01,676
04854:  MOVFF  00,675
....................    if(l2>media) 
04858:  MOVLB  5
0485A:  MOVF   xD6,W
0485C:  MOVLB  6
0485E:  SUBWF  x6C,W
04860:  BC    4866
....................       l2=0; 
04862:  MOVLB  5
04864:  CLRF   xD6
....................        
....................    promedio2[l2]=T;l2++; 
04866:  MOVLB  5
04868:  MOVF   xD6,W
0486A:  MULLW  04
0486C:  MOVF   FF3,W
0486E:  CLRF   03
04870:  ADDLW  77
04872:  MOVWF  FE9
04874:  MOVLW  05
04876:  ADDWFC 03,W
04878:  MOVWF  FEA
0487A:  MOVFF  675,FEF
0487E:  MOVFF  676,FEC
04882:  MOVFF  677,FEC
04886:  MOVFF  678,FEC
0488A:  INCF   xD6,F
....................    Tempera=0; 
0488C:  MOVLB  6
0488E:  CLRF   x7C
04890:  CLRF   x7B
04892:  CLRF   x7A
04894:  CLRF   x79
....................       
....................      for(h2=0;h2<=(media-1);h2++){ 
04896:  MOVLB  5
04898:  CLRF   xD7
0489A:  MOVLW  01
0489C:  MOVLB  6
0489E:  SUBWF  x6C,W
048A0:  MOVLB  5
048A2:  SUBWF  xD7,W
048A4:  BZ    48A8
048A6:  BC    4918
....................         Tempera+=promedio2[h2]; 
048A8:  MOVF   xD7,W
048AA:  MULLW  04
048AC:  MOVF   FF3,W
048AE:  CLRF   03
048B0:  ADDLW  77
048B2:  MOVWF  FE9
048B4:  MOVLW  05
048B6:  ADDWFC 03,W
048B8:  MOVWF  FEA
048BA:  MOVFF  FEF,00
048BE:  MOVFF  FEC,01
048C2:  MOVFF  FEC,02
048C6:  MOVFF  FEC,03
048CA:  MOVFF  FEA,67E
048CE:  MOVFF  FE9,67D
048D2:  BCF    FD8.1
048D4:  MOVFF  67C,6A4
048D8:  MOVFF  67B,6A3
048DC:  MOVFF  67A,6A2
048E0:  MOVFF  679,6A1
048E4:  MOVFF  03,6A8
048E8:  MOVFF  02,6A7
048EC:  MOVFF  01,6A6
048F0:  MOVFF  00,6A5
048F4:  MOVLB  0
048F6:  CALL   1E4E
048FA:  MOVFF  67E,FEA
048FE:  MOVFF  67D,FE9
04902:  MOVFF  03,67C
04906:  MOVFF  02,67B
0490A:  MOVFF  01,67A
0490E:  MOVFF  00,679
....................      }       
04912:  MOVLB  5
04914:  INCF   xD7,F
04916:  BRA    489A
....................    return Tempera/media; 
04918:  MOVLB  6
0491A:  CLRF   xA2
0491C:  MOVFF  66C,6A1
04920:  MOVLB  0
04922:  CALL   1932
04926:  MOVFF  67C,6A0
0492A:  MOVFF  67B,69F
0492E:  MOVFF  67A,69E
04932:  MOVFF  679,69D
04936:  MOVFF  03,6A4
0493A:  MOVFF  02,6A3
0493E:  MOVFF  01,6A2
04942:  MOVFF  00,6A1
04946:  CALL   1968
.................... } 
0494A:  GOTO   661E (RETURN)
....................  
.................... void LeeEEPROM(void){ 
....................    Password[0]=read_eeprom(0); 
*
020C6:  MOVFF  FF2,66C
020CA:  BCF    FF2.7
020CC:  CLRF   FAA
020CE:  CLRF   FA9
020D0:  BCF    FA6.6
020D2:  BCF    FA6.7
020D4:  BSF    FA6.0
020D6:  MOVF   FA8,W
020D8:  MOVLB  6
020DA:  BTFSC  x6C.7
020DC:  BSF    FF2.7
020DE:  MOVLB  5
020E0:  MOVWF  x13
....................    delay_ms(10); 
020E2:  MOVLW  0A
020E4:  MOVLB  6
020E6:  MOVWF  x80
020E8:  MOVLB  0
020EA:  CALL   14A0
....................    Password[1]=read_eeprom(1); 
020EE:  MOVFF  FF2,66C
020F2:  BCF    FF2.7
020F4:  CLRF   FAA
020F6:  MOVLW  01
020F8:  MOVWF  FA9
020FA:  BCF    FA6.6
020FC:  BCF    FA6.7
020FE:  BSF    FA6.0
02100:  MOVF   FA8,W
02102:  MOVLB  6
02104:  BTFSC  x6C.7
02106:  BSF    FF2.7
02108:  MOVLB  5
0210A:  MOVWF  x14
....................    delay_ms(10); 
0210C:  MOVLW  0A
0210E:  MOVLB  6
02110:  MOVWF  x80
02112:  MOVLB  0
02114:  CALL   14A0
....................    Password[2]=read_eeprom(2); 
02118:  MOVFF  FF2,66C
0211C:  BCF    FF2.7
0211E:  CLRF   FAA
02120:  MOVLW  02
02122:  MOVWF  FA9
02124:  BCF    FA6.6
02126:  BCF    FA6.7
02128:  BSF    FA6.0
0212A:  MOVF   FA8,W
0212C:  MOVLB  6
0212E:  BTFSC  x6C.7
02130:  BSF    FF2.7
02132:  MOVLB  5
02134:  MOVWF  x15
....................    delay_ms(10); 
02136:  MOVLW  0A
02138:  MOVLB  6
0213A:  MOVWF  x80
0213C:  MOVLB  0
0213E:  CALL   14A0
....................    Password[3]=read_eeprom(3); 
02142:  MOVFF  FF2,66C
02146:  BCF    FF2.7
02148:  CLRF   FAA
0214A:  MOVLW  03
0214C:  MOVWF  FA9
0214E:  BCF    FA6.6
02150:  BCF    FA6.7
02152:  BSF    FA6.0
02154:  MOVF   FA8,W
02156:  MOVLB  6
02158:  BTFSC  x6C.7
0215A:  BSF    FF2.7
0215C:  MOVLB  5
0215E:  MOVWF  x16
....................    delay_ms(10); 
02160:  MOVLW  0A
02162:  MOVLB  6
02164:  MOVWF  x80
02166:  MOVLB  0
02168:  CALL   14A0
....................    Tpurgap[0]=read_eeprom(4); 
0216C:  MOVFF  FF2,66C
02170:  BCF    FF2.7
02172:  CLRF   FAA
02174:  MOVLW  04
02176:  MOVWF  FA9
02178:  BCF    FA6.6
0217A:  BCF    FA6.7
0217C:  BSF    FA6.0
0217E:  MOVF   FA8,W
02180:  MOVLB  6
02182:  BTFSC  x6C.7
02184:  BSF    FF2.7
02186:  MOVLB  4
02188:  MOVWF  xF7
....................    delay_ms(10); 
0218A:  MOVLW  0A
0218C:  MOVLB  6
0218E:  MOVWF  x80
02190:  MOVLB  0
02192:  CALL   14A0
....................    Tpurgap[1]=read_eeprom(5); 
02196:  MOVFF  FF2,66C
0219A:  BCF    FF2.7
0219C:  CLRF   FAA
0219E:  MOVLW  05
021A0:  MOVWF  FA9
021A2:  BCF    FA6.6
021A4:  BCF    FA6.7
021A6:  BSF    FA6.0
021A8:  MOVF   FA8,W
021AA:  MOVLB  6
021AC:  BTFSC  x6C.7
021AE:  BSF    FF2.7
021B0:  MOVLB  4
021B2:  MOVWF  xF8
....................    delay_ms(10); 
021B4:  MOVLW  0A
021B6:  MOVLB  6
021B8:  MOVWF  x80
021BA:  MOVLB  0
021BC:  CALL   14A0
....................    Tpurgap[2]=read_eeprom(6); 
021C0:  MOVFF  FF2,66C
021C4:  BCF    FF2.7
021C6:  CLRF   FAA
021C8:  MOVLW  06
021CA:  MOVWF  FA9
021CC:  BCF    FA6.6
021CE:  BCF    FA6.7
021D0:  BSF    FA6.0
021D2:  MOVF   FA8,W
021D4:  MOVLB  6
021D6:  BTFSC  x6C.7
021D8:  BSF    FF2.7
021DA:  MOVLB  4
021DC:  MOVWF  xF9
....................    delay_ms(10); 
021DE:  MOVLW  0A
021E0:  MOVLB  6
021E2:  MOVWF  x80
021E4:  MOVLB  0
021E6:  CALL   14A0
....................    Tpurgap[3]=read_eeprom(7); 
021EA:  MOVFF  FF2,66C
021EE:  BCF    FF2.7
021F0:  CLRF   FAA
021F2:  MOVLW  07
021F4:  MOVWF  FA9
021F6:  BCF    FA6.6
021F8:  BCF    FA6.7
021FA:  BSF    FA6.0
021FC:  MOVF   FA8,W
021FE:  MOVLB  6
02200:  BTFSC  x6C.7
02202:  BSF    FF2.7
02204:  MOVLB  4
02206:  MOVWF  xFA
....................    delay_ms(10); 
02208:  MOVLW  0A
0220A:  MOVLB  6
0220C:  MOVWF  x80
0220E:  MOVLB  0
02210:  CALL   14A0
....................    Tppurgap[0]=read_eeprom(8); 
02214:  MOVFF  FF2,66C
02218:  BCF    FF2.7
0221A:  CLRF   FAA
0221C:  MOVLW  08
0221E:  MOVWF  FA9
02220:  BCF    FA6.6
02222:  BCF    FA6.7
02224:  BSF    FA6.0
02226:  MOVF   FA8,W
02228:  MOVLB  6
0222A:  BTFSC  x6C.7
0222C:  BSF    FF2.7
0222E:  MOVLB  4
02230:  MOVWF  xFF
....................    delay_ms(10); 
02232:  MOVLW  0A
02234:  MOVLB  6
02236:  MOVWF  x80
02238:  MOVLB  0
0223A:  CALL   14A0
....................    Tppurgap[1]=read_eeprom(9); 
0223E:  MOVFF  FF2,66C
02242:  BCF    FF2.7
02244:  CLRF   FAA
02246:  MOVLW  09
02248:  MOVWF  FA9
0224A:  BCF    FA6.6
0224C:  BCF    FA6.7
0224E:  BSF    FA6.0
02250:  MOVF   FA8,W
02252:  MOVLB  6
02254:  BTFSC  x6C.7
02256:  BSF    FF2.7
02258:  MOVLB  5
0225A:  MOVWF  x00
....................    delay_ms(10); 
0225C:  MOVLW  0A
0225E:  MOVLB  6
02260:  MOVWF  x80
02262:  MOVLB  0
02264:  CALL   14A0
....................    Tppurgap[2]=read_eeprom(10); 
02268:  MOVFF  FF2,66C
0226C:  BCF    FF2.7
0226E:  CLRF   FAA
02270:  MOVLW  0A
02272:  MOVWF  FA9
02274:  BCF    FA6.6
02276:  BCF    FA6.7
02278:  BSF    FA6.0
0227A:  MOVF   FA8,W
0227C:  MOVLB  6
0227E:  BTFSC  x6C.7
02280:  BSF    FF2.7
02282:  MOVLB  5
02284:  MOVWF  x01
....................    delay_ms(10); 
02286:  MOVLW  0A
02288:  MOVLB  6
0228A:  MOVWF  x80
0228C:  MOVLB  0
0228E:  CALL   14A0
....................    Tppurgap[3]=read_eeprom(11); 
02292:  MOVFF  FF2,66C
02296:  BCF    FF2.7
02298:  CLRF   FAA
0229A:  MOVLW  0B
0229C:  MOVWF  FA9
0229E:  BCF    FA6.6
022A0:  BCF    FA6.7
022A2:  BSF    FA6.0
022A4:  MOVF   FA8,W
022A6:  MOVLB  6
022A8:  BTFSC  x6C.7
022AA:  BSF    FF2.7
022AC:  MOVLB  5
022AE:  MOVWF  x02
....................    delay_ms(10); 
022B0:  MOVLW  0A
022B2:  MOVLB  6
022B4:  MOVWF  x80
022B6:  MOVLB  0
022B8:  CALL   14A0
....................    Tuv[0]=read_eeprom(12); 
022BC:  MOVFF  FF2,66C
022C0:  BCF    FF2.7
022C2:  CLRF   FAA
022C4:  MOVLW  0C
022C6:  MOVWF  FA9
022C8:  BCF    FA6.6
022CA:  BCF    FA6.7
022CC:  BSF    FA6.0
022CE:  MOVF   FA8,W
022D0:  MOVLB  6
022D2:  BTFSC  x6C.7
022D4:  BSF    FF2.7
022D6:  MOVLB  5
022D8:  MOVWF  x03
....................    delay_ms(10); 
022DA:  MOVLW  0A
022DC:  MOVLB  6
022DE:  MOVWF  x80
022E0:  MOVLB  0
022E2:  CALL   14A0
....................    Tuv[1]=read_eeprom(13); 
022E6:  MOVFF  FF2,66C
022EA:  BCF    FF2.7
022EC:  CLRF   FAA
022EE:  MOVLW  0D
022F0:  MOVWF  FA9
022F2:  BCF    FA6.6
022F4:  BCF    FA6.7
022F6:  BSF    FA6.0
022F8:  MOVF   FA8,W
022FA:  MOVLB  6
022FC:  BTFSC  x6C.7
022FE:  BSF    FF2.7
02300:  MOVLB  5
02302:  MOVWF  x04
....................    delay_ms(10); 
02304:  MOVLW  0A
02306:  MOVLB  6
02308:  MOVWF  x80
0230A:  MOVLB  0
0230C:  CALL   14A0
....................    Tuv[2]=read_eeprom(14); 
02310:  MOVFF  FF2,66C
02314:  BCF    FF2.7
02316:  CLRF   FAA
02318:  MOVLW  0E
0231A:  MOVWF  FA9
0231C:  BCF    FA6.6
0231E:  BCF    FA6.7
02320:  BSF    FA6.0
02322:  MOVF   FA8,W
02324:  MOVLB  6
02326:  BTFSC  x6C.7
02328:  BSF    FF2.7
0232A:  MOVLB  5
0232C:  MOVWF  x05
....................    delay_ms(10); 
0232E:  MOVLW  0A
02330:  MOVLB  6
02332:  MOVWF  x80
02334:  MOVLB  0
02336:  CALL   14A0
....................    Tuv[3]=read_eeprom(15); 
0233A:  MOVFF  FF2,66C
0233E:  BCF    FF2.7
02340:  CLRF   FAA
02342:  MOVLW  0F
02344:  MOVWF  FA9
02346:  BCF    FA6.6
02348:  BCF    FA6.7
0234A:  BSF    FA6.0
0234C:  MOVF   FA8,W
0234E:  MOVLB  6
02350:  BTFSC  x6C.7
02352:  BSF    FF2.7
02354:  MOVLB  5
02356:  MOVWF  x06
....................    delay_ms(10); 
02358:  MOVLW  0A
0235A:  MOVLB  6
0235C:  MOVWF  x80
0235E:  MOVLB  0
02360:  CALL   14A0
....................    Ttrabajo[0]=read_eeprom(16); 
02364:  MOVFF  FF2,66C
02368:  BCF    FF2.7
0236A:  CLRF   FAA
0236C:  MOVLW  10
0236E:  MOVWF  FA9
02370:  BCF    FA6.6
02372:  BCF    FA6.7
02374:  BSF    FA6.0
02376:  MOVF   FA8,W
02378:  MOVLB  6
0237A:  BTFSC  x6C.7
0237C:  BSF    FF2.7
0237E:  MOVLB  5
02380:  MOVWF  x0B
....................    delay_ms(10); 
02382:  MOVLW  0A
02384:  MOVLB  6
02386:  MOVWF  x80
02388:  MOVLB  0
0238A:  CALL   14A0
....................    Ttrabajo[1]=read_eeprom(17); 
0238E:  MOVFF  FF2,66C
02392:  BCF    FF2.7
02394:  CLRF   FAA
02396:  MOVLW  11
02398:  MOVWF  FA9
0239A:  BCF    FA6.6
0239C:  BCF    FA6.7
0239E:  BSF    FA6.0
023A0:  MOVF   FA8,W
023A2:  MOVLB  6
023A4:  BTFSC  x6C.7
023A6:  BSF    FF2.7
023A8:  MOVLB  5
023AA:  MOVWF  x0C
....................    delay_ms(10); 
023AC:  MOVLW  0A
023AE:  MOVLB  6
023B0:  MOVWF  x80
023B2:  MOVLB  0
023B4:  CALL   14A0
....................    Ttrabajo[2]=read_eeprom(18); 
023B8:  MOVFF  FF2,66C
023BC:  BCF    FF2.7
023BE:  CLRF   FAA
023C0:  MOVLW  12
023C2:  MOVWF  FA9
023C4:  BCF    FA6.6
023C6:  BCF    FA6.7
023C8:  BSF    FA6.0
023CA:  MOVF   FA8,W
023CC:  MOVLB  6
023CE:  BTFSC  x6C.7
023D0:  BSF    FF2.7
023D2:  MOVLB  5
023D4:  MOVWF  x0D
....................    delay_ms(10); 
023D6:  MOVLW  0A
023D8:  MOVLB  6
023DA:  MOVWF  x80
023DC:  MOVLB  0
023DE:  CALL   14A0
....................    Ttrabajo[3]=read_eeprom(19); 
023E2:  MOVFF  FF2,66C
023E6:  BCF    FF2.7
023E8:  CLRF   FAA
023EA:  MOVLW  13
023EC:  MOVWF  FA9
023EE:  BCF    FA6.6
023F0:  BCF    FA6.7
023F2:  BSF    FA6.0
023F4:  MOVF   FA8,W
023F6:  MOVLB  6
023F8:  BTFSC  x6C.7
023FA:  BSF    FF2.7
023FC:  MOVLB  5
023FE:  MOVWF  x0E
....................    delay_ms(10); 
02400:  MOVLW  0A
02402:  MOVLB  6
02404:  MOVWF  x80
02406:  MOVLB  0
02408:  CALL   14A0
....................    //flag_alarma=read_eeprom(20); 
....................    //delay_ms(10); 
....................    Tempouvp[0]=read_eeprom(21); 
0240C:  MOVFF  FF2,66C
02410:  BCF    FF2.7
02412:  CLRF   FAA
02414:  MOVLW  15
02416:  MOVWF  FA9
02418:  BCF    FA6.6
0241A:  BCF    FA6.7
0241C:  BSF    FA6.0
0241E:  MOVF   FA8,W
02420:  MOVLB  6
02422:  BTFSC  x6C.7
02424:  BSF    FF2.7
02426:  MOVLB  5
02428:  MOVWF  x07
....................    delay_ms(10); 
0242A:  MOVLW  0A
0242C:  MOVLB  6
0242E:  MOVWF  x80
02430:  MOVLB  0
02432:  CALL   14A0
....................    Tempouvp[1]=read_eeprom(22); 
02436:  MOVFF  FF2,66C
0243A:  BCF    FF2.7
0243C:  CLRF   FAA
0243E:  MOVLW  16
02440:  MOVWF  FA9
02442:  BCF    FA6.6
02444:  BCF    FA6.7
02446:  BSF    FA6.0
02448:  MOVF   FA8,W
0244A:  MOVLB  6
0244C:  BTFSC  x6C.7
0244E:  BSF    FF2.7
02450:  MOVLB  5
02452:  MOVWF  x08
....................    delay_ms(10); 
02454:  MOVLW  0A
02456:  MOVLB  6
02458:  MOVWF  x80
0245A:  MOVLB  0
0245C:  CALL   14A0
....................    Tempouvp[2]=read_eeprom(23); 
02460:  MOVFF  FF2,66C
02464:  BCF    FF2.7
02466:  CLRF   FAA
02468:  MOVLW  17
0246A:  MOVWF  FA9
0246C:  BCF    FA6.6
0246E:  BCF    FA6.7
02470:  BSF    FA6.0
02472:  MOVF   FA8,W
02474:  MOVLB  6
02476:  BTFSC  x6C.7
02478:  BSF    FF2.7
0247A:  MOVLB  5
0247C:  MOVWF  x09
....................    delay_ms(10); 
0247E:  MOVLW  0A
02480:  MOVLB  6
02482:  MOVWF  x80
02484:  MOVLB  0
02486:  CALL   14A0
....................    Tempouvp[3]=read_eeprom(24); 
0248A:  MOVFF  FF2,66C
0248E:  BCF    FF2.7
02490:  CLRF   FAA
02492:  MOVLW  18
02494:  MOVWF  FA9
02496:  BCF    FA6.6
02498:  BCF    FA6.7
0249A:  BSF    FA6.0
0249C:  MOVF   FA8,W
0249E:  MOVLB  6
024A0:  BTFSC  x6C.7
024A2:  BSF    FF2.7
024A4:  MOVLB  5
024A6:  MOVWF  x0A
....................     
....................    delay_ms(10); 
024A8:  MOVLW  0A
024AA:  MOVLB  6
024AC:  MOVWF  x80
024AE:  MOVLB  0
024B0:  CALL   14A0
....................    Entero=read_eeprom(25);//Decimal1=read_eeprom(26); 
024B4:  MOVFF  FF2,66C
024B8:  BCF    FF2.7
024BA:  CLRF   FAA
024BC:  MOVLW  19
024BE:  MOVWF  FA9
024C0:  BCF    FA6.6
024C2:  BCF    FA6.7
024C4:  BSF    FA6.0
024C6:  MOVF   FA8,W
024C8:  MOVLB  6
024CA:  BTFSC  x6C.7
024CC:  BSF    FF2.7
024CE:  MOVLB  4
024D0:  MOVWF  xD2
....................    delay_ms(10); 
024D2:  MOVLW  0A
024D4:  MOVLB  6
024D6:  MOVWF  x80
024D8:  MOVLB  0
024DA:  CALL   14A0
....................    Temporal=read_eeprom(26); 
024DE:  MOVFF  FF2,66C
024E2:  BCF    FF2.7
024E4:  CLRF   FAA
024E6:  MOVLW  1A
024E8:  MOVWF  FA9
024EA:  BCF    FA6.6
024EC:  BCF    FA6.7
024EE:  BSF    FA6.0
024F0:  MOVF   FA8,W
024F2:  MOVLB  6
024F4:  BTFSC  x6C.7
024F6:  BSF    FF2.7
024F8:  CLRF   xA2
024FA:  MOVWF  xA1
024FC:  MOVLB  0
024FE:  CALL   1932
02502:  MOVFF  03,542
02506:  MOVFF  02,541
0250A:  MOVFF  01,540
0250E:  MOVFF  00,53F
....................    delay_ms(10); 
02512:  MOVLW  0A
02514:  MOVLB  6
02516:  MOVWF  x80
02518:  MOVLB  0
0251A:  CALL   14A0
....................    Temporal=Temporal/10.0; 
0251E:  MOVFF  542,6A0
02522:  MOVFF  541,69F
02526:  MOVFF  540,69E
0252A:  MOVFF  53F,69D
0252E:  MOVLB  6
02530:  CLRF   xA4
02532:  CLRF   xA3
02534:  MOVLW  20
02536:  MOVWF  xA2
02538:  MOVLW  82
0253A:  MOVWF  xA1
0253C:  MOVLB  0
0253E:  CALL   1968
02542:  MOVFF  03,542
02546:  MOVFF  02,541
0254A:  MOVFF  01,540
0254E:  MOVFF  00,53F
....................    Ajuste1=Entero+Temporal; 
02552:  MOVLB  6
02554:  CLRF   xA2
02556:  MOVFF  4D2,6A1
0255A:  MOVLB  0
0255C:  CALL   1932
02560:  BCF    FD8.1
02562:  MOVFF  03,6A4
02566:  MOVFF  02,6A3
0256A:  MOVFF  01,6A2
0256E:  MOVFF  00,6A1
02572:  MOVFF  542,6A8
02576:  MOVFF  541,6A7
0257A:  MOVFF  540,6A6
0257E:  MOVFF  53F,6A5
02582:  RCALL  1E4E
02584:  MOVFF  03,53A
02588:  MOVFF  02,539
0258C:  MOVFF  01,538
02590:  MOVFF  00,537
....................     
....................     
....................    Entero=read_eeprom(27);//Decimal1=read_eeprom(26); 
02594:  MOVFF  FF2,66C
02598:  BCF    FF2.7
0259A:  CLRF   FAA
0259C:  MOVLW  1B
0259E:  MOVWF  FA9
025A0:  BCF    FA6.6
025A2:  BCF    FA6.7
025A4:  BSF    FA6.0
025A6:  MOVF   FA8,W
025A8:  MOVLB  6
025AA:  BTFSC  x6C.7
025AC:  BSF    FF2.7
025AE:  MOVLB  4
025B0:  MOVWF  xD2
....................    delay_ms(10); 
025B2:  MOVLW  0A
025B4:  MOVLB  6
025B6:  MOVWF  x80
025B8:  MOVLB  0
025BA:  CALL   14A0
....................    Temporal=read_eeprom(28); 
025BE:  MOVFF  FF2,66C
025C2:  BCF    FF2.7
025C4:  CLRF   FAA
025C6:  MOVLW  1C
025C8:  MOVWF  FA9
025CA:  BCF    FA6.6
025CC:  BCF    FA6.7
025CE:  BSF    FA6.0
025D0:  MOVF   FA8,W
025D2:  MOVLB  6
025D4:  BTFSC  x6C.7
025D6:  BSF    FF2.7
025D8:  CLRF   xA2
025DA:  MOVWF  xA1
025DC:  MOVLB  0
025DE:  CALL   1932
025E2:  MOVFF  03,542
025E6:  MOVFF  02,541
025EA:  MOVFF  01,540
025EE:  MOVFF  00,53F
....................    delay_ms(10); 
025F2:  MOVLW  0A
025F4:  MOVLB  6
025F6:  MOVWF  x80
025F8:  MOVLB  0
025FA:  CALL   14A0
....................    Temporal=Temporal/10.0; 
025FE:  MOVFF  542,6A0
02602:  MOVFF  541,69F
02606:  MOVFF  540,69E
0260A:  MOVFF  53F,69D
0260E:  MOVLB  6
02610:  CLRF   xA4
02612:  CLRF   xA3
02614:  MOVLW  20
02616:  MOVWF  xA2
02618:  MOVLW  82
0261A:  MOVWF  xA1
0261C:  MOVLB  0
0261E:  CALL   1968
02622:  MOVFF  03,542
02626:  MOVFF  02,541
0262A:  MOVFF  01,540
0262E:  MOVFF  00,53F
....................    Ajuste2=Entero+Temporal; 
02632:  MOVLB  6
02634:  CLRF   xA2
02636:  MOVFF  4D2,6A1
0263A:  MOVLB  0
0263C:  CALL   1932
02640:  BCF    FD8.1
02642:  MOVFF  03,6A4
02646:  MOVFF  02,6A3
0264A:  MOVFF  01,6A2
0264E:  MOVFF  00,6A1
02652:  MOVFF  542,6A8
02656:  MOVFF  541,6A7
0265A:  MOVFF  540,6A6
0265E:  MOVFF  53F,6A5
02662:  CALL   1E4E
02666:  MOVFF  03,53E
0266A:  MOVFF  02,53D
0266E:  MOVFF  01,53C
02672:  MOVFF  00,53B
....................     
....................    zero_actual=make16(read_eeprom(30),read_eeprom(29)); 
02676:  MOVFF  FF2,66C
0267A:  BCF    FF2.7
0267C:  CLRF   FAA
0267E:  MOVLW  1E
02680:  MOVWF  FA9
02682:  BCF    FA6.6
02684:  BCF    FA6.7
02686:  BSF    FA6.0
02688:  MOVF   FA8,W
0268A:  MOVLB  6
0268C:  BTFSC  x6C.7
0268E:  BSF    FF2.7
02690:  MOVWF  x6D
02692:  MOVFF  FF2,66E
02696:  BCF    FF2.7
02698:  CLRF   FAA
0269A:  MOVLW  1D
0269C:  MOVWF  FA9
0269E:  BCF    FA6.6
026A0:  BCF    FA6.7
026A2:  BSF    FA6.0
026A4:  MOVF   FA8,W
026A6:  BTFSC  x6E.7
026A8:  BSF    FF2.7
026AA:  MOVWF  x6F
026AC:  MOVFF  66D,03
026B0:  MOVF   x6F,W
026B2:  MOVWF  xA1
026B4:  MOVFF  03,6A2
026B8:  MOVLB  0
026BA:  CALL   1932
026BE:  MOVFF  03,5C2
026C2:  MOVFF  02,5C1
026C6:  MOVFF  01,5C0
026CA:  MOVFF  00,5BF
....................    delay_ms(10); 
026CE:  MOVLW  0A
026D0:  MOVLB  6
026D2:  MOVWF  x80
026D4:  MOVLB  0
026D6:  CALL   14A0
....................    minutos_trabajo=make16(read_eeprom(34),read_eeprom(33)); 
026DA:  MOVFF  FF2,66C
026DE:  BCF    FF2.7
026E0:  CLRF   FAA
026E2:  MOVLW  22
026E4:  MOVWF  FA9
026E6:  BCF    FA6.6
026E8:  BCF    FA6.7
026EA:  BSF    FA6.0
026EC:  MOVF   FA8,W
026EE:  MOVLB  6
026F0:  BTFSC  x6C.7
026F2:  BSF    FF2.7
026F4:  MOVWF  x6D
026F6:  MOVFF  FF2,66E
026FA:  BCF    FF2.7
026FC:  CLRF   FAA
026FE:  MOVLW  21
02700:  MOVWF  FA9
02702:  BCF    FA6.6
02704:  BCF    FA6.7
02706:  BSF    FA6.0
02708:  MOVF   FA8,W
0270A:  BTFSC  x6E.7
0270C:  BSF    FF2.7
0270E:  MOVWF  x6F
02710:  MOVFF  66D,4E4
02714:  MOVFF  66F,4E3
....................    delay_ms(10); 
02718:  MOVLW  0A
0271A:  MOVWF  x80
0271C:  MOVLB  0
0271E:  CALL   14A0
....................    minutos_uv=read_eeprom(31); 
02722:  MOVFF  FF2,66C
02726:  BCF    FF2.7
02728:  CLRF   FAA
0272A:  MOVLW  1F
0272C:  MOVWF  FA9
0272E:  BCF    FA6.6
02730:  BCF    FA6.7
02732:  BSF    FA6.0
02734:  MOVF   FA8,W
02736:  MOVLB  6
02738:  BTFSC  x6C.7
0273A:  BSF    FF2.7
0273C:  MOVLB  4
0273E:  CLRF   xE2
02740:  MOVWF  xE1
....................    delay_ms(10); 
02742:  MOVLW  0A
02744:  MOVLB  6
02746:  MOVWF  x80
02748:  MOVLB  0
0274A:  CALL   14A0
....................    VelMotor=read_eeprom(32); 
0274E:  MOVFF  FF2,66C
02752:  BCF    FF2.7
02754:  CLRF   FAA
02756:  MOVLW  20
02758:  MOVWF  FA9
0275A:  BCF    FA6.6
0275C:  BCF    FA6.7
0275E:  BSF    FA6.0
02760:  MOVF   FA8,W
02762:  MOVLB  6
02764:  BTFSC  x6C.7
02766:  BSF    FF2.7
02768:  MOVLB  5
0276A:  MOVWF  xDC
....................    delay_ms(10); 
0276C:  MOVLW  0A
0276E:  MOVLB  6
02770:  MOVWF  x80
02772:  MOVLB  0
02774:  CALL   14A0
....................     
....................    Diferencia=make16(read_eeprom(61),read_eeprom(60)); 
02778:  MOVFF  FF2,66C
0277C:  BCF    FF2.7
0277E:  CLRF   FAA
02780:  MOVLW  3D
02782:  MOVWF  FA9
02784:  BCF    FA6.6
02786:  BCF    FA6.7
02788:  BSF    FA6.0
0278A:  MOVF   FA8,W
0278C:  MOVLB  6
0278E:  BTFSC  x6C.7
02790:  BSF    FF2.7
02792:  MOVWF  x6D
02794:  MOVFF  FF2,66E
02798:  BCF    FF2.7
0279A:  CLRF   FAA
0279C:  MOVLW  3C
0279E:  MOVWF  FA9
027A0:  BCF    FA6.6
027A2:  BCF    FA6.7
027A4:  BSF    FA6.0
027A6:  MOVF   FA8,W
027A8:  BTFSC  x6E.7
027AA:  BSF    FF2.7
027AC:  MOVWF  x6F
027AE:  MOVFF  66D,03
027B2:  MOVF   x6F,W
027B4:  MOVWF  xA1
027B6:  MOVFF  03,6A2
027BA:  MOVLB  0
027BC:  CALL   1932
027C0:  MOVFF  03,526
027C4:  MOVFF  02,525
027C8:  MOVFF  01,524
027CC:  MOVFF  00,523
....................    delay_ms(10); 
027D0:  MOVLW  0A
027D2:  MOVLB  6
027D4:  MOVWF  x80
027D6:  MOVLB  0
027D8:  CALL   14A0
....................    G=make16(read_eeprom(63),read_eeprom(62)); 
027DC:  MOVFF  FF2,66C
027E0:  BCF    FF2.7
027E2:  CLRF   FAA
027E4:  MOVLW  3F
027E6:  MOVWF  FA9
027E8:  BCF    FA6.6
027EA:  BCF    FA6.7
027EC:  BSF    FA6.0
027EE:  MOVF   FA8,W
027F0:  MOVLB  6
027F2:  BTFSC  x6C.7
027F4:  BSF    FF2.7
027F6:  MOVWF  x6D
027F8:  MOVFF  FF2,66E
027FC:  BCF    FF2.7
027FE:  CLRF   FAA
02800:  MOVLW  3E
02802:  MOVWF  FA9
02804:  BCF    FA6.6
02806:  BCF    FA6.7
02808:  BSF    FA6.0
0280A:  MOVF   FA8,W
0280C:  BTFSC  x6E.7
0280E:  BSF    FF2.7
02810:  MOVWF  x6F
02812:  MOVFF  66D,03
02816:  MOVF   x6F,W
02818:  MOVWF  xA1
0281A:  MOVFF  03,6A2
0281E:  MOVLB  0
02820:  CALL   1932
02824:  MOVFF  03,5CE
02828:  MOVFF  02,5CD
0282C:  MOVFF  01,5CC
02830:  MOVFF  00,5CB
....................    delay_ms(10); 
02834:  MOVLW  0A
02836:  MOVLB  6
02838:  MOVWF  x80
0283A:  MOVLB  0
0283C:  CALL   14A0
....................    negativo=read_eeprom(50); 
02840:  MOVFF  FF2,66C
02844:  BCF    FF2.7
02846:  CLRF   FAA
02848:  MOVLW  32
0284A:  MOVWF  FA9
0284C:  BCF    FA6.6
0284E:  BCF    FA6.7
02850:  BSF    FA6.0
02852:  MOVF   FA8,W
02854:  MOVLB  6
02856:  BTFSC  x6C.7
02858:  BSF    FF2.7
0285A:  MOVLB  4
0285C:  MOVWF  xCA
....................    delay_ms(10); 
0285E:  MOVLW  0A
02860:  MOVLB  6
02862:  MOVWF  x80
02864:  MOVLB  0
02866:  CALL   14A0
....................  
.................... } 
0286A:  GOTO   65E6 (RETURN)
....................  
.................... void LimitaValores(void){ 
....................    if(Password[0]>9 || Password[0]<0){ 
0286E:  MOVLB  5
02870:  BTFSC  x13.7
02872:  BRA    287A
02874:  MOVF   x13,W
02876:  SUBLW  09
02878:  BNC   2880
0287A:  BTFSC  x13.7
0287C:  BRA    2880
0287E:  BRA    28AC
....................       Password[0]=0;write_eeprom(0,0); 
02880:  CLRF   x13
02882:  CLRF   FAA
02884:  CLRF   FA9
02886:  CLRF   FA8
02888:  BCF    FA6.6
0288A:  BCF    FA6.7
0288C:  BSF    FA6.2
0288E:  MOVF   FF2,W
02890:  MOVWF  00
02892:  BCF    FF2.7
02894:  MOVLB  F
02896:  MOVLW  55
02898:  MOVWF  FA7
0289A:  MOVLW  AA
0289C:  MOVWF  FA7
0289E:  BSF    FA6.1
028A0:  BTFSC  FA6.1
028A2:  BRA    28A0
028A4:  BCF    FA6.2
028A6:  MOVF   00,W
028A8:  IORWF  FF2,F
028AA:  MOVLB  5
....................    } 
....................    if(Password[1]>9 || Password[1]<0){ 
028AC:  BTFSC  x14.7
028AE:  BRA    28B6
028B0:  MOVF   x14,W
028B2:  SUBLW  09
028B4:  BNC   28BC
028B6:  BTFSC  x14.7
028B8:  BRA    28BC
028BA:  BRA    28EA
....................       Password[1]=0;write_eeprom(1,0); 
028BC:  CLRF   x14
028BE:  CLRF   FAA
028C0:  MOVLW  01
028C2:  MOVWF  FA9
028C4:  CLRF   FA8
028C6:  BCF    FA6.6
028C8:  BCF    FA6.7
028CA:  BSF    FA6.2
028CC:  MOVF   FF2,W
028CE:  MOVWF  00
028D0:  BCF    FF2.7
028D2:  MOVLB  F
028D4:  MOVLW  55
028D6:  MOVWF  FA7
028D8:  MOVLW  AA
028DA:  MOVWF  FA7
028DC:  BSF    FA6.1
028DE:  BTFSC  FA6.1
028E0:  BRA    28DE
028E2:  BCF    FA6.2
028E4:  MOVF   00,W
028E6:  IORWF  FF2,F
028E8:  MOVLB  5
....................    } 
....................    if(Password[2]>9 || Password[2]<0){ 
028EA:  BTFSC  x15.7
028EC:  BRA    28F4
028EE:  MOVF   x15,W
028F0:  SUBLW  09
028F2:  BNC   28FA
028F4:  BTFSC  x15.7
028F6:  BRA    28FA
028F8:  BRA    2928
....................       Password[2]=0;write_eeprom(2,0); 
028FA:  CLRF   x15
028FC:  CLRF   FAA
028FE:  MOVLW  02
02900:  MOVWF  FA9
02902:  CLRF   FA8
02904:  BCF    FA6.6
02906:  BCF    FA6.7
02908:  BSF    FA6.2
0290A:  MOVF   FF2,W
0290C:  MOVWF  00
0290E:  BCF    FF2.7
02910:  MOVLB  F
02912:  MOVLW  55
02914:  MOVWF  FA7
02916:  MOVLW  AA
02918:  MOVWF  FA7
0291A:  BSF    FA6.1
0291C:  BTFSC  FA6.1
0291E:  BRA    291C
02920:  BCF    FA6.2
02922:  MOVF   00,W
02924:  IORWF  FF2,F
02926:  MOVLB  5
....................    } 
....................    if(Password[3]>9 || Password[3]<0){ 
02928:  BTFSC  x16.7
0292A:  BRA    2932
0292C:  MOVF   x16,W
0292E:  SUBLW  09
02930:  BNC   2938
02932:  BTFSC  x16.7
02934:  BRA    2938
02936:  BRA    2964
....................       Password[3]=0;write_eeprom(3,0); 
02938:  CLRF   x16
0293A:  CLRF   FAA
0293C:  MOVLW  03
0293E:  MOVWF  FA9
02940:  CLRF   FA8
02942:  BCF    FA6.6
02944:  BCF    FA6.7
02946:  BSF    FA6.2
02948:  MOVF   FF2,W
0294A:  MOVWF  00
0294C:  BCF    FF2.7
0294E:  MOVLB  F
02950:  MOVLW  55
02952:  MOVWF  FA7
02954:  MOVLW  AA
02956:  MOVWF  FA7
02958:  BSF    FA6.1
0295A:  BTFSC  FA6.1
0295C:  BRA    295A
0295E:  BCF    FA6.2
02960:  MOVF   00,W
02962:  IORWF  FF2,F
....................    } 
....................    if(Tpurgap[0]>9 || Tpurgap[0]<0){ 
02964:  MOVLB  4
02966:  BTFSC  xF7.7
02968:  BRA    2970
0296A:  MOVF   xF7,W
0296C:  SUBLW  09
0296E:  BNC   2976
02970:  BTFSC  xF7.7
02972:  BRA    2976
02974:  BRA    29A4
....................       Tpurgap[0]=0;write_eeprom(4,0); 
02976:  CLRF   xF7
02978:  CLRF   FAA
0297A:  MOVLW  04
0297C:  MOVWF  FA9
0297E:  CLRF   FA8
02980:  BCF    FA6.6
02982:  BCF    FA6.7
02984:  BSF    FA6.2
02986:  MOVF   FF2,W
02988:  MOVWF  00
0298A:  BCF    FF2.7
0298C:  MOVLB  F
0298E:  MOVLW  55
02990:  MOVWF  FA7
02992:  MOVLW  AA
02994:  MOVWF  FA7
02996:  BSF    FA6.1
02998:  BTFSC  FA6.1
0299A:  BRA    2998
0299C:  BCF    FA6.2
0299E:  MOVF   00,W
029A0:  IORWF  FF2,F
029A2:  MOVLB  4
....................    } 
....................    if(Tpurgap[1]>9 || Tpurgap[1]<0){ 
029A4:  BTFSC  xF8.7
029A6:  BRA    29AE
029A8:  MOVF   xF8,W
029AA:  SUBLW  09
029AC:  BNC   29B4
029AE:  BTFSC  xF8.7
029B0:  BRA    29B4
029B2:  BRA    29E2
....................       Tpurgap[1]=0;write_eeprom(5,0); 
029B4:  CLRF   xF8
029B6:  CLRF   FAA
029B8:  MOVLW  05
029BA:  MOVWF  FA9
029BC:  CLRF   FA8
029BE:  BCF    FA6.6
029C0:  BCF    FA6.7
029C2:  BSF    FA6.2
029C4:  MOVF   FF2,W
029C6:  MOVWF  00
029C8:  BCF    FF2.7
029CA:  MOVLB  F
029CC:  MOVLW  55
029CE:  MOVWF  FA7
029D0:  MOVLW  AA
029D2:  MOVWF  FA7
029D4:  BSF    FA6.1
029D6:  BTFSC  FA6.1
029D8:  BRA    29D6
029DA:  BCF    FA6.2
029DC:  MOVF   00,W
029DE:  IORWF  FF2,F
029E0:  MOVLB  4
....................    } 
....................    if(Tpurgap[2]>9 || Tpurgap[2]<0){ 
029E2:  BTFSC  xF9.7
029E4:  BRA    29EC
029E6:  MOVF   xF9,W
029E8:  SUBLW  09
029EA:  BNC   29F2
029EC:  BTFSC  xF9.7
029EE:  BRA    29F2
029F0:  BRA    2A24
....................       Tpurgap[2]=2;write_eeprom(6,2); 
029F2:  MOVLW  02
029F4:  MOVWF  xF9
029F6:  CLRF   FAA
029F8:  MOVLW  06
029FA:  MOVWF  FA9
029FC:  MOVLW  02
029FE:  MOVWF  FA8
02A00:  BCF    FA6.6
02A02:  BCF    FA6.7
02A04:  BSF    FA6.2
02A06:  MOVF   FF2,W
02A08:  MOVWF  00
02A0A:  BCF    FF2.7
02A0C:  MOVLB  F
02A0E:  MOVLW  55
02A10:  MOVWF  FA7
02A12:  MOVLW  AA
02A14:  MOVWF  FA7
02A16:  BSF    FA6.1
02A18:  BTFSC  FA6.1
02A1A:  BRA    2A18
02A1C:  BCF    FA6.2
02A1E:  MOVF   00,W
02A20:  IORWF  FF2,F
02A22:  MOVLB  4
....................    } 
....................    if(Tpurgap[3]>9 || Tpurgap[3]<0){ 
02A24:  BTFSC  xFA.7
02A26:  BRA    2A2E
02A28:  MOVF   xFA,W
02A2A:  SUBLW  09
02A2C:  BNC   2A34
02A2E:  BTFSC  xFA.7
02A30:  BRA    2A34
02A32:  BRA    2A62
....................       Tpurgap[3]=0;write_eeprom(7,0); 
02A34:  CLRF   xFA
02A36:  CLRF   FAA
02A38:  MOVLW  07
02A3A:  MOVWF  FA9
02A3C:  CLRF   FA8
02A3E:  BCF    FA6.6
02A40:  BCF    FA6.7
02A42:  BSF    FA6.2
02A44:  MOVF   FF2,W
02A46:  MOVWF  00
02A48:  BCF    FF2.7
02A4A:  MOVLB  F
02A4C:  MOVLW  55
02A4E:  MOVWF  FA7
02A50:  MOVLW  AA
02A52:  MOVWF  FA7
02A54:  BSF    FA6.1
02A56:  BTFSC  FA6.1
02A58:  BRA    2A56
02A5A:  BCF    FA6.2
02A5C:  MOVF   00,W
02A5E:  IORWF  FF2,F
02A60:  MOVLB  4
....................    } 
....................    if(Tppurgap[0]>9 || Tppurgap[0]<0){ 
02A62:  BTFSC  xFF.7
02A64:  BRA    2A6C
02A66:  MOVF   xFF,W
02A68:  SUBLW  09
02A6A:  BNC   2A72
02A6C:  BTFSC  xFF.7
02A6E:  BRA    2A72
02A70:  BRA    2A9E
....................       Tppurgap[0]=0;write_eeprom(8,0); 
02A72:  CLRF   xFF
02A74:  CLRF   FAA
02A76:  MOVLW  08
02A78:  MOVWF  FA9
02A7A:  CLRF   FA8
02A7C:  BCF    FA6.6
02A7E:  BCF    FA6.7
02A80:  BSF    FA6.2
02A82:  MOVF   FF2,W
02A84:  MOVWF  00
02A86:  BCF    FF2.7
02A88:  MOVLB  F
02A8A:  MOVLW  55
02A8C:  MOVWF  FA7
02A8E:  MOVLW  AA
02A90:  MOVWF  FA7
02A92:  BSF    FA6.1
02A94:  BTFSC  FA6.1
02A96:  BRA    2A94
02A98:  BCF    FA6.2
02A9A:  MOVF   00,W
02A9C:  IORWF  FF2,F
....................    } 
....................    if(Tppurgap[1]>9 || Tppurgap[1]<0){ 
02A9E:  MOVLB  5
02AA0:  BTFSC  x00.7
02AA2:  BRA    2AAA
02AA4:  MOVF   x00,W
02AA6:  SUBLW  09
02AA8:  BNC   2AB0
02AAA:  BTFSC  x00.7
02AAC:  BRA    2AB0
02AAE:  BRA    2ADE
....................       Tppurgap[1]=0;write_eeprom(9,0); 
02AB0:  CLRF   x00
02AB2:  CLRF   FAA
02AB4:  MOVLW  09
02AB6:  MOVWF  FA9
02AB8:  CLRF   FA8
02ABA:  BCF    FA6.6
02ABC:  BCF    FA6.7
02ABE:  BSF    FA6.2
02AC0:  MOVF   FF2,W
02AC2:  MOVWF  00
02AC4:  BCF    FF2.7
02AC6:  MOVLB  F
02AC8:  MOVLW  55
02ACA:  MOVWF  FA7
02ACC:  MOVLW  AA
02ACE:  MOVWF  FA7
02AD0:  BSF    FA6.1
02AD2:  BTFSC  FA6.1
02AD4:  BRA    2AD2
02AD6:  BCF    FA6.2
02AD8:  MOVF   00,W
02ADA:  IORWF  FF2,F
02ADC:  MOVLB  5
....................    } 
....................    if(Tppurgap[2]>9 || Tppurgap[2]<0){ 
02ADE:  BTFSC  x01.7
02AE0:  BRA    2AE8
02AE2:  MOVF   x01,W
02AE4:  SUBLW  09
02AE6:  BNC   2AEE
02AE8:  BTFSC  x01.7
02AEA:  BRA    2AEE
02AEC:  BRA    2B20
....................       Tppurgap[2]=2;write_eeprom(10,2); 
02AEE:  MOVLW  02
02AF0:  MOVWF  x01
02AF2:  CLRF   FAA
02AF4:  MOVLW  0A
02AF6:  MOVWF  FA9
02AF8:  MOVLW  02
02AFA:  MOVWF  FA8
02AFC:  BCF    FA6.6
02AFE:  BCF    FA6.7
02B00:  BSF    FA6.2
02B02:  MOVF   FF2,W
02B04:  MOVWF  00
02B06:  BCF    FF2.7
02B08:  MOVLB  F
02B0A:  MOVLW  55
02B0C:  MOVWF  FA7
02B0E:  MOVLW  AA
02B10:  MOVWF  FA7
02B12:  BSF    FA6.1
02B14:  BTFSC  FA6.1
02B16:  BRA    2B14
02B18:  BCF    FA6.2
02B1A:  MOVF   00,W
02B1C:  IORWF  FF2,F
02B1E:  MOVLB  5
....................    } 
....................    if(Tppurgap[3]>9 || Tppurgap[3]<0){ 
02B20:  BTFSC  x02.7
02B22:  BRA    2B2A
02B24:  MOVF   x02,W
02B26:  SUBLW  09
02B28:  BNC   2B30
02B2A:  BTFSC  x02.7
02B2C:  BRA    2B30
02B2E:  BRA    2B5E
....................       Tppurgap[3]=0;write_eeprom(11,0); 
02B30:  CLRF   x02
02B32:  CLRF   FAA
02B34:  MOVLW  0B
02B36:  MOVWF  FA9
02B38:  CLRF   FA8
02B3A:  BCF    FA6.6
02B3C:  BCF    FA6.7
02B3E:  BSF    FA6.2
02B40:  MOVF   FF2,W
02B42:  MOVWF  00
02B44:  BCF    FF2.7
02B46:  MOVLB  F
02B48:  MOVLW  55
02B4A:  MOVWF  FA7
02B4C:  MOVLW  AA
02B4E:  MOVWF  FA7
02B50:  BSF    FA6.1
02B52:  BTFSC  FA6.1
02B54:  BRA    2B52
02B56:  BCF    FA6.2
02B58:  MOVF   00,W
02B5A:  IORWF  FF2,F
02B5C:  MOVLB  5
....................    } 
....................    if(Tuv[0]>9 || Tuv[0]<0){ 
02B5E:  BTFSC  x03.7
02B60:  BRA    2B68
02B62:  MOVF   x03,W
02B64:  SUBLW  09
02B66:  BNC   2B6E
02B68:  BTFSC  x03.7
02B6A:  BRA    2B6E
02B6C:  BRA    2B9C
....................       Tuv[0]=0;write_eeprom(12,0); 
02B6E:  CLRF   x03
02B70:  CLRF   FAA
02B72:  MOVLW  0C
02B74:  MOVWF  FA9
02B76:  CLRF   FA8
02B78:  BCF    FA6.6
02B7A:  BCF    FA6.7
02B7C:  BSF    FA6.2
02B7E:  MOVF   FF2,W
02B80:  MOVWF  00
02B82:  BCF    FF2.7
02B84:  MOVLB  F
02B86:  MOVLW  55
02B88:  MOVWF  FA7
02B8A:  MOVLW  AA
02B8C:  MOVWF  FA7
02B8E:  BSF    FA6.1
02B90:  BTFSC  FA6.1
02B92:  BRA    2B90
02B94:  BCF    FA6.2
02B96:  MOVF   00,W
02B98:  IORWF  FF2,F
02B9A:  MOVLB  5
....................    } 
....................    if(Tuv[1]>9 || Tuv[1]<0){ 
02B9C:  BTFSC  x04.7
02B9E:  BRA    2BA6
02BA0:  MOVF   x04,W
02BA2:  SUBLW  09
02BA4:  BNC   2BAC
02BA6:  BTFSC  x04.7
02BA8:  BRA    2BAC
02BAA:  BRA    2BDA
....................       Tuv[1]=0;write_eeprom(13,0); 
02BAC:  CLRF   x04
02BAE:  CLRF   FAA
02BB0:  MOVLW  0D
02BB2:  MOVWF  FA9
02BB4:  CLRF   FA8
02BB6:  BCF    FA6.6
02BB8:  BCF    FA6.7
02BBA:  BSF    FA6.2
02BBC:  MOVF   FF2,W
02BBE:  MOVWF  00
02BC0:  BCF    FF2.7
02BC2:  MOVLB  F
02BC4:  MOVLW  55
02BC6:  MOVWF  FA7
02BC8:  MOVLW  AA
02BCA:  MOVWF  FA7
02BCC:  BSF    FA6.1
02BCE:  BTFSC  FA6.1
02BD0:  BRA    2BCE
02BD2:  BCF    FA6.2
02BD4:  MOVF   00,W
02BD6:  IORWF  FF2,F
02BD8:  MOVLB  5
....................    } 
....................    if(Tuv[2]>9 || Tuv[2]<0){ 
02BDA:  BTFSC  x05.7
02BDC:  BRA    2BE4
02BDE:  MOVF   x05,W
02BE0:  SUBLW  09
02BE2:  BNC   2BEA
02BE4:  BTFSC  x05.7
02BE6:  BRA    2BEA
02BE8:  BRA    2C18
....................       Tuv[2]=0;write_eeprom(14,0); 
02BEA:  CLRF   x05
02BEC:  CLRF   FAA
02BEE:  MOVLW  0E
02BF0:  MOVWF  FA9
02BF2:  CLRF   FA8
02BF4:  BCF    FA6.6
02BF6:  BCF    FA6.7
02BF8:  BSF    FA6.2
02BFA:  MOVF   FF2,W
02BFC:  MOVWF  00
02BFE:  BCF    FF2.7
02C00:  MOVLB  F
02C02:  MOVLW  55
02C04:  MOVWF  FA7
02C06:  MOVLW  AA
02C08:  MOVWF  FA7
02C0A:  BSF    FA6.1
02C0C:  BTFSC  FA6.1
02C0E:  BRA    2C0C
02C10:  BCF    FA6.2
02C12:  MOVF   00,W
02C14:  IORWF  FF2,F
02C16:  MOVLB  5
....................    } 
....................    if(Tuv[3]>9 || Tuv[3]<0){ 
02C18:  BTFSC  x06.7
02C1A:  BRA    2C22
02C1C:  MOVF   x06,W
02C1E:  SUBLW  09
02C20:  BNC   2C28
02C22:  BTFSC  x06.7
02C24:  BRA    2C28
02C26:  BRA    2C56
....................       Tuv[3]=0;write_eeprom(15,0); 
02C28:  CLRF   x06
02C2A:  CLRF   FAA
02C2C:  MOVLW  0F
02C2E:  MOVWF  FA9
02C30:  CLRF   FA8
02C32:  BCF    FA6.6
02C34:  BCF    FA6.7
02C36:  BSF    FA6.2
02C38:  MOVF   FF2,W
02C3A:  MOVWF  00
02C3C:  BCF    FF2.7
02C3E:  MOVLB  F
02C40:  MOVLW  55
02C42:  MOVWF  FA7
02C44:  MOVLW  AA
02C46:  MOVWF  FA7
02C48:  BSF    FA6.1
02C4A:  BTFSC  FA6.1
02C4C:  BRA    2C4A
02C4E:  BCF    FA6.2
02C50:  MOVF   00,W
02C52:  IORWF  FF2,F
02C54:  MOVLB  5
....................    } 
....................    if(Ttrabajo[0]>9 || Ttrabajo[0]<0){ 
02C56:  BTFSC  x0B.7
02C58:  BRA    2C60
02C5A:  MOVF   x0B,W
02C5C:  SUBLW  09
02C5E:  BNC   2C66
02C60:  BTFSC  x0B.7
02C62:  BRA    2C66
02C64:  BRA    2C94
....................       Ttrabajo[0]=0;write_eeprom(16,0); 
02C66:  CLRF   x0B
02C68:  CLRF   FAA
02C6A:  MOVLW  10
02C6C:  MOVWF  FA9
02C6E:  CLRF   FA8
02C70:  BCF    FA6.6
02C72:  BCF    FA6.7
02C74:  BSF    FA6.2
02C76:  MOVF   FF2,W
02C78:  MOVWF  00
02C7A:  BCF    FF2.7
02C7C:  MOVLB  F
02C7E:  MOVLW  55
02C80:  MOVWF  FA7
02C82:  MOVLW  AA
02C84:  MOVWF  FA7
02C86:  BSF    FA6.1
02C88:  BTFSC  FA6.1
02C8A:  BRA    2C88
02C8C:  BCF    FA6.2
02C8E:  MOVF   00,W
02C90:  IORWF  FF2,F
02C92:  MOVLB  5
....................    } 
....................    if(Ttrabajo[1]>9 || Ttrabajo[1]<0){ 
02C94:  BTFSC  x0C.7
02C96:  BRA    2C9E
02C98:  MOVF   x0C,W
02C9A:  SUBLW  09
02C9C:  BNC   2CA4
02C9E:  BTFSC  x0C.7
02CA0:  BRA    2CA4
02CA2:  BRA    2CD2
....................       Ttrabajo[1]=0;write_eeprom(17,0); 
02CA4:  CLRF   x0C
02CA6:  CLRF   FAA
02CA8:  MOVLW  11
02CAA:  MOVWF  FA9
02CAC:  CLRF   FA8
02CAE:  BCF    FA6.6
02CB0:  BCF    FA6.7
02CB2:  BSF    FA6.2
02CB4:  MOVF   FF2,W
02CB6:  MOVWF  00
02CB8:  BCF    FF2.7
02CBA:  MOVLB  F
02CBC:  MOVLW  55
02CBE:  MOVWF  FA7
02CC0:  MOVLW  AA
02CC2:  MOVWF  FA7
02CC4:  BSF    FA6.1
02CC6:  BTFSC  FA6.1
02CC8:  BRA    2CC6
02CCA:  BCF    FA6.2
02CCC:  MOVF   00,W
02CCE:  IORWF  FF2,F
02CD0:  MOVLB  5
....................    } 
....................    if(Ttrabajo[2]>9 || Ttrabajo[2]<0){ 
02CD2:  BTFSC  x0D.7
02CD4:  BRA    2CDC
02CD6:  MOVF   x0D,W
02CD8:  SUBLW  09
02CDA:  BNC   2CE2
02CDC:  BTFSC  x0D.7
02CDE:  BRA    2CE2
02CE0:  BRA    2D10
....................       Ttrabajo[2]=0;write_eeprom(18,0); 
02CE2:  CLRF   x0D
02CE4:  CLRF   FAA
02CE6:  MOVLW  12
02CE8:  MOVWF  FA9
02CEA:  CLRF   FA8
02CEC:  BCF    FA6.6
02CEE:  BCF    FA6.7
02CF0:  BSF    FA6.2
02CF2:  MOVF   FF2,W
02CF4:  MOVWF  00
02CF6:  BCF    FF2.7
02CF8:  MOVLB  F
02CFA:  MOVLW  55
02CFC:  MOVWF  FA7
02CFE:  MOVLW  AA
02D00:  MOVWF  FA7
02D02:  BSF    FA6.1
02D04:  BTFSC  FA6.1
02D06:  BRA    2D04
02D08:  BCF    FA6.2
02D0A:  MOVF   00,W
02D0C:  IORWF  FF2,F
02D0E:  MOVLB  5
....................    } 
....................    if(Ttrabajo[3]>9 || Ttrabajo[3]<0){ 
02D10:  BTFSC  x0E.7
02D12:  BRA    2D1A
02D14:  MOVF   x0E,W
02D16:  SUBLW  09
02D18:  BNC   2D20
02D1A:  BTFSC  x0E.7
02D1C:  BRA    2D20
02D1E:  BRA    2D4E
....................       Ttrabajo[3]=0;write_eeprom(19,0); 
02D20:  CLRF   x0E
02D22:  CLRF   FAA
02D24:  MOVLW  13
02D26:  MOVWF  FA9
02D28:  CLRF   FA8
02D2A:  BCF    FA6.6
02D2C:  BCF    FA6.7
02D2E:  BSF    FA6.2
02D30:  MOVF   FF2,W
02D32:  MOVWF  00
02D34:  BCF    FF2.7
02D36:  MOVLB  F
02D38:  MOVLW  55
02D3A:  MOVWF  FA7
02D3C:  MOVLW  AA
02D3E:  MOVWF  FA7
02D40:  BSF    FA6.1
02D42:  BTFSC  FA6.1
02D44:  BRA    2D42
02D46:  BCF    FA6.2
02D48:  MOVF   00,W
02D4A:  IORWF  FF2,F
02D4C:  MOVLB  5
....................    } 
....................    if(Tempouvp[0]>9 || Tempouvp[0]<0){ 
02D4E:  BTFSC  x07.7
02D50:  BRA    2D58
02D52:  MOVF   x07,W
02D54:  SUBLW  09
02D56:  BNC   2D5E
02D58:  BTFSC  x07.7
02D5A:  BRA    2D5E
02D5C:  BRA    2D8C
....................       Tempouvp[0]=0;write_eeprom(21,0); 
02D5E:  CLRF   x07
02D60:  CLRF   FAA
02D62:  MOVLW  15
02D64:  MOVWF  FA9
02D66:  CLRF   FA8
02D68:  BCF    FA6.6
02D6A:  BCF    FA6.7
02D6C:  BSF    FA6.2
02D6E:  MOVF   FF2,W
02D70:  MOVWF  00
02D72:  BCF    FF2.7
02D74:  MOVLB  F
02D76:  MOVLW  55
02D78:  MOVWF  FA7
02D7A:  MOVLW  AA
02D7C:  MOVWF  FA7
02D7E:  BSF    FA6.1
02D80:  BTFSC  FA6.1
02D82:  BRA    2D80
02D84:  BCF    FA6.2
02D86:  MOVF   00,W
02D88:  IORWF  FF2,F
02D8A:  MOVLB  5
....................    } 
....................    if(Tempouvp[1]>9 || Tempouvp[1]<0){ 
02D8C:  BTFSC  x08.7
02D8E:  BRA    2D96
02D90:  MOVF   x08,W
02D92:  SUBLW  09
02D94:  BNC   2D9C
02D96:  BTFSC  x08.7
02D98:  BRA    2D9C
02D9A:  BRA    2DCA
....................       Tempouvp[1]=0;write_eeprom(22,0); 
02D9C:  CLRF   x08
02D9E:  CLRF   FAA
02DA0:  MOVLW  16
02DA2:  MOVWF  FA9
02DA4:  CLRF   FA8
02DA6:  BCF    FA6.6
02DA8:  BCF    FA6.7
02DAA:  BSF    FA6.2
02DAC:  MOVF   FF2,W
02DAE:  MOVWF  00
02DB0:  BCF    FF2.7
02DB2:  MOVLB  F
02DB4:  MOVLW  55
02DB6:  MOVWF  FA7
02DB8:  MOVLW  AA
02DBA:  MOVWF  FA7
02DBC:  BSF    FA6.1
02DBE:  BTFSC  FA6.1
02DC0:  BRA    2DBE
02DC2:  BCF    FA6.2
02DC4:  MOVF   00,W
02DC6:  IORWF  FF2,F
02DC8:  MOVLB  5
....................    } 
....................    if(Tempouvp[2]>9 || Tempouvp[2]<0){ 
02DCA:  BTFSC  x09.7
02DCC:  BRA    2DD4
02DCE:  MOVF   x09,W
02DD0:  SUBLW  09
02DD2:  BNC   2DDA
02DD4:  BTFSC  x09.7
02DD6:  BRA    2DDA
02DD8:  BRA    2E08
....................       Tempouvp[2]=0;write_eeprom(23,0); 
02DDA:  CLRF   x09
02DDC:  CLRF   FAA
02DDE:  MOVLW  17
02DE0:  MOVWF  FA9
02DE2:  CLRF   FA8
02DE4:  BCF    FA6.6
02DE6:  BCF    FA6.7
02DE8:  BSF    FA6.2
02DEA:  MOVF   FF2,W
02DEC:  MOVWF  00
02DEE:  BCF    FF2.7
02DF0:  MOVLB  F
02DF2:  MOVLW  55
02DF4:  MOVWF  FA7
02DF6:  MOVLW  AA
02DF8:  MOVWF  FA7
02DFA:  BSF    FA6.1
02DFC:  BTFSC  FA6.1
02DFE:  BRA    2DFC
02E00:  BCF    FA6.2
02E02:  MOVF   00,W
02E04:  IORWF  FF2,F
02E06:  MOVLB  5
....................    } 
....................    if(Tempouvp[3]>9 || Tempouvp[3]<0){ 
02E08:  BTFSC  x0A.7
02E0A:  BRA    2E12
02E0C:  MOVF   x0A,W
02E0E:  SUBLW  09
02E10:  BNC   2E18
02E12:  BTFSC  x0A.7
02E14:  BRA    2E18
02E16:  BRA    2E48
....................       Tempouvp[3]=1;write_eeprom(24,1); 
02E18:  MOVLW  01
02E1A:  MOVWF  x0A
02E1C:  CLRF   FAA
02E1E:  MOVLW  18
02E20:  MOVWF  FA9
02E22:  MOVLW  01
02E24:  MOVWF  FA8
02E26:  BCF    FA6.6
02E28:  BCF    FA6.7
02E2A:  BSF    FA6.2
02E2C:  MOVF   FF2,W
02E2E:  MOVWF  00
02E30:  BCF    FF2.7
02E32:  MOVLB  F
02E34:  MOVLW  55
02E36:  MOVWF  FA7
02E38:  MOVLW  AA
02E3A:  MOVWF  FA7
02E3C:  BSF    FA6.1
02E3E:  BTFSC  FA6.1
02E40:  BRA    2E3E
02E42:  BCF    FA6.2
02E44:  MOVF   00,W
02E46:  IORWF  FF2,F
....................    } 
....................    if(Ajuste1>25.0){ 
02E48:  MOVLB  6
02E4A:  CLRF   xA0
02E4C:  CLRF   x9F
02E4E:  MOVLW  48
02E50:  MOVWF  x9E
02E52:  MOVLW  83
02E54:  MOVWF  x9D
02E56:  MOVFF  53A,6A4
02E5A:  MOVFF  539,6A3
02E5E:  MOVFF  538,6A2
02E62:  MOVFF  537,6A1
02E66:  MOVLB  0
02E68:  CALL   1BBC
02E6C:  BNC   2ED2
....................       Ajuste1=1.5;write_eeprom(25,1);write_eeprom(26,5); 
02E6E:  MOVLB  5
02E70:  CLRF   x3A
02E72:  CLRF   x39
02E74:  MOVLW  40
02E76:  MOVWF  x38
02E78:  MOVLW  7F
02E7A:  MOVWF  x37
02E7C:  CLRF   FAA
02E7E:  MOVLW  19
02E80:  MOVWF  FA9
02E82:  MOVLW  01
02E84:  MOVWF  FA8
02E86:  BCF    FA6.6
02E88:  BCF    FA6.7
02E8A:  BSF    FA6.2
02E8C:  MOVF   FF2,W
02E8E:  MOVWF  00
02E90:  BCF    FF2.7
02E92:  MOVLB  F
02E94:  MOVLW  55
02E96:  MOVWF  FA7
02E98:  MOVLW  AA
02E9A:  MOVWF  FA7
02E9C:  BSF    FA6.1
02E9E:  BTFSC  FA6.1
02EA0:  BRA    2E9E
02EA2:  BCF    FA6.2
02EA4:  MOVF   00,W
02EA6:  IORWF  FF2,F
02EA8:  CLRF   FAA
02EAA:  MOVLW  1A
02EAC:  MOVWF  FA9
02EAE:  MOVLW  05
02EB0:  MOVWF  FA8
02EB2:  BCF    FA6.6
02EB4:  BCF    FA6.7
02EB6:  BSF    FA6.2
02EB8:  MOVF   FF2,W
02EBA:  MOVWF  00
02EBC:  BCF    FF2.7
02EBE:  MOVLW  55
02EC0:  MOVWF  FA7
02EC2:  MOVLW  AA
02EC4:  MOVWF  FA7
02EC6:  BSF    FA6.1
02EC8:  BTFSC  FA6.1
02ECA:  BRA    2EC8
02ECC:  BCF    FA6.2
02ECE:  MOVF   00,W
02ED0:  IORWF  FF2,F
....................    } 
....................    if(Ajuste2>25.0){ 
02ED2:  MOVLB  6
02ED4:  CLRF   xA0
02ED6:  CLRF   x9F
02ED8:  MOVLW  48
02EDA:  MOVWF  x9E
02EDC:  MOVLW  83
02EDE:  MOVWF  x9D
02EE0:  MOVFF  53E,6A4
02EE4:  MOVFF  53D,6A3
02EE8:  MOVFF  53C,6A2
02EEC:  MOVFF  53B,6A1
02EF0:  MOVLB  0
02EF2:  CALL   1BBC
02EF6:  BNC   2F58
....................       Ajuste2=1.0;write_eeprom(27,1);write_eeprom(28,0); 
02EF8:  MOVLB  5
02EFA:  CLRF   x3E
02EFC:  CLRF   x3D
02EFE:  CLRF   x3C
02F00:  MOVLW  7F
02F02:  MOVWF  x3B
02F04:  CLRF   FAA
02F06:  MOVLW  1B
02F08:  MOVWF  FA9
02F0A:  MOVLW  01
02F0C:  MOVWF  FA8
02F0E:  BCF    FA6.6
02F10:  BCF    FA6.7
02F12:  BSF    FA6.2
02F14:  MOVF   FF2,W
02F16:  MOVWF  00
02F18:  BCF    FF2.7
02F1A:  MOVLB  F
02F1C:  MOVLW  55
02F1E:  MOVWF  FA7
02F20:  MOVLW  AA
02F22:  MOVWF  FA7
02F24:  BSF    FA6.1
02F26:  BTFSC  FA6.1
02F28:  BRA    2F26
02F2A:  BCF    FA6.2
02F2C:  MOVF   00,W
02F2E:  IORWF  FF2,F
02F30:  CLRF   FAA
02F32:  MOVLW  1C
02F34:  MOVWF  FA9
02F36:  CLRF   FA8
02F38:  BCF    FA6.6
02F3A:  BCF    FA6.7
02F3C:  BSF    FA6.2
02F3E:  MOVF   FF2,W
02F40:  MOVWF  00
02F42:  BCF    FF2.7
02F44:  MOVLW  55
02F46:  MOVWF  FA7
02F48:  MOVLW  AA
02F4A:  MOVWF  FA7
02F4C:  BSF    FA6.1
02F4E:  BTFSC  FA6.1
02F50:  BRA    2F4E
02F52:  BCF    FA6.2
02F54:  MOVF   00,W
02F56:  IORWF  FF2,F
....................    } 
....................    if(zero_actual>300){ 
02F58:  MOVLB  6
02F5A:  CLRF   xA0
02F5C:  CLRF   x9F
02F5E:  MOVLW  16
02F60:  MOVWF  x9E
02F62:  MOVLW  87
02F64:  MOVWF  x9D
02F66:  MOVFF  5C2,6A4
02F6A:  MOVFF  5C1,6A3
02F6E:  MOVFF  5C0,6A2
02F72:  MOVFF  5BF,6A1
02F76:  MOVLB  0
02F78:  CALL   1BBC
02F7C:  BNC   2FE0
....................       zero_actual=203;write_eeprom(29,203);write_eeprom(30,0); 
02F7E:  MOVLB  5
02F80:  CLRF   xC2
02F82:  CLRF   xC1
02F84:  MOVLW  4B
02F86:  MOVWF  xC0
02F88:  MOVLW  86
02F8A:  MOVWF  xBF
02F8C:  CLRF   FAA
02F8E:  MOVLW  1D
02F90:  MOVWF  FA9
02F92:  MOVLW  CB
02F94:  MOVWF  FA8
02F96:  BCF    FA6.6
02F98:  BCF    FA6.7
02F9A:  BSF    FA6.2
02F9C:  MOVF   FF2,W
02F9E:  MOVWF  00
02FA0:  BCF    FF2.7
02FA2:  MOVLB  F
02FA4:  MOVLW  55
02FA6:  MOVWF  FA7
02FA8:  MOVLW  AA
02FAA:  MOVWF  FA7
02FAC:  BSF    FA6.1
02FAE:  BTFSC  FA6.1
02FB0:  BRA    2FAE
02FB2:  BCF    FA6.2
02FB4:  MOVF   00,W
02FB6:  IORWF  FF2,F
02FB8:  CLRF   FAA
02FBA:  MOVLW  1E
02FBC:  MOVWF  FA9
02FBE:  CLRF   FA8
02FC0:  BCF    FA6.6
02FC2:  BCF    FA6.7
02FC4:  BSF    FA6.2
02FC6:  MOVF   FF2,W
02FC8:  MOVWF  00
02FCA:  BCF    FF2.7
02FCC:  MOVLW  55
02FCE:  MOVWF  FA7
02FD0:  MOVLW  AA
02FD2:  MOVWF  FA7
02FD4:  BSF    FA6.1
02FD6:  BTFSC  FA6.1
02FD8:  BRA    2FD6
02FDA:  BCF    FA6.2
02FDC:  MOVF   00,W
02FDE:  IORWF  FF2,F
....................    } 
....................    if(minutos_uv>60){ 
02FE0:  MOVLB  4
02FE2:  MOVF   xE2,F
02FE4:  BNZ   2FEC
02FE6:  MOVF   xE1,W
02FE8:  SUBLW  3C
02FEA:  BC    301A
....................       minutos_uv=0;write_eeprom(31,0); 
02FEC:  CLRF   xE2
02FEE:  CLRF   xE1
02FF0:  CLRF   FAA
02FF2:  MOVLW  1F
02FF4:  MOVWF  FA9
02FF6:  CLRF   FA8
02FF8:  BCF    FA6.6
02FFA:  BCF    FA6.7
02FFC:  BSF    FA6.2
02FFE:  MOVF   FF2,W
03000:  MOVWF  00
03002:  BCF    FF2.7
03004:  MOVLB  F
03006:  MOVLW  55
03008:  MOVWF  FA7
0300A:  MOVLW  AA
0300C:  MOVWF  FA7
0300E:  BSF    FA6.1
03010:  BTFSC  FA6.1
03012:  BRA    3010
03014:  BCF    FA6.2
03016:  MOVF   00,W
03018:  IORWF  FF2,F
....................    } 
....................    if(VelMotor>6){ 
0301A:  MOVLB  5
0301C:  MOVF   xDC,W
0301E:  SUBLW  06
03020:  BC    3052
....................       VelMotor=2;write_eeprom(32,2); 
03022:  MOVLW  02
03024:  MOVWF  xDC
03026:  CLRF   FAA
03028:  MOVLW  20
0302A:  MOVWF  FA9
0302C:  MOVLW  02
0302E:  MOVWF  FA8
03030:  BCF    FA6.6
03032:  BCF    FA6.7
03034:  BSF    FA6.2
03036:  MOVF   FF2,W
03038:  MOVWF  00
0303A:  BCF    FF2.7
0303C:  MOVLB  F
0303E:  MOVLW  55
03040:  MOVWF  FA7
03042:  MOVLW  AA
03044:  MOVWF  FA7
03046:  BSF    FA6.1
03048:  BTFSC  FA6.1
0304A:  BRA    3048
0304C:  BCF    FA6.2
0304E:  MOVF   00,W
03050:  IORWF  FF2,F
....................    }    
....................    if(minutos_trabajo>3600){ 
03052:  MOVLB  4
03054:  MOVF   xE4,W
03056:  SUBLW  0D
03058:  BC    30BA
0305A:  XORLW  FF
0305C:  BNZ   3064
0305E:  MOVF   xE3,W
03060:  SUBLW  10
03062:  BC    30BA
....................       minutos_trabajo=0;write_eeprom(33,0);write_eeprom(34,0); 
03064:  CLRF   xE4
03066:  CLRF   xE3
03068:  CLRF   FAA
0306A:  MOVLW  21
0306C:  MOVWF  FA9
0306E:  CLRF   FA8
03070:  BCF    FA6.6
03072:  BCF    FA6.7
03074:  BSF    FA6.2
03076:  MOVF   FF2,W
03078:  MOVWF  00
0307A:  BCF    FF2.7
0307C:  MOVLB  F
0307E:  MOVLW  55
03080:  MOVWF  FA7
03082:  MOVLW  AA
03084:  MOVWF  FA7
03086:  BSF    FA6.1
03088:  BTFSC  FA6.1
0308A:  BRA    3088
0308C:  BCF    FA6.2
0308E:  MOVF   00,W
03090:  IORWF  FF2,F
03092:  CLRF   FAA
03094:  MOVLW  22
03096:  MOVWF  FA9
03098:  CLRF   FA8
0309A:  BCF    FA6.6
0309C:  BCF    FA6.7
0309E:  BSF    FA6.2
030A0:  MOVF   FF2,W
030A2:  MOVWF  00
030A4:  BCF    FF2.7
030A6:  MOVLW  55
030A8:  MOVWF  FA7
030AA:  MOVLW  AA
030AC:  MOVWF  FA7
030AE:  BSF    FA6.1
030B0:  BTFSC  FA6.1
030B2:  BRA    30B0
030B4:  BCF    FA6.2
030B6:  MOVF   00,W
030B8:  IORWF  FF2,F
....................    } 
....................    //if(Relacion>2.0){ 
....................       //Relacion=0.57;write_eeprom(35,0);write_eeprom(36,57); 
....................    //} 
....................    if(Diferencia>200){ 
030BA:  MOVLB  6
030BC:  CLRF   xA0
030BE:  CLRF   x9F
030C0:  MOVLW  48
030C2:  MOVWF  x9E
030C4:  MOVLW  86
030C6:  MOVWF  x9D
030C8:  MOVFF  526,6A4
030CC:  MOVFF  525,6A3
030D0:  MOVFF  524,6A2
030D4:  MOVFF  523,6A1
030D8:  MOVLB  0
030DA:  CALL   1BBC
030DE:  BNC   313C
....................       Diferencia=0;write_eeprom(60,0);write_eeprom(61,0); 
030E0:  MOVLB  5
030E2:  CLRF   x26
030E4:  CLRF   x25
030E6:  CLRF   x24
030E8:  CLRF   x23
030EA:  CLRF   FAA
030EC:  MOVLW  3C
030EE:  MOVWF  FA9
030F0:  CLRF   FA8
030F2:  BCF    FA6.6
030F4:  BCF    FA6.7
030F6:  BSF    FA6.2
030F8:  MOVF   FF2,W
030FA:  MOVWF  00
030FC:  BCF    FF2.7
030FE:  MOVLB  F
03100:  MOVLW  55
03102:  MOVWF  FA7
03104:  MOVLW  AA
03106:  MOVWF  FA7
03108:  BSF    FA6.1
0310A:  BTFSC  FA6.1
0310C:  BRA    310A
0310E:  BCF    FA6.2
03110:  MOVF   00,W
03112:  IORWF  FF2,F
03114:  CLRF   FAA
03116:  MOVLW  3D
03118:  MOVWF  FA9
0311A:  CLRF   FA8
0311C:  BCF    FA6.6
0311E:  BCF    FA6.7
03120:  BSF    FA6.2
03122:  MOVF   FF2,W
03124:  MOVWF  00
03126:  BCF    FF2.7
03128:  MOVLW  55
0312A:  MOVWF  FA7
0312C:  MOVLW  AA
0312E:  MOVWF  FA7
03130:  BSF    FA6.1
03132:  BTFSC  FA6.1
03134:  BRA    3132
03136:  BCF    FA6.2
03138:  MOVF   00,W
0313A:  IORWF  FF2,F
....................    } 
....................    if(G>900){ 
0313C:  MOVLB  6
0313E:  CLRF   xA0
03140:  CLRF   x9F
03142:  MOVLW  61
03144:  MOVWF  x9E
03146:  MOVLW  88
03148:  MOVWF  x9D
0314A:  MOVFF  5CE,6A4
0314E:  MOVFF  5CD,6A3
03152:  MOVFF  5CC,6A2
03156:  MOVFF  5CB,6A1
0315A:  MOVLB  0
0315C:  CALL   1BBC
03160:  BNC   31C4
....................       G=240;write_eeprom(62,240);write_eeprom(63,0); 
03162:  MOVLB  5
03164:  CLRF   xCE
03166:  CLRF   xCD
03168:  MOVLW  70
0316A:  MOVWF  xCC
0316C:  MOVLW  86
0316E:  MOVWF  xCB
03170:  CLRF   FAA
03172:  MOVLW  3E
03174:  MOVWF  FA9
03176:  MOVLW  F0
03178:  MOVWF  FA8
0317A:  BCF    FA6.6
0317C:  BCF    FA6.7
0317E:  BSF    FA6.2
03180:  MOVF   FF2,W
03182:  MOVWF  00
03184:  BCF    FF2.7
03186:  MOVLB  F
03188:  MOVLW  55
0318A:  MOVWF  FA7
0318C:  MOVLW  AA
0318E:  MOVWF  FA7
03190:  BSF    FA6.1
03192:  BTFSC  FA6.1
03194:  BRA    3192
03196:  BCF    FA6.2
03198:  MOVF   00,W
0319A:  IORWF  FF2,F
0319C:  CLRF   FAA
0319E:  MOVLW  3F
031A0:  MOVWF  FA9
031A2:  CLRF   FA8
031A4:  BCF    FA6.6
031A6:  BCF    FA6.7
031A8:  BSF    FA6.2
031AA:  MOVF   FF2,W
031AC:  MOVWF  00
031AE:  BCF    FF2.7
031B0:  MOVLW  55
031B2:  MOVWF  FA7
031B4:  MOVLW  AA
031B6:  MOVWF  FA7
031B8:  BSF    FA6.1
031BA:  BTFSC  FA6.1
031BC:  BRA    31BA
031BE:  BCF    FA6.2
031C0:  MOVF   00,W
031C2:  IORWF  FF2,F
....................    } 
....................    if(negativo>20){ 
031C4:  MOVLB  4
031C6:  MOVF   xCA,W
031C8:  SUBLW  14
031CA:  BC    31FE
....................       negativo=10;write_eeprom(50,10); 
031CC:  MOVLW  0A
031CE:  MOVWF  xCA
031D0:  CLRF   FAA
031D2:  MOVLW  32
031D4:  MOVWF  FA9
031D6:  MOVLW  0A
031D8:  MOVWF  FA8
031DA:  BCF    FA6.6
031DC:  BCF    FA6.7
031DE:  BSF    FA6.2
031E0:  MOVF   FF2,W
031E2:  MOVWF  00
031E4:  BCF    FF2.7
031E6:  MOVLB  F
031E8:  MOVLW  55
031EA:  MOVWF  FA7
031EC:  MOVLW  AA
031EE:  MOVWF  FA7
031F0:  BSF    FA6.1
031F2:  BTFSC  FA6.1
031F4:  BRA    31F2
031F6:  BCF    FA6.2
031F8:  MOVF   00,W
031FA:  IORWF  FF2,F
031FC:  MOVLB  4
....................    } 
.................... } 
031FE:  MOVLB  0
03200:  GOTO   65EA (RETURN)
....................  
.................... void VelocidadMotor(int8 Vel){ 
....................    float tmp; 
....................    int16 inst; 
....................    if(Vel==0){ 
*
01D34:  MOVLB  6
01D36:  MOVF   x6C,F
01D38:  BNZ   1D40
....................       Motor_off; 
01D3A:  BSF    F8B.1
01D3C:  BCF    F94.1
....................    }else{ 
01D3E:  BRA    1E4A
....................       Lectura_Esclavos(); 
01D40:  MOVLB  0
01D42:  RCALL  1798
....................       inst=(txbuf[2]*256)+txbuf[3]; 
01D44:  MOVLB  6
01D46:  CLRF   x74
01D48:  MOVFF  607,673
01D4C:  MOVLW  01
01D4E:  MOVWF  x76
01D50:  CLRF   x75
01D52:  MOVLB  0
01D54:  RCALL  1910
01D56:  MOVLB  6
01D58:  MOVF   x08,W
01D5A:  ADDWF  01,W
01D5C:  MOVWF  x71
01D5E:  MOVLW  00
01D60:  ADDWFC 02,W
01D62:  MOVWF  x72
....................       Motor_on; 
01D64:  BCF    F8B.1
01D66:  BCF    F94.1
....................       tmp=((float)Vel/(1.6666666))*10.0; 
01D68:  CLRF   xA2
01D6A:  MOVFF  66C,6A1
01D6E:  MOVLB  0
01D70:  RCALL  1932
01D72:  MOVFF  00,673
01D76:  MOVFF  01,674
01D7A:  MOVFF  02,675
01D7E:  MOVFF  03,676
01D82:  MOVFF  03,6A0
01D86:  MOVFF  02,69F
01D8A:  MOVFF  01,69E
01D8E:  MOVFF  00,69D
01D92:  MOVLW  55
01D94:  MOVLB  6
01D96:  MOVWF  xA4
01D98:  MOVWF  xA3
01D9A:  MOVWF  xA2
01D9C:  MOVLW  7F
01D9E:  MOVWF  xA1
01DA0:  MOVLB  0
01DA2:  RCALL  1968
01DA4:  MOVFF  00,673
01DA8:  MOVFF  01,674
01DAC:  MOVFF  02,675
01DB0:  MOVFF  03,676
01DB4:  MOVFF  03,6A0
01DB8:  MOVFF  02,69F
01DBC:  MOVFF  01,69E
01DC0:  MOVFF  00,69D
01DC4:  MOVLB  6
01DC6:  CLRF   xA4
01DC8:  CLRF   xA3
01DCA:  MOVLW  20
01DCC:  MOVWF  xA2
01DCE:  MOVLW  82
01DD0:  MOVWF  xA1
01DD2:  MOVLB  0
01DD4:  RCALL  1AC6
01DD6:  MOVFF  03,670
01DDA:  MOVFF  02,66F
01DDE:  MOVFF  01,66E
01DE2:  MOVFF  00,66D
....................       if(tmp!=inst){  
01DE6:  MOVFF  672,6A2
01DEA:  MOVFF  671,6A1
01DEE:  RCALL  1932
01DF0:  MOVFF  670,6A0
01DF4:  MOVFF  66F,69F
01DF8:  MOVFF  66E,69E
01DFC:  MOVFF  66D,69D
01E00:  MOVFF  03,6A4
01E04:  MOVFF  02,6A3
01E08:  MOVFF  01,6A2
01E0C:  MOVFF  00,6A1
01E10:  RCALL  1BBC
01E12:  BZ    1E48
....................          instruccion=5; 
01E14:  MOVLW  05
01E16:  MOVLB  4
01E18:  MOVWF  xD5
....................          address=100; 
01E1A:  MOVLW  64
01E1C:  MOVWF  xD6
....................          reg=(int16)tmp; 
01E1E:  MOVFF  670,6A0
01E22:  MOVFF  66F,69F
01E26:  MOVFF  66E,69E
01E2A:  MOVFF  66D,69D
01E2E:  MOVLB  0
01E30:  RCALL  1C36
01E32:  MOVFF  02,4F2
01E36:  MOVFF  01,4F1
....................          regl=make8(reg,0); 
01E3A:  MOVLB  4
01E3C:  MOVFF  4F1,4D7
....................          regh=make8(reg,1); 
01E40:  MOVFF  4F2,4D8
....................          Envio_Esclavos(); 
01E44:  MOVLB  0
01E46:  RCALL  1CE0
01E48:  MOVLB  6
....................       } 
....................    } 
.................... } 
01E4A:  MOVLB  0
01E4C:  RETLW  00
....................  
.................... short PidePassword(int8 MenuAnt, int8 MenuActual, int8 MenuPost, int8 clave0,int8 clave1, int8 clave2,int8 clave3){ 
....................       if(n==0) 
*
05072:  MOVLB  4
05074:  BTFSC  x2E.3
05076:  BRA    510E
....................       { 
....................          displayContrasena(Contrasena[0],20,30,1);displayContrasena(Contrasena[1],40,30,0); 
05078:  MOVFF  50F,675
0507C:  MOVLW  14
0507E:  MOVLB  6
05080:  MOVWF  x76
05082:  MOVLW  1E
05084:  MOVWF  x77
05086:  MOVLW  01
05088:  MOVWF  x78
0508A:  MOVLB  0
0508C:  RCALL  4EEE
0508E:  MOVFF  510,675
05092:  MOVLW  28
05094:  MOVLB  6
05096:  MOVWF  x76
05098:  MOVLW  1E
0509A:  MOVWF  x77
0509C:  CLRF   x78
0509E:  MOVLB  0
050A0:  RCALL  4EEE
....................          displayContrasena(Contrasena[2],60,30,0);displayContrasena(Contrasena[0],80,30,0); 
050A2:  MOVFF  511,675
050A6:  MOVLW  3C
050A8:  MOVLB  6
050AA:  MOVWF  x76
050AC:  MOVLW  1E
050AE:  MOVWF  x77
050B0:  CLRF   x78
050B2:  MOVLB  0
050B4:  RCALL  4EEE
050B6:  MOVFF  50F,675
050BA:  MOVLW  50
050BC:  MOVLB  6
050BE:  MOVWF  x76
050C0:  MOVLW  1E
050C2:  MOVWF  x77
050C4:  CLRF   x78
050C6:  MOVLB  0
050C8:  RCALL  4EEE
....................          strcpy(Menus.Letra,"Clave"); 
050CA:  MOVLW  04
050CC:  MOVWF  FEA
050CE:  MOVLW  16
050D0:  MOVWF  FE9
050D2:  MOVFF  FF2,673
050D6:  BCF    FF2.7
050D8:  MOVLW  00
050DA:  CALL   0EEE
050DE:  TBLRD*-
050E0:  TBLRD*+
050E2:  MOVF   FF5,W
050E4:  MOVWF  FEE
050E6:  IORLW  00
050E8:  BNZ   50E0
050EA:  MOVLB  6
050EC:  BTFSC  x73.7
050EE:  BSF    FF2.7
....................          displayMenu(Menus.Letra,20,0,1,3); 
050F0:  MOVLW  04
050F2:  MOVWF  x74
050F4:  MOVLW  16
050F6:  MOVWF  x73
050F8:  MOVLW  14
050FA:  MOVWF  x75
050FC:  CLRF   x76
050FE:  MOVLW  01
05100:  MOVWF  x77
05102:  MOVLW  03
05104:  MOVWF  x78
05106:  MOVLB  0
05108:  RCALL  4FA6
....................          n=1; 
0510A:  MOVLB  4
0510C:  BSF    x2E.3
....................       } 
....................        
....................       if(UP){ 
0510E:  BSF    F92.5
05110:  BTFSC  F80.5
05112:  BRA    51F2
....................          flag_latencia=0;t_latencia=0; 
05114:  BCF    x2D.7
05116:  CLRF   xE0
05118:  CLRF   xDF
....................          if(Flanco == 0){ 
0511A:  BTFSC  x2C.0
0511C:  BRA    51F0
....................             Flanco = 1;delay_ms(5); 
0511E:  BSF    x2C.0
05120:  MOVLW  05
05122:  MOVLB  6
05124:  MOVWF  x80
05126:  MOVLB  0
05128:  CALL   14A0
....................             for(i=1;i<=4;i++){ 
0512C:  MOVLW  01
0512E:  MOVLB  5
05130:  MOVWF  xD5
05132:  MOVF   xD5,W
05134:  SUBLW  04
05136:  BNC   51EE
....................                if(unidad==i){ 
05138:  MOVF   xD5,W
0513A:  MOVLB  4
0513C:  SUBWF  xC8,W
0513E:  BNZ   51B6
....................                   Contrasena[i-1]++; 
05140:  MOVLW  01
05142:  MOVLB  5
05144:  SUBWF  xD5,W
05146:  CLRF   03
05148:  ADDLW  0F
0514A:  MOVWF  FE9
0514C:  MOVLW  05
0514E:  ADDWFC 03,W
05150:  MOVWF  FEA
05152:  INCF   FEF,F
....................                   if(Contrasena[i-1]>9){ 
05154:  MOVLW  01
05156:  SUBWF  xD5,W
05158:  CLRF   03
0515A:  ADDLW  0F
0515C:  MOVWF  FE9
0515E:  MOVLW  05
05160:  ADDWFC 03,W
05162:  MOVWF  FEA
05164:  BTFSC  FEF.7
05166:  BRA    5180
05168:  MOVF   FEF,W
0516A:  SUBLW  09
0516C:  BC    5180
....................                      Contrasena[i-1]=0; 
0516E:  MOVLW  01
05170:  SUBWF  xD5,W
05172:  CLRF   03
05174:  ADDLW  0F
05176:  MOVWF  FE9
05178:  MOVLW  05
0517A:  ADDWFC 03,W
0517C:  MOVWF  FEA
0517E:  CLRF   FEF
....................                   } 
....................                   displayContrasena(Contrasena[i-1],i*20,30,1); 
05180:  MOVLW  01
05182:  SUBWF  xD5,W
05184:  CLRF   03
05186:  ADDLW  0F
05188:  MOVWF  FE9
0518A:  MOVLW  05
0518C:  ADDWFC 03,W
0518E:  MOVWF  FEA
05190:  MOVFF  FEF,673
05194:  MOVF   xD5,W
05196:  MULLW  14
05198:  MOVFF  FF3,674
0519C:  MOVLB  6
0519E:  MOVFF  673,675
051A2:  MOVFF  674,676
051A6:  MOVLW  1E
051A8:  MOVWF  x77
051AA:  MOVLW  01
051AC:  MOVWF  x78
051AE:  MOVLB  0
051B0:  RCALL  4EEE
....................                }else{ 
051B2:  BRA    51E8
051B4:  MOVLB  4
....................                   displayContrasena(Contrasena[i-1],i*20,30,0); 
051B6:  MOVLW  01
051B8:  MOVLB  5
051BA:  SUBWF  xD5,W
051BC:  CLRF   03
051BE:  ADDLW  0F
051C0:  MOVWF  FE9
051C2:  MOVLW  05
051C4:  ADDWFC 03,W
051C6:  MOVWF  FEA
051C8:  MOVFF  FEF,673
051CC:  MOVF   xD5,W
051CE:  MULLW  14
051D0:  MOVFF  FF3,674
051D4:  MOVLB  6
051D6:  MOVFF  673,675
051DA:  MOVFF  674,676
051DE:  MOVLW  1E
051E0:  MOVWF  x77
051E2:  CLRF   x78
051E4:  MOVLB  0
051E6:  RCALL  4EEE
....................                } 
....................             } 
051E8:  MOVLB  5
051EA:  INCF   xD5,F
051EC:  BRA    5132
051EE:  MOVLB  4
....................          } 
....................       }else{ 
051F0:  BRA    51F4
....................          Flanco = 0; 
051F2:  BCF    x2C.0
....................       } 
....................              
....................       if(DOWN){ 
051F4:  BSF    F96.0
051F6:  BTFSC  F84.0
051F8:  BRA    52D6
....................          flag_latencia=0;t_latencia=0; 
051FA:  BCF    x2D.7
051FC:  CLRF   xE0
051FE:  CLRF   xDF
....................          if(Flanco2 == 0){ 
05200:  BTFSC  x2C.2
05202:  BRA    52D4
....................             Flanco2 = 1;delay_ms(5); 
05204:  BSF    x2C.2
05206:  MOVLW  05
05208:  MOVLB  6
0520A:  MOVWF  x80
0520C:  MOVLB  0
0520E:  CALL   14A0
....................             for(i=1;i<=4;i++){ 
05212:  MOVLW  01
05214:  MOVLB  5
05216:  MOVWF  xD5
05218:  MOVF   xD5,W
0521A:  SUBLW  04
0521C:  BNC   52D2
....................                if(unidad==i){ 
0521E:  MOVF   xD5,W
05220:  MOVLB  4
05222:  SUBWF  xC8,W
05224:  BNZ   529A
....................                   Contrasena[i-1]--; 
05226:  MOVLW  01
05228:  MOVLB  5
0522A:  SUBWF  xD5,W
0522C:  CLRF   03
0522E:  ADDLW  0F
05230:  MOVWF  FE9
05232:  MOVLW  05
05234:  ADDWFC 03,W
05236:  MOVWF  FEA
05238:  DECF   FEF,F
....................                   if(Contrasena[i-1]<0){ 
0523A:  MOVLW  01
0523C:  SUBWF  xD5,W
0523E:  CLRF   03
05240:  ADDLW  0F
05242:  MOVWF  FE9
05244:  MOVLW  05
05246:  ADDWFC 03,W
05248:  MOVWF  FEA
0524A:  BTFSC  FEF.7
0524C:  BRA    5250
0524E:  BRA    5264
....................                      Contrasena[i-1]=9; 
05250:  MOVLW  01
05252:  SUBWF  xD5,W
05254:  CLRF   03
05256:  ADDLW  0F
05258:  MOVWF  FE9
0525A:  MOVLW  05
0525C:  ADDWFC 03,W
0525E:  MOVWF  FEA
05260:  MOVLW  09
05262:  MOVWF  FEF
....................                   } 
....................                   displayContrasena(Contrasena[i-1],i*20,30,1); 
05264:  MOVLW  01
05266:  SUBWF  xD5,W
05268:  CLRF   03
0526A:  ADDLW  0F
0526C:  MOVWF  FE9
0526E:  MOVLW  05
05270:  ADDWFC 03,W
05272:  MOVWF  FEA
05274:  MOVFF  FEF,673
05278:  MOVF   xD5,W
0527A:  MULLW  14
0527C:  MOVFF  FF3,674
05280:  MOVLB  6
05282:  MOVFF  673,675
05286:  MOVFF  674,676
0528A:  MOVLW  1E
0528C:  MOVWF  x77
0528E:  MOVLW  01
05290:  MOVWF  x78
05292:  MOVLB  0
05294:  RCALL  4EEE
....................                }else{ 
05296:  BRA    52CC
05298:  MOVLB  4
....................                   displayContrasena(Contrasena[i-1],i*20,30,0); 
0529A:  MOVLW  01
0529C:  MOVLB  5
0529E:  SUBWF  xD5,W
052A0:  CLRF   03
052A2:  ADDLW  0F
052A4:  MOVWF  FE9
052A6:  MOVLW  05
052A8:  ADDWFC 03,W
052AA:  MOVWF  FEA
052AC:  MOVFF  FEF,673
052B0:  MOVF   xD5,W
052B2:  MULLW  14
052B4:  MOVFF  FF3,674
052B8:  MOVLB  6
052BA:  MOVFF  673,675
052BE:  MOVFF  674,676
052C2:  MOVLW  1E
052C4:  MOVWF  x77
052C6:  CLRF   x78
052C8:  MOVLB  0
052CA:  RCALL  4EEE
....................                } 
....................             }       
052CC:  MOVLB  5
052CE:  INCF   xD5,F
052D0:  BRA    5218
052D2:  MOVLB  4
....................          }      
....................       }else{ 
052D4:  BRA    52D8
....................          Flanco2 = 0; 
052D6:  BCF    x2C.2
....................       } 
....................              
....................       if(RIGHT){ 
052D8:  BSF    F96.1
052DA:  BTFSC  F84.1
052DC:  BRA    5382
....................          flag_latencia=0;t_latencia=0; 
052DE:  BCF    x2D.7
052E0:  CLRF   xE0
052E2:  CLRF   xDF
....................          if(Flanco1 == 0){ 
052E4:  BTFSC  x2C.1
052E6:  BRA    5380
....................             Flanco1 = 1;delay_ms(5);unidad++; 
052E8:  BSF    x2C.1
052EA:  MOVLW  05
052EC:  MOVLB  6
052EE:  MOVWF  x80
052F0:  MOVLB  0
052F2:  CALL   14A0
052F6:  MOVLB  4
052F8:  INCF   xC8,F
....................             for(i=1;i<=4;i++){ 
052FA:  MOVLW  01
052FC:  MOVLB  5
052FE:  MOVWF  xD5
05300:  MOVF   xD5,W
05302:  SUBLW  04
05304:  BNC   537E
....................                if(unidad==i){ 
05306:  MOVF   xD5,W
05308:  MOVLB  4
0530A:  SUBWF  xC8,W
0530C:  BNZ   5346
....................                   displayContrasena(Contrasena[i-1],i*20,30,1); 
0530E:  MOVLW  01
05310:  MOVLB  5
05312:  SUBWF  xD5,W
05314:  CLRF   03
05316:  ADDLW  0F
05318:  MOVWF  FE9
0531A:  MOVLW  05
0531C:  ADDWFC 03,W
0531E:  MOVWF  FEA
05320:  MOVFF  FEF,673
05324:  MOVF   xD5,W
05326:  MULLW  14
05328:  MOVFF  FF3,674
0532C:  MOVLB  6
0532E:  MOVFF  673,675
05332:  MOVFF  674,676
05336:  MOVLW  1E
05338:  MOVWF  x77
0533A:  MOVLW  01
0533C:  MOVWF  x78
0533E:  MOVLB  0
05340:  RCALL  4EEE
....................                }else{ 
05342:  BRA    5378
05344:  MOVLB  4
....................                   displayContrasena(Contrasena[i-1],i*20,30,0); 
05346:  MOVLW  01
05348:  MOVLB  5
0534A:  SUBWF  xD5,W
0534C:  CLRF   03
0534E:  ADDLW  0F
05350:  MOVWF  FE9
05352:  MOVLW  05
05354:  ADDWFC 03,W
05356:  MOVWF  FEA
05358:  MOVFF  FEF,673
0535C:  MOVF   xD5,W
0535E:  MULLW  14
05360:  MOVFF  FF3,674
05364:  MOVLB  6
05366:  MOVFF  673,675
0536A:  MOVFF  674,676
0536E:  MOVLW  1E
05370:  MOVWF  x77
05372:  CLRF   x78
05374:  MOVLB  0
05376:  RCALL  4EEE
....................                } 
....................             } 
05378:  MOVLB  5
0537A:  INCF   xD5,F
0537C:  BRA    5300
0537E:  MOVLB  4
....................          } 
....................       }else{ 
05380:  BRA    5384
....................          Flanco1 = 0; 
05382:  BCF    x2C.1
....................       } 
....................        
....................       if(LEFT){ 
05384:  BSF    F96.2
05386:  BTFSC  F84.2
05388:  BRA    53D4
....................          delay_ms(100); 
0538A:  MOVLW  64
0538C:  MOVLB  6
0538E:  MOVWF  x80
05390:  MOVLB  0
05392:  CALL   14A0
....................          if(LEFT){ 
05396:  BSF    F96.2
05398:  BTFSC  F84.2
0539A:  BRA    53D2
....................             Menu=MenuAnt;glcd_fillScreen(OFF);n=0;Opcion=1;unidad=1; 
0539C:  MOVFF  66C,4C7
053A0:  MOVLB  6
053A2:  CLRF   x73
053A4:  MOVLB  0
053A6:  CALL   14FE
053AA:  MOVLB  4
053AC:  BCF    x2E.3
053AE:  MOVLW  01
053B0:  MOVWF  xC9
053B2:  MOVWF  xC8
....................             Contrasena[0]=0;Contrasena[1]=0;Contrasena[2]=0;Contrasena[3]=0; 
053B4:  MOVLB  5
053B6:  CLRF   x0F
053B8:  CLRF   x10
053BA:  CLRF   x11
053BC:  CLRF   x12
....................             glcd_fillScreen(OFF);glcd_update(); 
053BE:  MOVLB  6
053C0:  CLRF   x73
053C2:  MOVLB  0
053C4:  CALL   14FE
053C8:  CALL   1558
....................             return 1; 
053CC:  MOVLW  01
053CE:  MOVWF  01
053D0:  BRA    577E
053D2:  MOVLB  4
....................          } 
....................       } 
....................      
....................       if(unidad>4){ 
053D4:  MOVF   xC8,W
053D6:  SUBLW  04
053D8:  BTFSC  FD8.0
053DA:  BRA    5780
....................          glcd_fillScreen(OFF);unidad=1;flag_latencia=0;t_latencia=0; 
053DC:  MOVLB  6
053DE:  CLRF   x73
053E0:  MOVLB  0
053E2:  CALL   14FE
053E6:  MOVLW  01
053E8:  MOVLB  4
053EA:  MOVWF  xC8
053EC:  BCF    x2D.7
053EE:  CLRF   xE0
053F0:  CLRF   xDF
....................           
....................          if(Contrasena[0]==3&&Contrasena[1]==8&&Contrasena[2]==9&&Contrasena[3]==2 && MenuActual==0){ // Si Ingresa clave para reset general del sistema. 
053F2:  MOVLB  5
053F4:  MOVF   x0F,W
053F6:  SUBLW  03
053F8:  BTFSS  FD8.2
053FA:  BRA    54F4
053FC:  MOVF   x10,W
053FE:  SUBLW  08
05400:  BTFSS  FD8.2
05402:  BRA    54F4
05404:  MOVF   x11,W
05406:  SUBLW  09
05408:  BNZ   54F4
0540A:  MOVF   x12,W
0540C:  SUBLW  02
0540E:  BNZ   54F4
05410:  MOVLB  6
05412:  MOVF   x6D,F
05414:  BTFSC  FD8.2
05416:  BRA    541C
05418:  MOVLB  5
0541A:  BRA    54F4
....................             write_eeprom(0,0);delay_ms(20);write_eeprom(1,0);delay_ms(20);// Reestablece a contrasea de Fabrica y reinicia Programa. 
0541C:  CLRF   FAA
0541E:  CLRF   FA9
05420:  CLRF   FA8
05422:  BCF    FA6.6
05424:  BCF    FA6.7
05426:  BSF    FA6.2
05428:  MOVF   FF2,W
0542A:  MOVWF  00
0542C:  BCF    FF2.7
0542E:  MOVLB  F
05430:  MOVLW  55
05432:  MOVWF  FA7
05434:  MOVLW  AA
05436:  MOVWF  FA7
05438:  BSF    FA6.1
0543A:  BTFSC  FA6.1
0543C:  BRA    543A
0543E:  BCF    FA6.2
05440:  MOVF   00,W
05442:  IORWF  FF2,F
05444:  MOVLW  14
05446:  MOVLB  6
05448:  MOVWF  x80
0544A:  MOVLB  0
0544C:  CALL   14A0
05450:  CLRF   FAA
05452:  MOVLW  01
05454:  MOVWF  FA9
05456:  CLRF   FA8
05458:  BCF    FA6.6
0545A:  BCF    FA6.7
0545C:  BSF    FA6.2
0545E:  MOVF   FF2,W
05460:  MOVWF  00
05462:  BCF    FF2.7
05464:  MOVLB  F
05466:  MOVLW  55
05468:  MOVWF  FA7
0546A:  MOVLW  AA
0546C:  MOVWF  FA7
0546E:  BSF    FA6.1
05470:  BTFSC  FA6.1
05472:  BRA    5470
05474:  BCF    FA6.2
05476:  MOVF   00,W
05478:  IORWF  FF2,F
0547A:  MOVLW  14
0547C:  MOVLB  6
0547E:  MOVWF  x80
05480:  MOVLB  0
05482:  CALL   14A0
....................             write_eeprom(2,0);delay_ms(20);write_eeprom(3,0);delay_ms(20); 
05486:  CLRF   FAA
05488:  MOVLW  02
0548A:  MOVWF  FA9
0548C:  CLRF   FA8
0548E:  BCF    FA6.6
05490:  BCF    FA6.7
05492:  BSF    FA6.2
05494:  MOVF   FF2,W
05496:  MOVWF  00
05498:  BCF    FF2.7
0549A:  MOVLB  F
0549C:  MOVLW  55
0549E:  MOVWF  FA7
054A0:  MOVLW  AA
054A2:  MOVWF  FA7
054A4:  BSF    FA6.1
054A6:  BTFSC  FA6.1
054A8:  BRA    54A6
054AA:  BCF    FA6.2
054AC:  MOVF   00,W
054AE:  IORWF  FF2,F
054B0:  MOVLW  14
054B2:  MOVLB  6
054B4:  MOVWF  x80
054B6:  MOVLB  0
054B8:  CALL   14A0
054BC:  CLRF   FAA
054BE:  MOVLW  03
054C0:  MOVWF  FA9
054C2:  CLRF   FA8
054C4:  BCF    FA6.6
054C6:  BCF    FA6.7
054C8:  BSF    FA6.2
054CA:  MOVF   FF2,W
054CC:  MOVWF  00
054CE:  BCF    FF2.7
054D0:  MOVLB  F
054D2:  MOVLW  55
054D4:  MOVWF  FA7
054D6:  MOVLW  AA
054D8:  MOVWF  FA7
054DA:  BSF    FA6.1
054DC:  BTFSC  FA6.1
054DE:  BRA    54DC
054E0:  BCF    FA6.2
054E2:  MOVF   00,W
054E4:  IORWF  FF2,F
054E6:  MOVLW  14
054E8:  MOVLB  6
054EA:  MOVWF  x80
054EC:  MOVLB  0
054EE:  CALL   14A0
....................             reset_cpu(); 
054F2:  RESET
....................          } 
....................        
....................          if((Contrasena[0]==clave0)&&(Contrasena[1]==clave1)&&(Contrasena[2]==clave2)&&(Contrasena[3]==clave3)){ 
054F4:  MOVLB  6
054F6:  MOVF   x6F,W
054F8:  MOVLB  5
054FA:  SUBWF  x0F,W
054FC:  BTFSS  FD8.2
054FE:  BRA    55F2
05500:  MOVLB  6
05502:  MOVF   x70,W
05504:  MOVLB  5
05506:  SUBWF  x10,W
05508:  BTFSS  FD8.2
0550A:  BRA    55F2
0550C:  MOVLB  6
0550E:  MOVF   x71,W
05510:  MOVLB  5
05512:  SUBWF  x11,W
05514:  BNZ   55F2
05516:  MOVLB  6
05518:  MOVF   x72,W
0551A:  MOVLB  5
0551C:  SUBWF  x12,W
0551E:  BNZ   55F2
....................             glcd_fillScreen(OFF); 
05520:  MOVLB  6
05522:  CLRF   x73
05524:  MOVLB  0
05526:  CALL   14FE
....................             strcpy(Menus.Letra,"Clave"); 
0552A:  MOVLW  04
0552C:  MOVWF  FEA
0552E:  MOVLW  16
05530:  MOVWF  FE9
05532:  MOVFF  FF2,673
05536:  BCF    FF2.7
05538:  MOVLW  00
0553A:  CALL   0EEE
0553E:  TBLRD*-
05540:  TBLRD*+
05542:  MOVF   FF5,W
05544:  MOVWF  FEE
05546:  IORLW  00
05548:  BNZ   5540
0554A:  MOVLB  6
0554C:  BTFSC  x73.7
0554E:  BSF    FF2.7
....................             displayMenu(Menus.Letra,30,0,0,2); 
05550:  MOVLW  04
05552:  MOVWF  x74
05554:  MOVLW  16
05556:  MOVWF  x73
05558:  MOVLW  1E
0555A:  MOVWF  x75
0555C:  CLRF   x76
0555E:  CLRF   x77
05560:  MOVLW  02
05562:  MOVWF  x78
05564:  MOVLB  0
05566:  RCALL  4FA6
....................             strcpy(Menus.Letra,"Correcta"); 
05568:  MOVLW  04
0556A:  MOVWF  FEA
0556C:  MOVLW  16
0556E:  MOVWF  FE9
05570:  MOVFF  FF2,673
05574:  BCF    FF2.7
05576:  MOVLW  00
05578:  CALL   0F0E
0557C:  TBLRD*-
0557E:  TBLRD*+
05580:  MOVF   FF5,W
05582:  MOVWF  FEE
05584:  IORLW  00
05586:  BNZ   557E
05588:  MOVLB  6
0558A:  BTFSC  x73.7
0558C:  BSF    FF2.7
....................             displayMenu(Menus.Letra,15,30,0,2); 
0558E:  MOVLW  04
05590:  MOVWF  x74
05592:  MOVLW  16
05594:  MOVWF  x73
05596:  MOVLW  0F
05598:  MOVWF  x75
0559A:  MOVLW  1E
0559C:  MOVWF  x76
0559E:  CLRF   x77
055A0:  MOVLW  02
055A2:  MOVWF  x78
055A4:  MOVLB  0
055A6:  RCALL  4FA6
....................             Menu=MenuPost;glcd_update();delay_ms(1000);glcd_fillScreen(OFF); 
055A8:  MOVFF  66E,4C7
055AC:  CALL   1558
055B0:  MOVLW  04
055B2:  MOVLB  6
055B4:  MOVWF  x73
055B6:  MOVLW  FA
055B8:  MOVWF  x80
055BA:  MOVLB  0
055BC:  CALL   14A0
055C0:  MOVLB  6
055C2:  DECFSZ x73,F
055C4:  BRA    55B6
055C6:  CLRF   x73
055C8:  MOVLB  0
055CA:  CALL   14FE
....................             Contrasena[0]=0;Contrasena[1]=0;Contrasena[2]=0;Contrasena[3]=0; 
055CE:  MOVLB  5
055D0:  CLRF   x0F
055D2:  CLRF   x10
055D4:  CLRF   x11
055D6:  CLRF   x12
....................             if(MenuActual==0)tiempo_purga=1;n=0; 
055D8:  MOVLB  6
055DA:  MOVF   x6D,F
055DC:  BNZ   55E2
055DE:  MOVLB  4
055E0:  BSF    x2D.5
055E2:  MOVLB  4
055E4:  BCF    x2E.3
....................             return 1; 
055E6:  MOVLW  01
055E8:  MOVWF  01
055EA:  MOVLB  0
055EC:  BRA    577E
....................          }else{ 
055EE:  BRA    577E
055F0:  MOVLB  5
....................             glcd_fillScreen(OFF); 
055F2:  MOVLB  6
055F4:  CLRF   x73
055F6:  MOVLB  0
055F8:  CALL   14FE
....................             strcpy(Menus.Letra,"Clave"); 
055FC:  MOVLW  04
055FE:  MOVWF  FEA
05600:  MOVLW  16
05602:  MOVWF  FE9
05604:  MOVFF  FF2,673
05608:  BCF    FF2.7
0560A:  MOVLW  00
0560C:  CALL   0EEE
05610:  TBLRD*-
05612:  TBLRD*+
05614:  MOVF   FF5,W
05616:  MOVWF  FEE
05618:  IORLW  00
0561A:  BNZ   5612
0561C:  MOVLB  6
0561E:  BTFSC  x73.7
05620:  BSF    FF2.7
....................             displayMenu(Menus.Letra,30,0,0,2); 
05622:  MOVLW  04
05624:  MOVWF  x74
05626:  MOVLW  16
05628:  MOVWF  x73
0562A:  MOVLW  1E
0562C:  MOVWF  x75
0562E:  CLRF   x76
05630:  CLRF   x77
05632:  MOVLW  02
05634:  MOVWF  x78
05636:  MOVLB  0
05638:  RCALL  4FA6
....................             strcpy(Menus.Letra,"Incorrecta"); 
0563A:  MOVLW  04
0563C:  MOVWF  FEA
0563E:  MOVLW  16
05640:  MOVWF  FE9
05642:  MOVFF  FF2,673
05646:  BCF    FF2.7
05648:  MOVLW  00
0564A:  CALL   0F32
0564E:  TBLRD*-
05650:  TBLRD*+
05652:  MOVF   FF5,W
05654:  MOVWF  FEE
05656:  IORLW  00
05658:  BNZ   5650
0565A:  MOVLB  6
0565C:  BTFSC  x73.7
0565E:  BSF    FF2.7
....................             displayMenu(Menus.Letra,0,30,0,2); 
05660:  MOVLW  04
05662:  MOVWF  x74
05664:  MOVLW  16
05666:  MOVWF  x73
05668:  CLRF   x75
0566A:  MOVLW  1E
0566C:  MOVWF  x76
0566E:  CLRF   x77
05670:  MOVLW  02
05672:  MOVWF  x78
05674:  MOVLB  0
05676:  RCALL  4FA6
....................             unidad=1;glcd_update();delay_ms(1000);Contrasena[0]=0;Contrasena[1]=0;Contrasena[2]=0;Contrasena[3]=0;glcd_fillScreen(OFF); 
05678:  MOVLW  01
0567A:  MOVLB  4
0567C:  MOVWF  xC8
0567E:  MOVLB  0
05680:  CALL   1558
05684:  MOVLW  04
05686:  MOVLB  6
05688:  MOVWF  x73
0568A:  MOVLW  FA
0568C:  MOVWF  x80
0568E:  MOVLB  0
05690:  CALL   14A0
05694:  MOVLB  6
05696:  DECFSZ x73,F
05698:  BRA    568A
0569A:  MOVLB  5
0569C:  CLRF   x0F
0569E:  CLRF   x10
056A0:  CLRF   x11
056A2:  CLRF   x12
056A4:  MOVLB  6
056A6:  CLRF   x73
056A8:  MOVLB  0
056AA:  CALL   14FE
....................             glcd_rect(0, 0, 127, 25, YES, ON);strcpy(Menus.Letra,"Clave");glcd_text57(25, 1, Menus.Letra, 3, OFF);displayContrasena(Contrasena[0],20,30,1); 
056AE:  MOVLB  6
056B0:  CLRF   x84
056B2:  CLRF   x85
056B4:  MOVLW  7F
056B6:  MOVWF  x86
056B8:  MOVLW  19
056BA:  MOVWF  x87
056BC:  MOVLW  01
056BE:  MOVWF  x88
056C0:  MOVWF  x89
056C2:  MOVLB  0
056C4:  CALL   4C74
056C8:  MOVLW  04
056CA:  MOVWF  FEA
056CC:  MOVLW  16
056CE:  MOVWF  FE9
056D0:  MOVFF  FF2,673
056D4:  BCF    FF2.7
056D6:  MOVLW  00
056D8:  CALL   0EEE
056DC:  TBLRD*-
056DE:  TBLRD*+
056E0:  MOVF   FF5,W
056E2:  MOVWF  FEE
056E4:  IORLW  00
056E6:  BNZ   56DE
056E8:  MOVLB  6
056EA:  BTFSC  x73.7
056EC:  BSF    FF2.7
056EE:  MOVLW  19
056F0:  MOVWF  x84
056F2:  MOVLW  01
056F4:  MOVWF  x85
056F6:  MOVLW  04
056F8:  MOVWF  x87
056FA:  MOVLW  16
056FC:  MOVWF  x86
056FE:  MOVLW  03
05700:  MOVWF  x88
05702:  CLRF   x89
05704:  MOVLB  0
05706:  CALL   4D36
0570A:  MOVFF  50F,675
0570E:  MOVLW  14
05710:  MOVLB  6
05712:  MOVWF  x76
05714:  MOVLW  1E
05716:  MOVWF  x77
05718:  MOVLW  01
0571A:  MOVWF  x78
0571C:  MOVLB  0
0571E:  CALL   4EEE
....................             displayContrasena(Contrasena[1],40,30,0);displayContrasena(Contrasena[2],60,30,0);displayContrasena(Contrasena[0],80,30,0); 
05722:  MOVFF  510,675
05726:  MOVLW  28
05728:  MOVLB  6
0572A:  MOVWF  x76
0572C:  MOVLW  1E
0572E:  MOVWF  x77
05730:  CLRF   x78
05732:  MOVLB  0
05734:  CALL   4EEE
05738:  MOVFF  511,675
0573C:  MOVLW  3C
0573E:  MOVLB  6
05740:  MOVWF  x76
05742:  MOVLW  1E
05744:  MOVWF  x77
05746:  CLRF   x78
05748:  MOVLB  0
0574A:  CALL   4EEE
0574E:  MOVFF  50F,675
05752:  MOVLW  50
05754:  MOVLB  6
05756:  MOVWF  x76
05758:  MOVLW  1E
0575A:  MOVWF  x77
0575C:  CLRF   x78
0575E:  MOVLB  0
05760:  CALL   4EEE
....................             Menu=MenuAnt;glcd_fillScreen(OFF);n=0; 
05764:  MOVFF  66C,4C7
05768:  MOVLB  6
0576A:  CLRF   x73
0576C:  MOVLB  0
0576E:  CALL   14FE
05772:  MOVLB  4
05774:  BCF    x2E.3
....................             return 0; 
05776:  MOVLW  00
05778:  MOVWF  01
0577A:  MOVLB  0
0577C:  BRA    577E
0577E:  MOVLB  4
....................          } 
....................       } 
.................... } 
05780:  MOVLB  0
05782:  RETLW  00
....................  
.................... void glcd_imagen(int8 x) 
.................... { 
....................    char i,j; 
....................    signed char k;  
....................       
....................    if(x==3){ 
*
0585E:  MOVLB  6
05860:  MOVF   x6C,W
05862:  SUBLW  03
05864:  BNZ   590A
....................    for( i = 0 ; i < 64 ; i ++ ) 
05866:  CLRF   x6D
05868:  MOVF   x6D,W
0586A:  SUBLW  3F
0586C:  BNC   590A
....................    {  for( j = 0 ; j < 16 ; j ++) 
0586E:  CLRF   x6E
05870:  MOVF   x6E,W
05872:  SUBLW  0F
05874:  BNC   5906
....................       {  for(k=7;k>-1;k--) 
05876:  MOVLW  07
05878:  MOVWF  x6F
0587A:  MOVF   x6F,W
0587C:  XORLW  80
0587E:  SUBLW  7F
05880:  BC    5902
....................          {       
....................             if( bit_test(Bombillo[i][j] ,7-k ))  
05882:  CLRF   x74
05884:  MOVFF  66D,673
05888:  CLRF   x76
0588A:  MOVLW  10
0588C:  MOVWF  x75
0588E:  MOVLB  0
05890:  CALL   1910
05894:  MOVFF  02,671
05898:  MOVFF  01,670
0589C:  MOVLB  6
0589E:  MOVF   x6E,W
058A0:  ADDWF  01,W
058A2:  MOVWF  01
058A4:  MOVLW  00
058A6:  ADDWFC 02,W
058A8:  MOVWF  03
058AA:  MOVF   01,W
058AC:  MOVFF  FF2,670
058B0:  BCF    FF2.7
058B2:  MOVFF  03,FF7
058B6:  MOVLB  0
058B8:  CALL   02A6
058BC:  MOVLB  6
058BE:  BTFSC  x70.7
058C0:  BSF    FF2.7
058C2:  MOVWF  x70
058C4:  MOVLW  07
058C6:  BSF    FD8.0
058C8:  SUBFWB x6F,W
058CA:  MOVWF  x71
058CC:  MOVFF  670,00
058D0:  MOVF   x71,W
058D2:  MOVWF  01
058D4:  BZ    58DE
058D6:  BCF    FD8.0
058D8:  RRCF   00,F
058DA:  DECFSZ 01,F
058DC:  BRA    58D6
058DE:  BTFSS  00.0
058E0:  BRA    58FE
....................                glcd_pixel( j*8+k,i, ON ); 
058E2:  MOVF   x6E,W
058E4:  MULLW  08
058E6:  MOVF   FF3,W
058E8:  ADDWF  x6F,W
058EA:  MOVWF  x70
058EC:  MOVWF  x9F
058EE:  MOVFF  66D,6A0
058F2:  MOVLW  01
058F4:  MOVWF  xA1
058F6:  MOVLB  0
058F8:  CALL   4A7A
058FC:  MOVLB  6
....................          }   
058FE:  DECF   x6F,F
05900:  BRA    587A
....................       } 
05902:  INCF   x6E,F
05904:  BRA    5870
....................    } 
05906:  INCF   x6D,F
05908:  BRA    5868
....................    } 
....................     
....................    if(x==4){ 
0590A:  MOVF   x6C,W
0590C:  SUBLW  04
0590E:  BNZ   59B4
....................    for( i = 0 ; i < 64 ; i ++ ) 
05910:  CLRF   x6D
05912:  MOVF   x6D,W
05914:  SUBLW  3F
05916:  BNC   59B4
....................    {  for( j = 0 ; j < 16 ; j ++) 
05918:  CLRF   x6E
0591A:  MOVF   x6E,W
0591C:  SUBLW  0F
0591E:  BNC   59B0
....................       {  for(k=7;k>-1;k--) 
05920:  MOVLW  07
05922:  MOVWF  x6F
05924:  MOVF   x6F,W
05926:  XORLW  80
05928:  SUBLW  7F
0592A:  BC    59AC
....................          {       
....................             if( bit_test(Tomai[i][j] ,7-k ))  
0592C:  CLRF   x74
0592E:  MOVFF  66D,673
05932:  CLRF   x76
05934:  MOVLW  10
05936:  MOVWF  x75
05938:  MOVLB  0
0593A:  CALL   1910
0593E:  MOVFF  02,671
05942:  MOVFF  01,670
05946:  MOVLB  6
05948:  MOVF   x6E,W
0594A:  ADDWF  01,W
0594C:  MOVWF  01
0594E:  MOVLW  00
05950:  ADDWFC 02,W
05952:  MOVWF  03
05954:  MOVF   01,W
05956:  MOVFF  FF2,670
0595A:  BCF    FF2.7
0595C:  MOVFF  03,FF7
05960:  MOVLB  0
05962:  CALL   06BE
05966:  MOVLB  6
05968:  BTFSC  x70.7
0596A:  BSF    FF2.7
0596C:  MOVWF  x70
0596E:  MOVLW  07
05970:  BSF    FD8.0
05972:  SUBFWB x6F,W
05974:  MOVWF  x71
05976:  MOVFF  670,00
0597A:  MOVF   x71,W
0597C:  MOVWF  01
0597E:  BZ    5988
05980:  BCF    FD8.0
05982:  RRCF   00,F
05984:  DECFSZ 01,F
05986:  BRA    5980
05988:  BTFSS  00.0
0598A:  BRA    59A8
....................                glcd_pixel( j*8+k,i, ON ); 
0598C:  MOVF   x6E,W
0598E:  MULLW  08
05990:  MOVF   FF3,W
05992:  ADDWF  x6F,W
05994:  MOVWF  x70
05996:  MOVWF  x9F
05998:  MOVFF  66D,6A0
0599C:  MOVLW  01
0599E:  MOVWF  xA1
059A0:  MOVLB  0
059A2:  CALL   4A7A
059A6:  MOVLB  6
....................          }   
059A8:  DECF   x6F,F
059AA:  BRA    5924
....................       } 
059AC:  INCF   x6E,F
059AE:  BRA    591A
....................    } 
059B0:  INCF   x6D,F
059B2:  BRA    5912
....................    } 
....................     
....................    if(x==5){ 
059B4:  MOVF   x6C,W
059B6:  SUBLW  05
059B8:  BNZ   5A5E
....................    for( i = 0 ; i < 64 ; i ++ ) 
059BA:  CLRF   x6D
059BC:  MOVF   x6D,W
059BE:  SUBLW  3F
059C0:  BNC   5A5E
....................    {  for( j = 0 ; j < 16 ; j ++) 
059C2:  CLRF   x6E
059C4:  MOVF   x6E,W
059C6:  SUBLW  0F
059C8:  BNC   5A5A
....................       {  for(k=7;k>-1;k--) 
059CA:  MOVLW  07
059CC:  MOVWF  x6F
059CE:  MOVF   x6F,W
059D0:  XORLW  80
059D2:  SUBLW  7F
059D4:  BC    5A56
....................          {       
....................             if( bit_test(Ventilador[i][j] ,7-k ))  
059D6:  CLRF   x74
059D8:  MOVFF  66D,673
059DC:  CLRF   x76
059DE:  MOVLW  10
059E0:  MOVWF  x75
059E2:  MOVLB  0
059E4:  CALL   1910
059E8:  MOVFF  02,671
059EC:  MOVFF  01,670
059F0:  MOVLB  6
059F2:  MOVF   x6E,W
059F4:  ADDWF  01,W
059F6:  MOVWF  01
059F8:  MOVLW  00
059FA:  ADDWFC 02,W
059FC:  MOVWF  03
059FE:  MOVF   01,W
05A00:  MOVFF  FF2,670
05A04:  BCF    FF2.7
05A06:  MOVFF  03,FF7
05A0A:  MOVLB  0
05A0C:  CALL   0AD6
05A10:  MOVLB  6
05A12:  BTFSC  x70.7
05A14:  BSF    FF2.7
05A16:  MOVWF  x70
05A18:  MOVLW  07
05A1A:  BSF    FD8.0
05A1C:  SUBFWB x6F,W
05A1E:  MOVWF  x71
05A20:  MOVFF  670,00
05A24:  MOVF   x71,W
05A26:  MOVWF  01
05A28:  BZ    5A32
05A2A:  BCF    FD8.0
05A2C:  RRCF   00,F
05A2E:  DECFSZ 01,F
05A30:  BRA    5A2A
05A32:  BTFSS  00.0
05A34:  BRA    5A52
....................                glcd_pixel( j*8+k,i, ON ); 
05A36:  MOVF   x6E,W
05A38:  MULLW  08
05A3A:  MOVF   FF3,W
05A3C:  ADDWF  x6F,W
05A3E:  MOVWF  x70
05A40:  MOVWF  x9F
05A42:  MOVFF  66D,6A0
05A46:  MOVLW  01
05A48:  MOVWF  xA1
05A4A:  MOVLB  0
05A4C:  CALL   4A7A
05A50:  MOVLB  6
....................          }   
05A52:  DECF   x6F,F
05A54:  BRA    59CE
....................       } 
05A56:  INCF   x6E,F
05A58:  BRA    59C4
....................    } 
05A5A:  INCF   x6D,F
05A5C:  BRA    59BC
....................    } 
.................... } 
05A5E:  MOVLB  0
05A60:  RETLW  00
....................  
.................... Float LeerFlujoInFlow(int media) 
.................... { 
....................     InFlow_adc=sensores(1); 
*
043A0:  MOVLW  01
043A2:  MOVLB  6
043A4:  MOVWF  x7D
043A6:  MOVLB  0
043A8:  CALL   3204
043AC:  MOVFF  02,4DA
043B0:  MOVFF  01,4D9
....................        
....................     if(negativo==10) 
043B4:  MOVLB  4
043B6:  MOVF   xCA,W
043B8:  SUBLW  0A
043BA:  BNZ   4402
....................     { 
....................       x_uno=Inflow_adc+Diferencia; 
043BC:  MOVFF  4DA,6A2
043C0:  MOVFF  4D9,6A1
043C4:  MOVLB  0
043C6:  CALL   1932
043CA:  BCF    FD8.1
043CC:  MOVFF  03,6A4
043D0:  MOVFF  02,6A3
043D4:  MOVFF  01,6A2
043D8:  MOVFF  00,6A1
043DC:  MOVFF  526,6A8
043E0:  MOVFF  525,6A7
043E4:  MOVFF  524,6A6
043E8:  MOVFF  523,6A5
043EC:  CALL   1E4E
043F0:  MOVFF  03,52E
043F4:  MOVFF  02,52D
043F8:  MOVFF  01,52C
043FC:  MOVFF  00,52B
04400:  MOVLB  4
....................     } 
....................     if(negativo==20) 
04402:  MOVF   xCA,W
04404:  SUBLW  14
04406:  BNZ   444C
....................     { 
....................       x_uno=Inflow_adc-Diferencia; 
04408:  MOVFF  4DA,6A2
0440C:  MOVFF  4D9,6A1
04410:  MOVLB  0
04412:  CALL   1932
04416:  BSF    FD8.1
04418:  MOVFF  03,6A4
0441C:  MOVFF  02,6A3
04420:  MOVFF  01,6A2
04424:  MOVFF  00,6A1
04428:  MOVFF  526,6A8
0442C:  MOVFF  525,6A7
04430:  MOVFF  524,6A6
04434:  MOVFF  523,6A5
04438:  CALL   1E4E
0443C:  MOVFF  03,52E
04440:  MOVFF  02,52D
04444:  MOVFF  01,52C
04448:  MOVFF  00,52B
....................     } 
....................     Velocidad=(pow(x_uno,3)*a)+(pow(x_uno,2)*b)+(x_uno*c)+(d); 
0444C:  MOVFF  52E,674
04450:  MOVFF  52D,673
04454:  MOVFF  52C,672
04458:  MOVFF  52B,671
0445C:  MOVLB  6
0445E:  CLRF   x78
04460:  CLRF   x77
04462:  MOVLW  40
04464:  MOVWF  x76
04466:  MOVLW  80
04468:  MOVWF  x75
0446A:  MOVLB  0
0446C:  RCALL  4094
0446E:  MOVFF  00,66D
04472:  MOVFF  01,66E
04476:  MOVFF  02,66F
0447A:  MOVFF  03,670
0447E:  MOVFF  03,6A0
04482:  MOVFF  02,69F
04486:  MOVFF  01,69E
0448A:  MOVFF  00,69D
0448E:  MOVFF  54A,6A4
04492:  MOVFF  549,6A3
04496:  MOVFF  548,6A2
0449A:  MOVFF  547,6A1
0449E:  CALL   1AC6
044A2:  MOVFF  00,66D
044A6:  MOVFF  01,66E
044AA:  MOVFF  02,66F
044AE:  MOVFF  03,670
044B2:  MOVFF  52E,674
044B6:  MOVFF  52D,673
044BA:  MOVFF  52C,672
044BE:  MOVFF  52B,671
044C2:  MOVLB  6
044C4:  CLRF   x78
044C6:  CLRF   x77
044C8:  CLRF   x76
044CA:  MOVLW  80
044CC:  MOVWF  x75
044CE:  MOVLB  0
044D0:  RCALL  4094
044D2:  MOVFF  00,671
044D6:  MOVFF  01,672
044DA:  MOVFF  02,673
044DE:  MOVFF  03,674
044E2:  MOVFF  03,6A0
044E6:  MOVFF  02,69F
044EA:  MOVFF  01,69E
044EE:  MOVFF  00,69D
044F2:  MOVFF  54E,6A4
044F6:  MOVFF  54D,6A3
044FA:  MOVFF  54C,6A2
044FE:  MOVFF  54B,6A1
04502:  CALL   1AC6
04506:  MOVFF  FEA,672
0450A:  MOVFF  FE9,671
0450E:  BCF    FD8.1
04510:  MOVFF  670,6A4
04514:  MOVFF  66F,6A3
04518:  MOVFF  66E,6A2
0451C:  MOVFF  66D,6A1
04520:  MOVFF  03,6A8
04524:  MOVFF  02,6A7
04528:  MOVFF  01,6A6
0452C:  MOVFF  00,6A5
04530:  CALL   1E4E
04534:  MOVFF  672,FEA
04538:  MOVFF  671,FE9
0453C:  MOVFF  00,66D
04540:  MOVFF  01,66E
04544:  MOVFF  02,66F
04548:  MOVFF  03,670
0454C:  MOVFF  52E,6A0
04550:  MOVFF  52D,69F
04554:  MOVFF  52C,69E
04558:  MOVFF  52B,69D
0455C:  MOVFF  552,6A4
04560:  MOVFF  551,6A3
04564:  MOVFF  550,6A2
04568:  MOVFF  54F,6A1
0456C:  CALL   1AC6
04570:  MOVFF  FEA,674
04574:  MOVFF  FE9,673
04578:  BCF    FD8.1
0457A:  MOVFF  670,6A4
0457E:  MOVFF  66F,6A3
04582:  MOVFF  66E,6A2
04586:  MOVFF  66D,6A1
0458A:  MOVFF  03,6A8
0458E:  MOVFF  02,6A7
04592:  MOVFF  01,6A6
04596:  MOVFF  00,6A5
0459A:  CALL   1E4E
0459E:  MOVFF  674,FEA
045A2:  MOVFF  673,FE9
045A6:  MOVFF  00,66D
045AA:  MOVFF  01,66E
045AE:  MOVFF  02,66F
045B2:  MOVFF  03,670
045B6:  MOVFF  FEA,676
045BA:  MOVFF  FE9,675
045BE:  BCF    FD8.1
045C0:  MOVFF  03,6A4
045C4:  MOVFF  02,6A3
045C8:  MOVFF  01,6A2
045CC:  MOVFF  00,6A1
045D0:  MOVFF  556,6A8
045D4:  MOVFF  555,6A7
045D8:  MOVFF  554,6A6
045DC:  MOVFF  553,6A5
045E0:  CALL   1E4E
045E4:  MOVFF  676,FEA
045E8:  MOVFF  675,FE9
045EC:  MOVFF  03,52A
045F0:  MOVFF  02,529
045F4:  MOVFF  01,528
045F8:  MOVFF  00,527
....................     //Velocidad=Velocidad*correccion;//Ajuste de Temperatura 
....................      
....................     if(Velocidad<0.0) 
045FC:  MOVFF  52A,6A0
04600:  MOVFF  529,69F
04604:  MOVFF  528,69E
04608:  MOVFF  527,69D
0460C:  MOVLB  6
0460E:  CLRF   xA4
04610:  CLRF   xA3
04612:  CLRF   xA2
04614:  CLRF   xA1
04616:  MOVLB  0
04618:  CALL   1BBC
0461C:  BNC   4628
....................      {Velocidad=0.0;} 
0461E:  MOVLB  5
04620:  CLRF   x2A
04622:  CLRF   x29
04624:  CLRF   x28
04626:  CLRF   x27
....................       
....................      if(l>=media) 
04628:  MOVLB  6
0462A:  MOVF   x6C,W
0462C:  MOVLB  4
0462E:  SUBWF  xD0,W
04630:  BNC   4634
....................        {l=0;} 
04632:  CLRF   xD0
....................       
....................      promedio[l]=Velocidad;l++; 
04634:  MOVF   xD0,W
04636:  MULLW  04
04638:  MOVF   FF3,W
0463A:  CLRF   03
0463C:  ADDLW  57
0463E:  MOVWF  FE9
04640:  MOVLW  05
04642:  ADDWFC 03,W
04644:  MOVWF  FEA
04646:  MOVFF  527,FEF
0464A:  MOVFF  528,FEC
0464E:  MOVFF  529,FEC
04652:  MOVFF  52A,FEC
04656:  INCF   xD0,F
....................      Flujo=0; 
04658:  MOVLB  5
0465A:  CLRF   xBA
0465C:  CLRF   xB9
0465E:  CLRF   xB8
04660:  CLRF   xB7
....................         for(h=0;h<=(media-1);h++) 
04662:  MOVLB  4
04664:  CLRF   xD1
04666:  MOVLW  01
04668:  MOVLB  6
0466A:  SUBWF  x6C,W
0466C:  MOVLB  4
0466E:  SUBWF  xD1,W
04670:  BZ    4674
04672:  BC    46E4
....................         { 
....................            Flujo+=promedio[h]; 
04674:  MOVF   xD1,W
04676:  MULLW  04
04678:  MOVF   FF3,W
0467A:  CLRF   03
0467C:  ADDLW  57
0467E:  MOVWF  FE9
04680:  MOVLW  05
04682:  ADDWFC 03,W
04684:  MOVWF  FEA
04686:  MOVFF  FEF,00
0468A:  MOVFF  FEC,01
0468E:  MOVFF  FEC,02
04692:  MOVFF  FEC,03
04696:  MOVFF  FEA,66E
0469A:  MOVFF  FE9,66D
0469E:  BCF    FD8.1
046A0:  MOVFF  5BA,6A4
046A4:  MOVFF  5B9,6A3
046A8:  MOVFF  5B8,6A2
046AC:  MOVFF  5B7,6A1
046B0:  MOVFF  03,6A8
046B4:  MOVFF  02,6A7
046B8:  MOVFF  01,6A6
046BC:  MOVFF  00,6A5
046C0:  MOVLB  0
046C2:  CALL   1E4E
046C6:  MOVFF  66E,FEA
046CA:  MOVFF  66D,FE9
046CE:  MOVFF  03,5BA
046D2:  MOVFF  02,5B9
046D6:  MOVFF  01,5B8
046DA:  MOVFF  00,5B7
....................         }  
046DE:  MOVLB  4
046E0:  INCF   xD1,F
046E2:  BRA    4666
....................            Flujo=(Flujo/media)*Ajuste1;  
046E4:  MOVLB  6
046E6:  CLRF   xA2
046E8:  MOVFF  66C,6A1
046EC:  MOVLB  0
046EE:  CALL   1932
046F2:  MOVFF  5BA,6A0
046F6:  MOVFF  5B9,69F
046FA:  MOVFF  5B8,69E
046FE:  MOVFF  5B7,69D
04702:  MOVFF  03,6A4
04706:  MOVFF  02,6A3
0470A:  MOVFF  01,6A2
0470E:  MOVFF  00,6A1
04712:  CALL   1968
04716:  MOVFF  00,66D
0471A:  MOVFF  01,66E
0471E:  MOVFF  02,66F
04722:  MOVFF  03,670
04726:  MOVFF  03,6A0
0472A:  MOVFF  02,69F
0472E:  MOVFF  01,69E
04732:  MOVFF  00,69D
04736:  MOVFF  53A,6A4
0473A:  MOVFF  539,6A3
0473E:  MOVFF  538,6A2
04742:  MOVFF  537,6A1
04746:  CALL   1AC6
0474A:  MOVFF  03,5BA
0474E:  MOVFF  02,5B9
04752:  MOVFF  01,5B8
04756:  MOVFF  00,5B7
....................            return Flujo; 
0475A:  MOVFF  5B7,00
0475E:  MOVFF  5B8,01
04762:  MOVFF  5B9,02
04766:  MOVFF  5BA,03
.................... } 
0476A:  GOTO   6602 (RETURN)
....................  
....................  
....................  
....................  
.................... #int_TIMER1 
.................... void temp1s(void){ 
....................    //set_timer1(45612);  // 5 ms 5536 , Posiblemente cargar con 22144 debido a F=12MHz 
....................    set_timer1(40536); 
*
0139C:  MOVLW  9E
0139E:  MOVWF  FCF
013A0:  MOVLW  58
013A2:  MOVWF  FCE
....................    tiempos++; 
013A4:  MOVLB  5
013A6:  INCF   xD3,F
013A8:  BTFSC  FD8.2
013AA:  INCF   xD4,F
....................    if(UP) 
013AC:  BSF    F92.5
013AE:  BTFSC  F80.5
013B0:  BRA    13BC
....................       tup++; 
013B2:  MOVLB  4
013B4:  INCF   xE7,F
013B6:  BTFSC  FD8.2
013B8:  INCF   xE8,F
....................    else 
013BA:  BRA    13C2
....................       tup=0; 
013BC:  MOVLB  4
013BE:  CLRF   xE8
013C0:  CLRF   xE7
....................         
....................    if(DOWN) 
013C2:  BSF    F96.0
013C4:  BTFSC  F84.0
013C6:  BRA    13D0
....................       tdown++; 
013C8:  INCF   xE9,F
013CA:  BTFSC  FD8.2
013CC:  INCF   xEA,F
....................    else 
013CE:  BRA    13D4
....................       tdown=0; 
013D0:  CLRF   xEA
013D2:  CLRF   xE9
....................        
....................    if(RIGHT) 
013D4:  BSF    F96.1
013D6:  BTFSC  F84.1
013D8:  BRA    13E2
....................       tright++; 
013DA:  INCF   xEB,F
013DC:  BTFSC  FD8.2
013DE:  INCF   xEC,F
....................    else 
013E0:  BRA    13E6
....................       tright=0; 
013E2:  CLRF   xEC
013E4:  CLRF   xEB
....................      
....................    if(LEFT) 
013E6:  BSF    F96.2
013E8:  BTFSC  F84.2
013EA:  BRA    13F4
....................       tleft++; 
013EC:  INCF   xED,F
013EE:  BTFSC  FD8.2
013F0:  INCF   xEE,F
....................    else 
013F2:  BRA    13F8
....................       tleft=0; 
013F4:  CLRF   xEE
013F6:  CLRF   xED
....................           
....................    if(tiempos>=200){ 
013F8:  MOVLB  5
013FA:  MOVF   xD4,F
013FC:  BNZ   1404
013FE:  MOVF   xD3,W
01400:  SUBLW  C7
01402:  BC    1498
....................       tiempos=0; 
01404:  CLRF   xD4
01406:  CLRF   xD3
....................       imprimir=1;Lectura=1;tiemporeset++; 
01408:  MOVLB  4
0140A:  BSF    x2C.6
0140C:  BSF    x2E.2
0140E:  INCF   xCD,F
....................     
....................       if(flag_blower==1) 
01410:  BTFSS  x2C.7
01412:  BRA    141A
....................          minutos_trabajo++;  
01414:  INCF   xE3,F
01416:  BTFSC  FD8.2
01418:  INCF   xE4,F
....................    
....................       if(tiempo_purga==1 || Purga){                   
0141A:  BTFSC  x2D.5
0141C:  BRA    1422
0141E:  BTFSS  x2E.5
01420:  BRA    145A
....................          Tpurga[0]++; 
01422:  INCF   xF3,F
....................          if(Tpurga[0]>9){ 
01424:  BTFSC  xF3.7
01426:  BRA    1432
01428:  MOVF   xF3,W
0142A:  SUBLW  09
0142C:  BC    1432
....................             Tpurga[0]=0; 
0142E:  CLRF   xF3
....................             Tpurga[1]++; 
01430:  INCF   xF4,F
....................          } 
....................          if(Tpurga[1]>5){ 
01432:  BTFSC  xF4.7
01434:  BRA    1440
01436:  MOVF   xF4,W
01438:  SUBLW  05
0143A:  BC    1440
....................             Tpurga[1]=0; 
0143C:  CLRF   xF4
....................             Tpurga[2]++; 
0143E:  INCF   xF5,F
....................          } 
....................          if(Tpurga[2]>9){ 
01440:  BTFSC  xF5.7
01442:  BRA    144E
01444:  MOVF   xF5,W
01446:  SUBLW  09
01448:  BC    144E
....................             Tpurga[2]=0; 
0144A:  CLRF   xF5
....................             Tpurga[3]++; 
0144C:  INCF   xF6,F
....................          } 
....................          if(Tpurga[3]>5){ 
0144E:  BTFSC  xF6.7
01450:  BRA    145A
01452:  MOVF   xF6,W
01454:  SUBLW  05
01456:  BC    145A
....................             Tpurga[3]=0; 
01458:  CLRF   xF6
....................          } 
....................       } 
....................        
....................       if(tiempo_postpurga){ 
0145A:  BTFSS  x2E.0
0145C:  BRA    1496
....................          Tppurga[0]++; 
0145E:  INCF   xFB,F
....................          if(Tppurga[0]>9){ 
01460:  BTFSC  xFB.7
01462:  BRA    146E
01464:  MOVF   xFB,W
01466:  SUBLW  09
01468:  BC    146E
....................             Tppurga[0]=0; 
0146A:  CLRF   xFB
....................             Tppurga[1]++; 
0146C:  INCF   xFC,F
....................          } 
....................          if(Tppurga[1]>5){   
0146E:  BTFSC  xFC.7
01470:  BRA    147C
01472:  MOVF   xFC,W
01474:  SUBLW  05
01476:  BC    147C
....................             Tppurga[1]=0; 
01478:  CLRF   xFC
....................             Tppurga[2]++; 
0147A:  INCF   xFD,F
....................          } 
....................          if(Tppurga[2]>9){ 
0147C:  BTFSC  xFD.7
0147E:  BRA    148A
01480:  MOVF   xFD,W
01482:  SUBLW  09
01484:  BC    148A
....................             Tppurga[2]=0; 
01486:  CLRF   xFD
....................             Tppurga[3]++; 
01488:  INCF   xFE,F
....................          } 
....................          if(Tppurga[3]>5){ 
0148A:  BTFSC  xFE.7
0148C:  BRA    1496
0148E:  MOVF   xFE,W
01490:  SUBLW  05
01492:  BC    1496
....................             Tppurga[3]=0; 
01494:  CLRF   xFE
01496:  MOVLB  5
....................          } 
....................       } 
....................    } 
.................... } 
....................  
01498:  BCF    F9E.0
0149A:  MOVLB  0
0149C:  GOTO   0054
.................... void main(){ 
*
06054:  CLRF   FF8
06056:  BCF    FD0.7
06058:  BSF    07.7
0605A:  CLRF   FEA
0605C:  CLRF   FE9
0605E:  MOVLB  4
06060:  BCF    x2C.0
06062:  BCF    x2C.1
06064:  BCF    x2C.2
06066:  BCF    x2C.3
06068:  BCF    x2C.4
0606A:  BCF    x2C.5
0606C:  BCF    x2C.6
0606E:  BCF    x2C.7
06070:  BCF    x2D.0
06072:  BCF    x2D.1
06074:  BCF    x2D.2
06076:  BCF    x2D.3
06078:  BCF    x2D.4
0607A:  BCF    x2D.5
0607C:  BCF    x2D.6
0607E:  BCF    x2D.7
06080:  BCF    x2E.0
06082:  BCF    x2E.1
06084:  BCF    x2E.2
06086:  BCF    x2E.3
06088:  MOVLW  C8
0608A:  MOVWF  xC7
0608C:  MOVLW  01
0608E:  MOVWF  xC8
06090:  MOVWF  xC9
06092:  MOVLW  0A
06094:  MOVWF  xCA
06096:  CLRF   xCB
06098:  CLRF   xCC
0609A:  CLRF   xCD
0609C:  CLRF   xCE
0609E:  CLRF   xCF
060A0:  CLRF   xD0
060A2:  CLRF   xD1
060A4:  CLRF   xD2
060A6:  CLRF   xD3
060A8:  MOVWF  xD4
060AA:  CLRF   xD5
060AC:  CLRF   xD6
060AE:  CLRF   xD7
060B0:  CLRF   xD8
060B2:  CLRF   xDA
060B4:  CLRF   xD9
060B6:  CLRF   xDC
060B8:  CLRF   xDB
060BA:  CLRF   xDE
060BC:  CLRF   xDD
060BE:  CLRF   xE0
060C0:  CLRF   xDF
060C2:  CLRF   xE2
060C4:  CLRF   xE1
060C6:  CLRF   xE4
060C8:  CLRF   xE3
060CA:  CLRF   xE6
060CC:  CLRF   xE5
060CE:  CLRF   xE8
060D0:  CLRF   xE7
060D2:  CLRF   xEA
060D4:  CLRF   xE9
060D6:  CLRF   xEC
060D8:  CLRF   xEB
060DA:  CLRF   xEE
060DC:  CLRF   xED
060DE:  CLRF   xF0
060E0:  CLRF   xEF
060E2:  CLRF   xF2
060E4:  CLRF   xF1
060E6:  MOVLB  5
060E8:  CLRF   x1A
060EA:  CLRF   x19
060EC:  CLRF   x18
060EE:  CLRF   x17
060F0:  CLRF   x1E
060F2:  CLRF   x1D
060F4:  CLRF   x1C
060F6:  CLRF   x1B
060F8:  CLRF   x22
060FA:  CLRF   x21
060FC:  CLRF   x20
060FE:  CLRF   x1F
06100:  CLRF   x26
06102:  CLRF   x25
06104:  CLRF   x24
06106:  CLRF   x23
06108:  CLRF   x2A
0610A:  CLRF   x29
0610C:  CLRF   x28
0610E:  CLRF   x27
06110:  CLRF   x2E
06112:  CLRF   x2D
06114:  CLRF   x2C
06116:  CLRF   x2B
06118:  CLRF   x32
0611A:  CLRF   x31
0611C:  CLRF   x30
0611E:  CLRF   x2F
06120:  CLRF   x36
06122:  CLRF   x35
06124:  CLRF   x34
06126:  CLRF   x33
06128:  CLRF   x3A
0612A:  CLRF   x39
0612C:  CLRF   x38
0612E:  CLRF   x37
06130:  CLRF   x3E
06132:  CLRF   x3D
06134:  CLRF   x3C
06136:  CLRF   x3B
06138:  CLRF   x42
0613A:  CLRF   x41
0613C:  CLRF   x40
0613E:  CLRF   x3F
06140:  CLRF   x46
06142:  CLRF   x45
06144:  CLRF   x44
06146:  CLRF   x43
06148:  MOVLW  29
0614A:  MOVWF  x4A
0614C:  MOVLW  B6
0614E:  MOVWF  x49
06150:  MOVLW  20
06152:  MOVWF  x48
06154:  MOVLW  6E
06156:  MOVWF  x47
06158:  MOVLW  EE
0615A:  MOVWF  x4E
0615C:  MOVLW  7D
0615E:  MOVWF  x4D
06160:  MOVLW  EE
06162:  MOVWF  x4C
06164:  MOVLW  77
06166:  MOVWF  x4B
06168:  MOVLW  ED
0616A:  MOVWF  x52
0616C:  MOVLW  47
0616E:  MOVWF  x51
06170:  MOVLW  6D
06172:  MOVWF  x50
06174:  MOVLW  7F
06176:  MOVWF  x4F
06178:  MOVLW  1A
0617A:  MOVWF  x56
0617C:  MOVLW  D1
0617E:  MOVWF  x55
06180:  MOVLW  9C
06182:  MOVWF  x54
06184:  MOVLW  86
06186:  MOVWF  x53
06188:  CLRF   xBA
0618A:  CLRF   xB9
0618C:  CLRF   xB8
0618E:  CLRF   xB7
06190:  CLRF   xBE
06192:  CLRF   xBD
06194:  MOVLW  50
06196:  MOVWF  xBC
06198:  MOVLW  86
0619A:  MOVWF  xBB
0619C:  CLRF   xC2
0619E:  CLRF   xC1
061A0:  CLRF   xC0
061A2:  CLRF   xBF
061A4:  CLRF   xC6
061A6:  CLRF   xC5
061A8:  CLRF   xC4
061AA:  CLRF   xC3
061AC:  CLRF   xCA
061AE:  CLRF   xC9
061B0:  CLRF   xC8
061B2:  CLRF   xC7
061B4:  CLRF   xCE
061B6:  CLRF   xCD
061B8:  CLRF   xCC
061BA:  MOVLW  80
061BC:  MOVWF  xCB
061BE:  CLRF   xD0
061C0:  CLRF   xCF
061C2:  CLRF   xD2
061C4:  CLRF   xD1
061C6:  CLRF   xD4
061C8:  CLRF   xD3
061CA:  CLRF   xD5
061CC:  CLRF   xD6
061CE:  CLRF   xD7
061D0:  CLRF   xD8
061D2:  MOVLB  4
061D4:  BCF    x2E.4
061D6:  BCF    x2E.5
061D8:  MOVLB  5
061DA:  CLRF   xDA
061DC:  CLRF   xD9
061DE:  CLRF   xDB
061E0:  CLRF   xDC
061E2:  CLRF   xE0
061E4:  CLRF   xDF
061E6:  CLRF   xDE
061E8:  CLRF   xDD
061EA:  CLRF   xE4
061EC:  CLRF   xE3
061EE:  CLRF   xE2
061F0:  CLRF   xE1
061F2:  MOVLB  6
061F4:  CLRF   x69
061F6:  CLRF   x6A
061F8:  CLRF   x6B
061FA:  MOVF   FC1,W
061FC:  ANDLW  C0
061FE:  IORLW  0F
06200:  MOVWF  FC1
06202:  MOVLW  07
06204:  MOVWF  FB4
06206:  MOVLB  4
06208:  CLRF   x2A
0620A:  CLRF   x2B
0620C:  MOVLW  4A
0620E:  MOVWF  x2F
06210:  MOVLW  50
06212:  MOVWF  x30
06214:  MOVLW  20
06216:  MOVWF  x31
06218:  MOVLW  49
0621A:  MOVWF  x32
0621C:  MOVLW  6E
0621E:  MOVWF  x33
06220:  MOVLW  67
06222:  MOVWF  x34
06224:  MOVLW  6C
06226:  MOVWF  x35
06228:  MOVLW  6F
0622A:  MOVWF  x36
0622C:  MOVLW  62
0622E:  MOVWF  x37
06230:  MOVLW  61
06232:  MOVWF  x38
06234:  MOVLW  6C
06236:  MOVWF  x39
06238:  CLRF   x3A
0623A:  MOVLW  43
0623C:  MOVWF  x3B
0623E:  MOVLW  61
06240:  MOVWF  x3C
06242:  MOVLW  62
06244:  MOVWF  x3D
06246:  MOVLW  69
06248:  MOVWF  x3E
0624A:  MOVLW  6E
0624C:  MOVWF  x3F
0624E:  MOVLW  61
06250:  MOVWF  x40
06252:  MOVLW  20
06254:  MOVWF  x41
06256:  MOVLW  45
06258:  MOVWF  x42
0625A:  MOVLW  78
0625C:  MOVWF  x43
0625E:  MOVLW  74
06260:  MOVWF  x44
06262:  MOVLW  72
06264:  MOVWF  x45
06266:  MOVLW  61
06268:  MOVWF  x46
0626A:  MOVLW  63
0626C:  MOVWF  x47
0626E:  MOVLW  74
06270:  MOVWF  x48
06272:  MOVLW  6F
06274:  MOVWF  x49
06276:  MOVLW  72
06278:  MOVWF  x4A
0627A:  MOVLW  61
0627C:  MOVWF  x4B
0627E:  CLRF   x4C
06280:  MOVLW  3A
06282:  MOVWF  x4D
06284:  CLRF   x4E
06286:  MOVLW  55
06288:  MOVWF  x4F
0628A:  MOVLW  56
0628C:  MOVWF  x50
0628E:  CLRF   x51
06290:  MOVLW  53
06292:  MOVWF  x52
06294:  MOVLW  69
06296:  MOVWF  x53
06298:  MOVLW  6E
0629A:  MOVWF  x54
0629C:  MOVLW  20
0629E:  MOVWF  x55
062A0:  MOVLW  44
062A2:  MOVWF  x56
062A4:  MOVLW  75
062A6:  MOVWF  x57
062A8:  MOVLW  63
062AA:  MOVWF  x58
062AC:  MOVLW  74
062AE:  MOVWF  x59
062B0:  MOVLW  6F
062B2:  MOVWF  x5A
062B4:  MOVLW  73
062B6:  MOVWF  x5B
062B8:  CLRF   x5C
062BA:  MOVLW  54
062BC:  MOVWF  x5D
062BE:  MOVLW  69
062C0:  MOVWF  x5E
062C2:  MOVLW  65
062C4:  MOVWF  x5F
062C6:  MOVLW  6D
062C8:  MOVWF  x60
062CA:  MOVLW  70
062CC:  MOVWF  x61
062CE:  MOVLW  6F
062D0:  MOVWF  x62
062D2:  MOVLW  20
062D4:  MOVWF  x63
062D6:  MOVLW  64
062D8:  MOVWF  x64
062DA:  MOVLW  65
062DC:  MOVWF  x65
062DE:  MOVLW  20
062E0:  MOVWF  x66
062E2:  MOVLW  50
062E4:  MOVWF  x67
062E6:  MOVLW  75
062E8:  MOVWF  x68
062EA:  MOVLW  72
062EC:  MOVWF  x69
062EE:  MOVLW  67
062F0:  MOVWF  x6A
062F2:  MOVLW  61
062F4:  MOVWF  x6B
062F6:  CLRF   x6C
062F8:  MOVLW  56
062FA:  MOVWF  x6D
062FC:  MOVLW  65
062FE:  MOVWF  x6E
06300:  MOVLW  6C
06302:  MOVWF  x6F
06304:  MOVLW  3A
06306:  MOVWF  x70
06308:  CLRF   x71
0630A:  MOVLW  54
0630C:  MOVWF  x72
0630E:  MOVLW  65
06310:  MOVWF  x73
06312:  MOVLW  6D
06314:  MOVWF  x74
06316:  MOVLW  70
06318:  MOVWF  x75
0631A:  MOVLW  65
0631C:  MOVWF  x76
0631E:  MOVLW  72
06320:  MOVWF  x77
06322:  MOVLW  61
06324:  MOVWF  x78
06326:  MOVLW  74
06328:  MOVWF  x79
0632A:  MOVLW  75
0632C:  MOVWF  x7A
0632E:  MOVLW  72
06330:  MOVWF  x7B
06332:  MOVLW  61
06334:  MOVWF  x7C
06336:  CLRF   x7D
06338:  MOVLW  46
0633A:  MOVWF  x7E
0633C:  MOVLW  61
0633E:  MOVWF  x7F
06340:  MOVLW  62
06342:  MOVWF  x80
06344:  MOVLW  72
06346:  MOVWF  x81
06348:  MOVLW  69
0634A:  MOVWF  x82
0634C:  MOVLW  63
0634E:  MOVWF  x83
06350:  MOVLW  61
06352:  MOVWF  x84
06354:  MOVLW  3A
06356:  MOVWF  x85
06358:  MOVLW  32
0635A:  MOVWF  x86
0635C:  MOVLW  30
0635E:  MOVWF  x87
06360:  MOVLW  38
06362:  MOVWF  x88
06364:  MOVLW  2E
06366:  MOVWF  x89
06368:  MOVLW  30
0636A:  MOVWF  x8A
0636C:  CLRF   x8B
0636E:  MOVLW  41
06370:  MOVWF  x8C
06372:  MOVLW  63
06374:  MOVWF  x8D
06376:  MOVLW  74
06378:  MOVWF  x8E
0637A:  MOVLW  75
0637C:  MOVWF  x8F
0637E:  MOVLW  61
06380:  MOVWF  x90
06382:  MOVLW  6C
06384:  MOVWF  x91
06386:  MOVLW  3A
06388:  MOVWF  x92
0638A:  CLRF   x93
0638C:  MOVLW  41
0638E:  MOVWF  x94
06390:  MOVLW  6A
06392:  MOVWF  x95
06394:  MOVLW  75
06396:  MOVWF  x96
06398:  MOVLW  73
0639A:  MOVWF  x97
0639C:  MOVLW  74
0639E:  MOVWF  x98
063A0:  MOVLW  65
063A2:  MOVWF  x99
063A4:  MOVLW  3A
063A6:  MOVWF  x9A
063A8:  CLRF   x9B
063AA:  MOVLW  54
063AC:  MOVWF  x9C
063AE:  MOVLW  2E
063B0:  MOVWF  x9D
063B2:  MOVLW  20
063B4:  MOVWF  x9E
063B6:  MOVLW  46
063B8:  MOVWF  x9F
063BA:  MOVLW  69
063BC:  MOVWF  xA0
063BE:  MOVLW  6C
063C0:  MOVWF  xA1
063C2:  MOVLW  74
063C4:  MOVWF  xA2
063C6:  MOVLW  72
063C8:  MOVWF  xA3
063CA:  MOVLW  6F
063CC:  MOVWF  xA4
063CE:  MOVLW  3A
063D0:  MOVWF  xA5
063D2:  CLRF   xA6
063D4:  MOVLW  46
063D6:  MOVWF  xA7
063D8:  MOVLW  61
063DA:  MOVWF  xA8
063DC:  MOVLW  62
063DE:  MOVWF  xA9
063E0:  MOVLW  72
063E2:  MOVWF  xAA
063E4:  MOVLW  69
063E6:  MOVWF  xAB
063E8:  MOVLW  63
063EA:  MOVWF  xAC
063EC:  MOVLW  61
063EE:  MOVWF  xAD
063F0:  MOVLW  3A
063F2:  MOVWF  xAE
063F4:  MOVLW  32
063F6:  MOVWF  xAF
063F8:  MOVLW  33
063FA:  MOVWF  xB0
063FC:  MOVLW  35
063FE:  MOVWF  xB1
06400:  MOVLW  2E
06402:  MOVWF  xB2
06404:  MOVLW  30
06406:  MOVWF  xB3
06408:  CLRF   xB4
0640A:  MOVLW  21
0640C:  MOVWF  xB5
0640E:  MOVLW  46
06410:  MOVWF  xB6
06412:  MOVLW  69
06414:  MOVWF  xB7
06416:  MOVLW  6C
06418:  MOVWF  xB8
0641A:  MOVLW  74
0641C:  MOVWF  xB9
0641E:  MOVLW  72
06420:  MOVWF  xBA
06422:  MOVLW  6F
06424:  MOVWF  xBB
06426:  MOVLW  20
06428:  MOVWF  xBC
0642A:  MOVLW  53
0642C:  MOVWF  xBD
0642E:  MOVLW  61
06430:  MOVWF  xBE
06432:  MOVLW  74
06434:  MOVWF  xBF
06436:  MOVLW  75
06438:  MOVWF  xC0
0643A:  MOVLW  72
0643C:  MOVWF  xC1
0643E:  MOVLW  61
06440:  MOVWF  xC2
06442:  MOVLW  64
06444:  MOVWF  xC3
06446:  MOVLW  6F
06448:  MOVWF  xC4
0644A:  MOVLW  21
0644C:  MOVWF  xC5
0644E:  CLRF   xC6
06450:  CLRF   xF3
06452:  CLRF   xF4
06454:  CLRF   xF5
06456:  CLRF   xF6
06458:  MOVLW  09
0645A:  MOVWF  xF7
0645C:  CLRF   xF8
0645E:  CLRF   xF9
06460:  CLRF   xFA
06462:  CLRF   xFB
06464:  CLRF   xFC
06466:  CLRF   xFD
06468:  CLRF   xFE
0646A:  MOVWF  xFF
0646C:  MOVLB  5
0646E:  CLRF   x00
06470:  CLRF   x01
06472:  CLRF   x02
06474:  CLRF   x03
06476:  CLRF   x04
06478:  CLRF   x05
0647A:  CLRF   x06
0647C:  CLRF   x07
0647E:  CLRF   x08
06480:  CLRF   x09
06482:  CLRF   x0A
06484:  CLRF   x0B
06486:  CLRF   x0C
06488:  CLRF   x0D
0648A:  CLRF   x0E
0648C:  CLRF   x0F
0648E:  CLRF   x10
06490:  CLRF   x11
06492:  CLRF   x12
06494:  CLRF   x13
06496:  CLRF   x14
06498:  CLRF   x15
0649A:  CLRF   x16
0649C:  CLRF   x57
0649E:  CLRF   x58
064A0:  CLRF   x59
064A2:  CLRF   x5A
064A4:  CLRF   x5B
064A6:  CLRF   x5C
064A8:  CLRF   x5D
064AA:  CLRF   x5E
064AC:  CLRF   x5F
064AE:  CLRF   x60
064B0:  CLRF   x61
064B2:  CLRF   x62
064B4:  CLRF   x63
064B6:  CLRF   x64
064B8:  CLRF   x65
064BA:  CLRF   x66
064BC:  CLRF   x67
064BE:  CLRF   x68
064C0:  CLRF   x69
064C2:  CLRF   x6A
064C4:  CLRF   x6B
064C6:  CLRF   x6C
064C8:  CLRF   x6D
064CA:  CLRF   x6E
064CC:  CLRF   x6F
064CE:  CLRF   x70
064D0:  CLRF   x71
064D2:  CLRF   x72
064D4:  CLRF   x73
064D6:  CLRF   x74
064D8:  CLRF   x75
064DA:  CLRF   x76
064DC:  CLRF   x77
064DE:  CLRF   x78
064E0:  CLRF   x79
064E2:  CLRF   x7A
064E4:  CLRF   x7B
064E6:  CLRF   x7C
064E8:  CLRF   x7D
064EA:  CLRF   x7E
064EC:  CLRF   x7F
064EE:  CLRF   x80
064F0:  CLRF   x81
064F2:  CLRF   x82
064F4:  CLRF   x83
064F6:  CLRF   x84
064F8:  CLRF   x85
064FA:  CLRF   x86
064FC:  CLRF   x87
064FE:  CLRF   x88
06500:  CLRF   x89
06502:  CLRF   x8A
06504:  CLRF   x8B
06506:  CLRF   x8C
06508:  CLRF   x8D
0650A:  CLRF   x8E
0650C:  CLRF   x8F
0650E:  CLRF   x90
06510:  CLRF   x91
06512:  CLRF   x92
06514:  CLRF   x93
06516:  CLRF   x94
06518:  CLRF   x95
0651A:  CLRF   x96
0651C:  CLRF   x97
0651E:  CLRF   x98
06520:  CLRF   x99
06522:  CLRF   x9A
06524:  CLRF   x9B
06526:  CLRF   x9C
06528:  CLRF   x9D
0652A:  CLRF   x9E
0652C:  CLRF   x9F
0652E:  CLRF   xA0
06530:  CLRF   xA1
06532:  CLRF   xA2
06534:  CLRF   xA3
06536:  CLRF   xA4
06538:  CLRF   xA5
0653A:  CLRF   xA6
0653C:  CLRF   xA7
0653E:  CLRF   xA8
06540:  CLRF   xA9
06542:  CLRF   xAA
06544:  CLRF   xAB
06546:  CLRF   xAC
06548:  CLRF   xAD
0654A:  CLRF   xAE
0654C:  CLRF   xAF
0654E:  CLRF   xB0
06550:  CLRF   xB1
06552:  CLRF   xB2
06554:  CLRF   xB3
06556:  CLRF   xB4
06558:  CLRF   xB5
0655A:  CLRF   xB6
....................    delay_ms(1000); 
0655C:  MOVLW  04
0655E:  MOVLB  6
06560:  MOVWF  x6C
06562:  MOVLW  FA
06564:  MOVWF  x80
06566:  MOVLB  0
06568:  CALL   14A0
0656C:  MOVLB  6
0656E:  DECFSZ x6C,F
06570:  BRA    6562
....................    for (posicion=0;posicion<0x10;posicion++){ 
06572:  CLRF   x6B
06574:  MOVF   x6B,W
06576:  SUBLW  0F
06578:  BNC   658E
....................       SlaveA0Tx[posicion] = 0x00; 
0657A:  CLRF   03
0657C:  MOVF   x6B,W
0657E:  ADDLW  E5
06580:  MOVWF  FE9
06582:  MOVLW  05
06584:  ADDWFC 03,W
06586:  MOVWF  FEA
06588:  CLRF   FEF
....................    } 
0658A:  INCF   x6B,F
0658C:  BRA    6574
....................    Motor_off; 
0658E:  BSF    F8B.1
06590:  BCF    F94.1
....................    LuzBlanca_off; 
06592:  BSF    F8B.2
06594:  BCF    F94.2
....................    setup_timer_1(T1_INTERNAL|T1_DIV_BY_1); 
06596:  MOVLW  85
06598:  MOVWF  FCD
....................    enable_interrupts(INT_TIMER1); 
0659A:  BSF    F9D.0
....................    setup_adc_ports(AN0_TO_AN2); 
0659C:  MOVF   FC1,W
0659E:  ANDLW  C0
065A0:  IORLW  0C
065A2:  MOVWF  FC1
....................    setup_adc(ADC_CLOCK_DIV_64); 
065A4:  MOVF   FC0,W
065A6:  ANDLW  C0
065A8:  IORLW  06
065AA:  MOVWF  FC0
065AC:  BSF    FC0.7
065AE:  BSF    FC2.0
....................    enable_interrupts(global);   
065B0:  MOVLW  C0
065B2:  IORWF  FF2,F
....................    Motor_off; 
065B4:  BSF    F8B.1
065B6:  BCF    F94.1
....................    glcd_init(ON); 
065B8:  MOVLW  01
065BA:  MOVWF  x6C
065BC:  MOVLB  0
065BE:  CALL   1610
....................    Menu=200; 
065C2:  MOVLW  C8
065C4:  MOVLB  4
065C6:  MOVWF  xC7
....................    LuzBlanca_off;Alarma_off;Aux_off; 
065C8:  BSF    F8B.2
065CA:  BCF    F94.2
065CC:  BCF    F8B.5
065CE:  BCF    F94.5
065D0:  BCF    F8B.0
065D2:  BCF    F94.0
....................    VelocidadMotor(0); 
065D4:  MOVLB  6
065D6:  CLRF   x6C
065D8:  MOVLB  0
065DA:  CALL   1D34
....................    Motor_off; 
065DE:  BSF    F8B.1
065E0:  BCF    F94.1
....................    LeeEEPROM(); // Lectura de variables almacenadas en la EEPROM  
065E2:  GOTO   20C6
....................    LimitaValores(); 
065E6:  GOTO   286E
....................     
....................    while(true){  
....................    glcd_update(); 
065EA:  CALL   1558
.................... //**Actualizacin de Lectura de Sensores**//    
....................    if(Lectura==1){ 
065EE:  MOVLB  4
065F0:  BTFSS  x2E.2
065F2:  BRA    6638
....................       Lectura=0; 
065F4:  BCF    x2E.2
....................       InFlow=LeerFlujoInFlow(8); 
065F6:  MOVLW  08
065F8:  MOVLB  6
065FA:  MOVWF  x6C
065FC:  MOVLB  0
065FE:  GOTO   43A0
06602:  MOVFF  03,51A
06606:  MOVFF  02,519
0660A:  MOVFF  01,518
0660E:  MOVFF  00,517
....................       Temperatura=leeTemperatura(5); 
06612:  MOVLW  05
06614:  MOVLB  6
06616:  MOVWF  x6C
06618:  MOVLB  0
0661A:  GOTO   476E
0661E:  MOVFF  03,6A0
06622:  MOVFF  02,69F
06626:  MOVFF  01,69E
0662A:  MOVFF  00,69D
0662E:  CALL   1C36
06632:  MOVFF  01,5D8
06636:  MOVLB  4
....................    } 
.................... //----------------------------------------// 
....................  
.................... //**Contador de Tiempo de Trabajo del filtro**// 
....................    if(minutos_trabajo>=3600){ // Tiempo de Trabajo 
06638:  MOVF   xE4,W
0663A:  SUBLW  0D
0663C:  BTFSC  FD8.0
0663E:  BRA    67E6
06640:  XORLW  FF
06642:  BNZ   664C
06644:  MOVF   xE3,W
06646:  SUBLW  0F
06648:  BTFSC  FD8.0
0664A:  BRA    67E6
....................       minutos_trabajo=0; //Minutos Trabajo realmente son segundos. 
0664C:  CLRF   xE4
0664E:  CLRF   xE3
....................       write_eeprom(33,make8(minutos_trabajo,0)); 
06650:  MOVFF  4E3,66C
06654:  CLRF   FAA
06656:  MOVLW  21
06658:  MOVWF  FA9
0665A:  MOVFF  66C,FA8
0665E:  BCF    FA6.6
06660:  BCF    FA6.7
06662:  BSF    FA6.2
06664:  MOVF   FF2,W
06666:  MOVWF  00
06668:  BCF    FF2.7
0666A:  MOVLB  F
0666C:  MOVLW  55
0666E:  MOVWF  FA7
06670:  MOVLW  AA
06672:  MOVWF  FA7
06674:  BSF    FA6.1
06676:  BTFSC  FA6.1
06678:  BRA    6676
0667A:  BCF    FA6.2
0667C:  MOVF   00,W
0667E:  IORWF  FF2,F
....................       delay_ms(20); 
06680:  MOVLW  14
06682:  MOVLB  6
06684:  MOVWF  x80
06686:  MOVLB  0
06688:  CALL   14A0
....................       write_eeprom(34,make8(minutos_trabajo,1)); 
0668C:  MOVFF  4E4,66C
06690:  CLRF   FAA
06692:  MOVLW  22
06694:  MOVWF  FA9
06696:  MOVFF  66C,FA8
0669A:  BCF    FA6.6
0669C:  BCF    FA6.7
0669E:  BSF    FA6.2
066A0:  MOVF   FF2,W
066A2:  MOVWF  00
066A4:  BCF    FF2.7
066A6:  MOVLB  F
066A8:  MOVLW  55
066AA:  MOVWF  FA7
066AC:  MOVLW  AA
066AE:  MOVWF  FA7
066B0:  BSF    FA6.1
066B2:  BTFSC  FA6.1
066B4:  BRA    66B2
066B6:  BCF    FA6.2
066B8:  MOVF   00,W
066BA:  IORWF  FF2,F
....................       delay_ms(20); 
066BC:  MOVLW  14
066BE:  MOVLB  6
066C0:  MOVWF  x80
066C2:  MOVLB  0
066C4:  CALL   14A0
....................       Ttrabajo[0]++; 
066C8:  MOVLB  5
066CA:  INCF   x0B,F
....................       if(Ttrabajo[0]>9){ 
066CC:  BTFSC  x0B.7
066CE:  BRA    66DA
066D0:  MOVF   x0B,W
066D2:  SUBLW  09
066D4:  BC    66DA
....................          Ttrabajo[0]=0; 
066D6:  CLRF   x0B
....................          Ttrabajo[1]++; 
066D8:  INCF   x0C,F
....................       } 
....................       if(Ttrabajo[1]>9){ 
066DA:  BTFSC  x0C.7
066DC:  BRA    66E8
066DE:  MOVF   x0C,W
066E0:  SUBLW  09
066E2:  BC    66E8
....................          Ttrabajo[1]=0; 
066E4:  CLRF   x0C
....................          Ttrabajo[2]++; 
066E6:  INCF   x0D,F
....................       } 
....................       if(Ttrabajo[2]>9){ 
066E8:  BTFSC  x0D.7
066EA:  BRA    66F6
066EC:  MOVF   x0D,W
066EE:  SUBLW  09
066F0:  BC    66F6
....................          Ttrabajo[2]=0; 
066F2:  CLRF   x0D
....................          Ttrabajo[3]++; 
066F4:  INCF   x0E,F
....................       } 
....................       if(Ttrabajo[3]>9){ 
066F6:  BTFSC  x0E.7
066F8:  BRA    6702
066FA:  MOVF   x0E,W
066FC:  SUBLW  09
066FE:  BC    6702
....................          Ttrabajo[3]=0; 
06700:  CLRF   x0E
....................       } 
....................       write_eeprom(16,Ttrabajo[0]); 
06702:  CLRF   FAA
06704:  MOVLW  10
06706:  MOVWF  FA9
06708:  MOVFF  50B,FA8
0670C:  BCF    FA6.6
0670E:  BCF    FA6.7
06710:  BSF    FA6.2
06712:  MOVF   FF2,W
06714:  MOVWF  00
06716:  BCF    FF2.7
06718:  MOVLB  F
0671A:  MOVLW  55
0671C:  MOVWF  FA7
0671E:  MOVLW  AA
06720:  MOVWF  FA7
06722:  BSF    FA6.1
06724:  BTFSC  FA6.1
06726:  BRA    6724
06728:  BCF    FA6.2
0672A:  MOVF   00,W
0672C:  IORWF  FF2,F
....................       delay_ms(20); 
0672E:  MOVLW  14
06730:  MOVLB  6
06732:  MOVWF  x80
06734:  MOVLB  0
06736:  CALL   14A0
....................       write_eeprom(17,Ttrabajo[1]); 
0673A:  CLRF   FAA
0673C:  MOVLW  11
0673E:  MOVWF  FA9
06740:  MOVFF  50C,FA8
06744:  BCF    FA6.6
06746:  BCF    FA6.7
06748:  BSF    FA6.2
0674A:  MOVF   FF2,W
0674C:  MOVWF  00
0674E:  BCF    FF2.7
06750:  MOVLB  F
06752:  MOVLW  55
06754:  MOVWF  FA7
06756:  MOVLW  AA
06758:  MOVWF  FA7
0675A:  BSF    FA6.1
0675C:  BTFSC  FA6.1
0675E:  BRA    675C
06760:  BCF    FA6.2
06762:  MOVF   00,W
06764:  IORWF  FF2,F
....................       delay_ms(20); 
06766:  MOVLW  14
06768:  MOVLB  6
0676A:  MOVWF  x80
0676C:  MOVLB  0
0676E:  CALL   14A0
....................       write_eeprom(18,Ttrabajo[2]); 
06772:  CLRF   FAA
06774:  MOVLW  12
06776:  MOVWF  FA9
06778:  MOVFF  50D,FA8
0677C:  BCF    FA6.6
0677E:  BCF    FA6.7
06780:  BSF    FA6.2
06782:  MOVF   FF2,W
06784:  MOVWF  00
06786:  BCF    FF2.7
06788:  MOVLB  F
0678A:  MOVLW  55
0678C:  MOVWF  FA7
0678E:  MOVLW  AA
06790:  MOVWF  FA7
06792:  BSF    FA6.1
06794:  BTFSC  FA6.1
06796:  BRA    6794
06798:  BCF    FA6.2
0679A:  MOVF   00,W
0679C:  IORWF  FF2,F
....................       delay_ms(20); 
0679E:  MOVLW  14
067A0:  MOVLB  6
067A2:  MOVWF  x80
067A4:  MOVLB  0
067A6:  CALL   14A0
....................       write_eeprom(19,Ttrabajo[3]); 
067AA:  CLRF   FAA
067AC:  MOVLW  13
067AE:  MOVWF  FA9
067B0:  MOVFF  50E,FA8
067B4:  BCF    FA6.6
067B6:  BCF    FA6.7
067B8:  BSF    FA6.2
067BA:  MOVF   FF2,W
067BC:  MOVWF  00
067BE:  BCF    FF2.7
067C0:  MOVLB  F
067C2:  MOVLW  55
067C4:  MOVWF  FA7
067C6:  MOVLW  AA
067C8:  MOVWF  FA7
067CA:  BSF    FA6.1
067CC:  BTFSC  FA6.1
067CE:  BRA    67CC
067D0:  BCF    FA6.2
067D2:  MOVF   00,W
067D4:  IORWF  FF2,F
....................       delay_ms(20); 
067D6:  MOVLW  14
067D8:  MOVLB  6
067DA:  MOVWF  x80
067DC:  MOVLB  0
067DE:  CALL   14A0
....................    }else if(minutos_trabajo==900 || minutos_trabajo==1800 || minutos_trabajo==2700 ){ 
067E2:  BRA    6882
067E4:  MOVLB  4
067E6:  MOVF   xE3,W
067E8:  SUBLW  84
067EA:  BNZ   67F2
067EC:  MOVF   xE4,W
067EE:  SUBLW  03
067F0:  BZ    680A
067F2:  MOVF   xE3,W
067F4:  SUBLW  08
067F6:  BNZ   67FE
067F8:  MOVF   xE4,W
067FA:  SUBLW  07
067FC:  BZ    680A
067FE:  MOVF   xE3,W
06800:  SUBLW  8C
06802:  BNZ   6884
06804:  MOVF   xE4,W
06806:  SUBLW  0A
06808:  BNZ   6884
....................       write_eeprom(33,make8(minutos_trabajo,0)); 
0680A:  MOVFF  4E3,66C
0680E:  CLRF   FAA
06810:  MOVLW  21
06812:  MOVWF  FA9
06814:  MOVFF  66C,FA8
06818:  BCF    FA6.6
0681A:  BCF    FA6.7
0681C:  BSF    FA6.2
0681E:  MOVF   FF2,W
06820:  MOVWF  00
06822:  BCF    FF2.7
06824:  MOVLB  F
06826:  MOVLW  55
06828:  MOVWF  FA7
0682A:  MOVLW  AA
0682C:  MOVWF  FA7
0682E:  BSF    FA6.1
06830:  BTFSC  FA6.1
06832:  BRA    6830
06834:  BCF    FA6.2
06836:  MOVF   00,W
06838:  IORWF  FF2,F
....................       delay_ms(20); 
0683A:  MOVLW  14
0683C:  MOVLB  6
0683E:  MOVWF  x80
06840:  MOVLB  0
06842:  CALL   14A0
....................       write_eeprom(34,make8(minutos_trabajo,1)); 
06846:  MOVFF  4E4,66C
0684A:  CLRF   FAA
0684C:  MOVLW  22
0684E:  MOVWF  FA9
06850:  MOVFF  66C,FA8
06854:  BCF    FA6.6
06856:  BCF    FA6.7
06858:  BSF    FA6.2
0685A:  MOVF   FF2,W
0685C:  MOVWF  00
0685E:  BCF    FF2.7
06860:  MOVLB  F
06862:  MOVLW  55
06864:  MOVWF  FA7
06866:  MOVLW  AA
06868:  MOVWF  FA7
0686A:  BSF    FA6.1
0686C:  BTFSC  FA6.1
0686E:  BRA    686C
06870:  BCF    FA6.2
06872:  MOVF   00,W
06874:  IORWF  FF2,F
....................       delay_ms(20); 
06876:  MOVLW  14
06878:  MOVLB  6
0687A:  MOVWF  x80
0687C:  MOVLB  0
0687E:  CALL   14A0
06882:  MOVLB  4
....................    } 
.................... //----------------------------------------//       
....................     
....................    if(Menu!=2){// Si no esta en el menu de estados apaga la alarma 
06884:  MOVF   xC7,W
06886:  SUBLW  02
06888:  BZ    6892
....................       Alarma_off; 
0688A:  BCF    F8B.5
0688C:  BCF    F94.5
....................       Alarma=10; 
0688E:  MOVLW  0A
06890:  MOVWF  xD4
....................    } 
....................     
.................... //_-------------------------------------------------------------------------------------------------------------------------------------------------------- 
....................    if(Menu==0){ //Menu de Contrasea. 
06892:  MOVF   xC7,F
06894:  BNZ   68CC
....................       while(PidePassword(0,0,1,Password[0],Password[1],Password[2],Password[3])==0){ 
06896:  MOVLB  6
06898:  CLRF   x6C
0689A:  CLRF   x6D
0689C:  MOVLW  01
0689E:  MOVWF  x6E
068A0:  MOVFF  513,66F
068A4:  MOVFF  514,670
068A8:  MOVFF  515,671
068AC:  MOVFF  516,672
068B0:  MOVLB  0
068B2:  CALL   5072
068B6:  MOVF   01,F
068B8:  BNZ   68CE
....................          VelocidadMotor(0); 
068BA:  MOVLB  6
068BC:  CLRF   x6C
068BE:  MOVLB  0
068C0:  CALL   1D34
....................          glcd_update(); 
068C4:  CALL   1558
....................       }        
068C8:  MOVLB  4
068CA:  BRA    6896
068CC:  MOVLB  0
....................    } 
.................... //_--------------------------------------------------------------------------------------------------------------------------------------------------------        
....................  
.................... //_-------------------------------------------------------------------------------------------------------------------------------------------------------- 
....................       if(Menu==1){//Menu de Purga. 
068CE:  MOVLB  4
068D0:  DECFSZ xC7,W
068D2:  BRA    6A3C
....................          Purga=ON; 
068D4:  BSF    x2E.5
....................          glcd_text57(15, 1, Tiempo, 1, ON); 
068D6:  MOVLW  0F
068D8:  MOVLB  6
068DA:  MOVWF  x84
068DC:  MOVLW  01
068DE:  MOVWF  x85
068E0:  MOVLW  04
068E2:  MOVWF  x87
068E4:  MOVLW  5D
068E6:  MOVWF  x86
068E8:  MOVLW  01
068EA:  MOVWF  x88
068EC:  MOVWF  x89
068EE:  MOVLB  0
068F0:  CALL   4D36
....................          tiempo_purga=1;LuzBlanca_off;//Alarma_off; 
068F4:  MOVLB  4
068F6:  BSF    x2D.5
068F8:  BSF    F8B.2
068FA:  BCF    F94.2
....................          glcd_rect(9, 54, 120, 64, YES, OFF);          
068FC:  MOVLW  09
068FE:  MOVLB  6
06900:  MOVWF  x84
06902:  MOVLW  36
06904:  MOVWF  x85
06906:  MOVLW  78
06908:  MOVWF  x86
0690A:  MOVLW  40
0690C:  MOVWF  x87
0690E:  MOVLW  01
06910:  MOVWF  x88
06912:  CLRF   x89
06914:  MOVLB  0
06916:  CALL   4C74
....................          displayTiempo(Tpurga[3],20,20,0,2);displayTiempo(Tpurga[2],40,20,0,2);glcd_text57(60, 22, Dos_puntos, 2, ON); 
0691A:  MOVFF  4F6,66C
0691E:  MOVLW  14
06920:  MOVLB  6
06922:  MOVWF  x6D
06924:  MOVWF  x6E
06926:  CLRF   x6F
06928:  MOVLW  02
0692A:  MOVWF  x70
0692C:  MOVLB  0
0692E:  CALL   5784
06932:  MOVFF  4F5,66C
06936:  MOVLW  28
06938:  MOVLB  6
0693A:  MOVWF  x6D
0693C:  MOVLW  14
0693E:  MOVWF  x6E
06940:  CLRF   x6F
06942:  MOVLW  02
06944:  MOVWF  x70
06946:  MOVLB  0
06948:  CALL   5784
0694C:  MOVLW  3C
0694E:  MOVLB  6
06950:  MOVWF  x84
06952:  MOVLW  16
06954:  MOVWF  x85
06956:  MOVLW  04
06958:  MOVWF  x87
0695A:  MOVLW  4D
0695C:  MOVWF  x86
0695E:  MOVLW  02
06960:  MOVWF  x88
06962:  MOVLW  01
06964:  MOVWF  x89
06966:  MOVLB  0
06968:  CALL   4D36
....................          displayTiempo(Tpurga[1],70,20,0,2);displayTiempo(Tpurga[0],90,20,0,2);         
0696C:  MOVFF  4F4,66C
06970:  MOVLW  46
06972:  MOVLB  6
06974:  MOVWF  x6D
06976:  MOVLW  14
06978:  MOVWF  x6E
0697A:  CLRF   x6F
0697C:  MOVLW  02
0697E:  MOVWF  x70
06980:  MOVLB  0
06982:  CALL   5784
06986:  MOVFF  4F3,66C
0698A:  MOVLW  5A
0698C:  MOVLB  6
0698E:  MOVWF  x6D
06990:  MOVLW  14
06992:  MOVWF  x6E
06994:  CLRF   x6F
06996:  MOVLW  02
06998:  MOVWF  x70
0699A:  MOVLB  0
0699C:  CALL   5784
....................           
....................          VelocidadMotor(VelMotor); 
069A0:  MOVFF  5DC,66C
069A4:  CALL   1D34
....................           
....................          if(RIGHT){ 
069A8:  BSF    F96.1
069AA:  BTFSC  F84.1
069AC:  BRA    69E2
....................             delay_ms(500); 
069AE:  MOVLW  02
069B0:  MOVLB  6
069B2:  MOVWF  x6C
069B4:  MOVLW  FA
069B6:  MOVWF  x80
069B8:  MOVLB  0
069BA:  CALL   14A0
069BE:  MOVLB  6
069C0:  DECFSZ x6C,F
069C2:  BRA    69B4
....................             if(RIGHT){ 
069C4:  BSF    F96.1
069C6:  BTFSC  F84.1
069C8:  BRA    69E2
....................                tiempo_purga=0;Menu=2;glcd_fillScreen(OFF);Flanco3=1; 
069CA:  MOVLB  4
069CC:  BCF    x2D.5
069CE:  MOVLW  02
069D0:  MOVWF  xC7
069D2:  MOVLB  6
069D4:  CLRF   x73
069D6:  MOVLB  0
069D8:  CALL   14FE
069DC:  MOVLB  4
069DE:  BSF    x2C.3
069E0:  MOVLB  6
....................             } 
....................          } 
....................         
....................          if((Tpurga[0]>=Tpurgap[0])&&(Tpurga[1]>=Tpurgap[1])&&(Tpurga[2]>=Tpurgap[2])&&(Tpurga[3]>=Tpurgap[3])){ 
069E2:  MOVLB  4
069E4:  MOVF   xF7,W
069E6:  XORLW  80
069E8:  MOVWF  00
069EA:  MOVF   xF3,W
069EC:  XORLW  80
069EE:  SUBWF  00,W
069F0:  BZ    69F4
069F2:  BC    6A3C
069F4:  MOVF   xF8,W
069F6:  XORLW  80
069F8:  MOVWF  00
069FA:  MOVF   xF4,W
069FC:  XORLW  80
069FE:  SUBWF  00,W
06A00:  BZ    6A04
06A02:  BC    6A3C
06A04:  MOVF   xF9,W
06A06:  XORLW  80
06A08:  MOVWF  00
06A0A:  MOVF   xF5,W
06A0C:  XORLW  80
06A0E:  SUBWF  00,W
06A10:  BZ    6A14
06A12:  BC    6A3C
06A14:  MOVF   xFA,W
06A16:  XORLW  80
06A18:  MOVWF  00
06A1A:  MOVF   xF6,W
06A1C:  XORLW  80
06A1E:  SUBWF  00,W
06A20:  BZ    6A24
06A22:  BC    6A3C
....................             tiempo_purga=0;Menu=2;glcd_fillScreen(OFF);flag_luz=!flag_luz;flag_blower=1;flag_toma=1; 
06A24:  BCF    x2D.5
06A26:  MOVLW  02
06A28:  MOVWF  xC7
06A2A:  MOVLB  6
06A2C:  CLRF   x73
06A2E:  MOVLB  0
06A30:  CALL   14FE
06A34:  MOVLB  4
06A36:  BTG    x2D.1
06A38:  BSF    x2C.7
06A3A:  BSF    x2D.0
....................          }       
....................       } 
.................... //_--------------------------------------------------------------------------------------------------------------------------------------------------------        
....................  
.................... //_-------------------------------------------------------------------------------------------------------------------------------------------------------- 
....................       if(Menu==2){ //Menu General. 
06A3C:  MOVF   xC7,W
06A3E:  SUBLW  02
06A40:  BTFSS  FD8.2
06A42:  GOTO   74A6
....................          Purga=OFF; 
06A46:  BCF    x2E.5
....................          w=0; 
06A48:  BCF    x2D.3
....................          glcd_imagen(4); 
06A4A:  MOVLW  04
06A4C:  MOVLB  6
06A4E:  MOVWF  x6C
06A50:  MOVLB  0
06A52:  CALL   585E
....................           
....................          if(VelMotor==1){ 
06A56:  MOVLB  5
06A58:  DECFSZ xDC,W
06A5A:  BRA    6B12
....................             glcd_rect(0, 29, 13, 39, YES, ON); 
06A5C:  MOVLB  6
06A5E:  CLRF   x84
06A60:  MOVLW  1D
06A62:  MOVWF  x85
06A64:  MOVLW  0D
06A66:  MOVWF  x86
06A68:  MOVLW  27
06A6A:  MOVWF  x87
06A6C:  MOVLW  01
06A6E:  MOVWF  x88
06A70:  MOVWF  x89
06A72:  MOVLB  0
06A74:  CALL   4C74
....................             glcd_rect(15, 26, 28, 39, NO, ON); 
06A78:  MOVLW  0F
06A7A:  MOVLB  6
06A7C:  MOVWF  x84
06A7E:  MOVLW  1A
06A80:  MOVWF  x85
06A82:  MOVLW  1C
06A84:  MOVWF  x86
06A86:  MOVLW  27
06A88:  MOVWF  x87
06A8A:  CLRF   x88
06A8C:  MOVLW  01
06A8E:  MOVWF  x89
06A90:  MOVLB  0
06A92:  CALL   4C74
....................             glcd_rect(30, 23, 43, 39, NO, ON); 
06A96:  MOVLW  1E
06A98:  MOVLB  6
06A9A:  MOVWF  x84
06A9C:  MOVLW  17
06A9E:  MOVWF  x85
06AA0:  MOVLW  2B
06AA2:  MOVWF  x86
06AA4:  MOVLW  27
06AA6:  MOVWF  x87
06AA8:  CLRF   x88
06AAA:  MOVLW  01
06AAC:  MOVWF  x89
06AAE:  MOVLB  0
06AB0:  CALL   4C74
....................             glcd_rect(45, 20, 58, 39, NO, ON); 
06AB4:  MOVLW  2D
06AB6:  MOVLB  6
06AB8:  MOVWF  x84
06ABA:  MOVLW  14
06ABC:  MOVWF  x85
06ABE:  MOVLW  3A
06AC0:  MOVWF  x86
06AC2:  MOVLW  27
06AC4:  MOVWF  x87
06AC6:  CLRF   x88
06AC8:  MOVLW  01
06ACA:  MOVWF  x89
06ACC:  MOVLB  0
06ACE:  CALL   4C74
....................             glcd_rect(60, 17, 73, 39, NO, ON); 
06AD2:  MOVLW  3C
06AD4:  MOVLB  6
06AD6:  MOVWF  x84
06AD8:  MOVLW  11
06ADA:  MOVWF  x85
06ADC:  MOVLW  49
06ADE:  MOVWF  x86
06AE0:  MOVLW  27
06AE2:  MOVWF  x87
06AE4:  CLRF   x88
06AE6:  MOVLW  01
06AE8:  MOVWF  x89
06AEA:  MOVLB  0
06AEC:  CALL   4C74
....................             glcd_rect(75, 14, 88, 39, NO, ON); 
06AF0:  MOVLW  4B
06AF2:  MOVLB  6
06AF4:  MOVWF  x84
06AF6:  MOVLW  0E
06AF8:  MOVWF  x85
06AFA:  MOVLW  58
06AFC:  MOVWF  x86
06AFE:  MOVLW  27
06B00:  MOVWF  x87
06B02:  CLRF   x88
06B04:  MOVLW  01
06B06:  MOVWF  x89
06B08:  MOVLB  0
06B0A:  CALL   4C74
....................          }else if(VelMotor==2){ 
06B0E:  BRA    6EBA
06B10:  MOVLB  5
06B12:  MOVF   xDC,W
06B14:  SUBLW  02
06B16:  BNZ   6BCE
....................             glcd_rect(0, 29, 13, 39, YES, ON); 
06B18:  MOVLB  6
06B1A:  CLRF   x84
06B1C:  MOVLW  1D
06B1E:  MOVWF  x85
06B20:  MOVLW  0D
06B22:  MOVWF  x86
06B24:  MOVLW  27
06B26:  MOVWF  x87
06B28:  MOVLW  01
06B2A:  MOVWF  x88
06B2C:  MOVWF  x89
06B2E:  MOVLB  0
06B30:  CALL   4C74
....................             glcd_rect(15, 26, 28, 39, YES, ON); 
06B34:  MOVLW  0F
06B36:  MOVLB  6
06B38:  MOVWF  x84
06B3A:  MOVLW  1A
06B3C:  MOVWF  x85
06B3E:  MOVLW  1C
06B40:  MOVWF  x86
06B42:  MOVLW  27
06B44:  MOVWF  x87
06B46:  MOVLW  01
06B48:  MOVWF  x88
06B4A:  MOVWF  x89
06B4C:  MOVLB  0
06B4E:  CALL   4C74
....................             glcd_rect(30, 23, 43, 39, NO, ON); 
06B52:  MOVLW  1E
06B54:  MOVLB  6
06B56:  MOVWF  x84
06B58:  MOVLW  17
06B5A:  MOVWF  x85
06B5C:  MOVLW  2B
06B5E:  MOVWF  x86
06B60:  MOVLW  27
06B62:  MOVWF  x87
06B64:  CLRF   x88
06B66:  MOVLW  01
06B68:  MOVWF  x89
06B6A:  MOVLB  0
06B6C:  CALL   4C74
....................             glcd_rect(45, 20, 58, 39, NO, ON); 
06B70:  MOVLW  2D
06B72:  MOVLB  6
06B74:  MOVWF  x84
06B76:  MOVLW  14
06B78:  MOVWF  x85
06B7A:  MOVLW  3A
06B7C:  MOVWF  x86
06B7E:  MOVLW  27
06B80:  MOVWF  x87
06B82:  CLRF   x88
06B84:  MOVLW  01
06B86:  MOVWF  x89
06B88:  MOVLB  0
06B8A:  CALL   4C74
....................             glcd_rect(60, 17, 73, 39, NO, ON); 
06B8E:  MOVLW  3C
06B90:  MOVLB  6
06B92:  MOVWF  x84
06B94:  MOVLW  11
06B96:  MOVWF  x85
06B98:  MOVLW  49
06B9A:  MOVWF  x86
06B9C:  MOVLW  27
06B9E:  MOVWF  x87
06BA0:  CLRF   x88
06BA2:  MOVLW  01
06BA4:  MOVWF  x89
06BA6:  MOVLB  0
06BA8:  CALL   4C74
....................             glcd_rect(75, 14, 88, 39, NO, ON); 
06BAC:  MOVLW  4B
06BAE:  MOVLB  6
06BB0:  MOVWF  x84
06BB2:  MOVLW  0E
06BB4:  MOVWF  x85
06BB6:  MOVLW  58
06BB8:  MOVWF  x86
06BBA:  MOVLW  27
06BBC:  MOVWF  x87
06BBE:  CLRF   x88
06BC0:  MOVLW  01
06BC2:  MOVWF  x89
06BC4:  MOVLB  0
06BC6:  CALL   4C74
....................          }else if(VelMotor==3){ 
06BCA:  BRA    6EBA
06BCC:  MOVLB  5
06BCE:  MOVF   xDC,W
06BD0:  SUBLW  03
06BD2:  BNZ   6C8A
....................             glcd_rect(0, 29, 13, 39, YES, ON); 
06BD4:  MOVLB  6
06BD6:  CLRF   x84
06BD8:  MOVLW  1D
06BDA:  MOVWF  x85
06BDC:  MOVLW  0D
06BDE:  MOVWF  x86
06BE0:  MOVLW  27
06BE2:  MOVWF  x87
06BE4:  MOVLW  01
06BE6:  MOVWF  x88
06BE8:  MOVWF  x89
06BEA:  MOVLB  0
06BEC:  CALL   4C74
....................             glcd_rect(15, 26, 28, 39, YES, ON); 
06BF0:  MOVLW  0F
06BF2:  MOVLB  6
06BF4:  MOVWF  x84
06BF6:  MOVLW  1A
06BF8:  MOVWF  x85
06BFA:  MOVLW  1C
06BFC:  MOVWF  x86
06BFE:  MOVLW  27
06C00:  MOVWF  x87
06C02:  MOVLW  01
06C04:  MOVWF  x88
06C06:  MOVWF  x89
06C08:  MOVLB  0
06C0A:  CALL   4C74
....................             glcd_rect(30, 23, 43, 39, YES, ON); 
06C0E:  MOVLW  1E
06C10:  MOVLB  6
06C12:  MOVWF  x84
06C14:  MOVLW  17
06C16:  MOVWF  x85
06C18:  MOVLW  2B
06C1A:  MOVWF  x86
06C1C:  MOVLW  27
06C1E:  MOVWF  x87
06C20:  MOVLW  01
06C22:  MOVWF  x88
06C24:  MOVWF  x89
06C26:  MOVLB  0
06C28:  CALL   4C74
....................             glcd_rect(45, 20, 58, 39, NO, ON); 
06C2C:  MOVLW  2D
06C2E:  MOVLB  6
06C30:  MOVWF  x84
06C32:  MOVLW  14
06C34:  MOVWF  x85
06C36:  MOVLW  3A
06C38:  MOVWF  x86
06C3A:  MOVLW  27
06C3C:  MOVWF  x87
06C3E:  CLRF   x88
06C40:  MOVLW  01
06C42:  MOVWF  x89
06C44:  MOVLB  0
06C46:  CALL   4C74
....................             glcd_rect(60, 17, 73, 39, NO, ON); 
06C4A:  MOVLW  3C
06C4C:  MOVLB  6
06C4E:  MOVWF  x84
06C50:  MOVLW  11
06C52:  MOVWF  x85
06C54:  MOVLW  49
06C56:  MOVWF  x86
06C58:  MOVLW  27
06C5A:  MOVWF  x87
06C5C:  CLRF   x88
06C5E:  MOVLW  01
06C60:  MOVWF  x89
06C62:  MOVLB  0
06C64:  CALL   4C74
....................             glcd_rect(75, 14, 88, 39, NO, ON); 
06C68:  MOVLW  4B
06C6A:  MOVLB  6
06C6C:  MOVWF  x84
06C6E:  MOVLW  0E
06C70:  MOVWF  x85
06C72:  MOVLW  58
06C74:  MOVWF  x86
06C76:  MOVLW  27
06C78:  MOVWF  x87
06C7A:  CLRF   x88
06C7C:  MOVLW  01
06C7E:  MOVWF  x89
06C80:  MOVLB  0
06C82:  CALL   4C74
....................          }else if(VelMotor==4){ 
06C86:  BRA    6EBA
06C88:  MOVLB  5
06C8A:  MOVF   xDC,W
06C8C:  SUBLW  04
06C8E:  BNZ   6D46
....................             glcd_rect(0, 29, 13, 39, YES, ON); 
06C90:  MOVLB  6
06C92:  CLRF   x84
06C94:  MOVLW  1D
06C96:  MOVWF  x85
06C98:  MOVLW  0D
06C9A:  MOVWF  x86
06C9C:  MOVLW  27
06C9E:  MOVWF  x87
06CA0:  MOVLW  01
06CA2:  MOVWF  x88
06CA4:  MOVWF  x89
06CA6:  MOVLB  0
06CA8:  CALL   4C74
....................             glcd_rect(15, 26, 28, 39, YES, ON); 
06CAC:  MOVLW  0F
06CAE:  MOVLB  6
06CB0:  MOVWF  x84
06CB2:  MOVLW  1A
06CB4:  MOVWF  x85
06CB6:  MOVLW  1C
06CB8:  MOVWF  x86
06CBA:  MOVLW  27
06CBC:  MOVWF  x87
06CBE:  MOVLW  01
06CC0:  MOVWF  x88
06CC2:  MOVWF  x89
06CC4:  MOVLB  0
06CC6:  CALL   4C74
....................             glcd_rect(30, 23, 43, 39, YES, ON); 
06CCA:  MOVLW  1E
06CCC:  MOVLB  6
06CCE:  MOVWF  x84
06CD0:  MOVLW  17
06CD2:  MOVWF  x85
06CD4:  MOVLW  2B
06CD6:  MOVWF  x86
06CD8:  MOVLW  27
06CDA:  MOVWF  x87
06CDC:  MOVLW  01
06CDE:  MOVWF  x88
06CE0:  MOVWF  x89
06CE2:  MOVLB  0
06CE4:  CALL   4C74
....................             glcd_rect(45, 20, 58, 39, YES, ON); 
06CE8:  MOVLW  2D
06CEA:  MOVLB  6
06CEC:  MOVWF  x84
06CEE:  MOVLW  14
06CF0:  MOVWF  x85
06CF2:  MOVLW  3A
06CF4:  MOVWF  x86
06CF6:  MOVLW  27
06CF8:  MOVWF  x87
06CFA:  MOVLW  01
06CFC:  MOVWF  x88
06CFE:  MOVWF  x89
06D00:  MOVLB  0
06D02:  CALL   4C74
....................             glcd_rect(60, 17, 73, 39, NO, ON); 
06D06:  MOVLW  3C
06D08:  MOVLB  6
06D0A:  MOVWF  x84
06D0C:  MOVLW  11
06D0E:  MOVWF  x85
06D10:  MOVLW  49
06D12:  MOVWF  x86
06D14:  MOVLW  27
06D16:  MOVWF  x87
06D18:  CLRF   x88
06D1A:  MOVLW  01
06D1C:  MOVWF  x89
06D1E:  MOVLB  0
06D20:  CALL   4C74
....................             glcd_rect(75, 14, 88, 39, NO, ON); 
06D24:  MOVLW  4B
06D26:  MOVLB  6
06D28:  MOVWF  x84
06D2A:  MOVLW  0E
06D2C:  MOVWF  x85
06D2E:  MOVLW  58
06D30:  MOVWF  x86
06D32:  MOVLW  27
06D34:  MOVWF  x87
06D36:  CLRF   x88
06D38:  MOVLW  01
06D3A:  MOVWF  x89
06D3C:  MOVLB  0
06D3E:  CALL   4C74
....................          }else if(VelMotor==5){ 
06D42:  BRA    6EBA
06D44:  MOVLB  5
06D46:  MOVF   xDC,W
06D48:  SUBLW  05
06D4A:  BNZ   6E02
....................             glcd_rect(0, 29, 13, 39, YES, ON); 
06D4C:  MOVLB  6
06D4E:  CLRF   x84
06D50:  MOVLW  1D
06D52:  MOVWF  x85
06D54:  MOVLW  0D
06D56:  MOVWF  x86
06D58:  MOVLW  27
06D5A:  MOVWF  x87
06D5C:  MOVLW  01
06D5E:  MOVWF  x88
06D60:  MOVWF  x89
06D62:  MOVLB  0
06D64:  CALL   4C74
....................             glcd_rect(15, 26, 28, 39, YES, ON); 
06D68:  MOVLW  0F
06D6A:  MOVLB  6
06D6C:  MOVWF  x84
06D6E:  MOVLW  1A
06D70:  MOVWF  x85
06D72:  MOVLW  1C
06D74:  MOVWF  x86
06D76:  MOVLW  27
06D78:  MOVWF  x87
06D7A:  MOVLW  01
06D7C:  MOVWF  x88
06D7E:  MOVWF  x89
06D80:  MOVLB  0
06D82:  CALL   4C74
....................             glcd_rect(30, 23, 43, 39, YES, ON); 
06D86:  MOVLW  1E
06D88:  MOVLB  6
06D8A:  MOVWF  x84
06D8C:  MOVLW  17
06D8E:  MOVWF  x85
06D90:  MOVLW  2B
06D92:  MOVWF  x86
06D94:  MOVLW  27
06D96:  MOVWF  x87
06D98:  MOVLW  01
06D9A:  MOVWF  x88
06D9C:  MOVWF  x89
06D9E:  MOVLB  0
06DA0:  CALL   4C74
....................             glcd_rect(45, 20, 58, 39, YES, ON); 
06DA4:  MOVLW  2D
06DA6:  MOVLB  6
06DA8:  MOVWF  x84
06DAA:  MOVLW  14
06DAC:  MOVWF  x85
06DAE:  MOVLW  3A
06DB0:  MOVWF  x86
06DB2:  MOVLW  27
06DB4:  MOVWF  x87
06DB6:  MOVLW  01
06DB8:  MOVWF  x88
06DBA:  MOVWF  x89
06DBC:  MOVLB  0
06DBE:  CALL   4C74
....................             glcd_rect(60, 17, 73, 39, YES, ON); 
06DC2:  MOVLW  3C
06DC4:  MOVLB  6
06DC6:  MOVWF  x84
06DC8:  MOVLW  11
06DCA:  MOVWF  x85
06DCC:  MOVLW  49
06DCE:  MOVWF  x86
06DD0:  MOVLW  27
06DD2:  MOVWF  x87
06DD4:  MOVLW  01
06DD6:  MOVWF  x88
06DD8:  MOVWF  x89
06DDA:  MOVLB  0
06DDC:  CALL   4C74
....................             glcd_rect(75, 14, 88, 39, NO, ON); 
06DE0:  MOVLW  4B
06DE2:  MOVLB  6
06DE4:  MOVWF  x84
06DE6:  MOVLW  0E
06DE8:  MOVWF  x85
06DEA:  MOVLW  58
06DEC:  MOVWF  x86
06DEE:  MOVLW  27
06DF0:  MOVWF  x87
06DF2:  CLRF   x88
06DF4:  MOVLW  01
06DF6:  MOVWF  x89
06DF8:  MOVLB  0
06DFA:  CALL   4C74
....................          }else if(VelMotor==6){ 
06DFE:  BRA    6EBA
06E00:  MOVLB  5
06E02:  MOVF   xDC,W
06E04:  SUBLW  06
06E06:  BNZ   6EBA
....................             glcd_rect(0, 29, 13, 39, YES, ON); 
06E08:  MOVLB  6
06E0A:  CLRF   x84
06E0C:  MOVLW  1D
06E0E:  MOVWF  x85
06E10:  MOVLW  0D
06E12:  MOVWF  x86
06E14:  MOVLW  27
06E16:  MOVWF  x87
06E18:  MOVLW  01
06E1A:  MOVWF  x88
06E1C:  MOVWF  x89
06E1E:  MOVLB  0
06E20:  CALL   4C74
....................             glcd_rect(15, 26, 28, 39, YES, ON); 
06E24:  MOVLW  0F
06E26:  MOVLB  6
06E28:  MOVWF  x84
06E2A:  MOVLW  1A
06E2C:  MOVWF  x85
06E2E:  MOVLW  1C
06E30:  MOVWF  x86
06E32:  MOVLW  27
06E34:  MOVWF  x87
06E36:  MOVLW  01
06E38:  MOVWF  x88
06E3A:  MOVWF  x89
06E3C:  MOVLB  0
06E3E:  CALL   4C74
....................             glcd_rect(30, 23, 43, 39, YES, ON); 
06E42:  MOVLW  1E
06E44:  MOVLB  6
06E46:  MOVWF  x84
06E48:  MOVLW  17
06E4A:  MOVWF  x85
06E4C:  MOVLW  2B
06E4E:  MOVWF  x86
06E50:  MOVLW  27
06E52:  MOVWF  x87
06E54:  MOVLW  01
06E56:  MOVWF  x88
06E58:  MOVWF  x89
06E5A:  MOVLB  0
06E5C:  CALL   4C74
....................             glcd_rect(45, 20, 58, 39, YES, ON); 
06E60:  MOVLW  2D
06E62:  MOVLB  6
06E64:  MOVWF  x84
06E66:  MOVLW  14
06E68:  MOVWF  x85
06E6A:  MOVLW  3A
06E6C:  MOVWF  x86
06E6E:  MOVLW  27
06E70:  MOVWF  x87
06E72:  MOVLW  01
06E74:  MOVWF  x88
06E76:  MOVWF  x89
06E78:  MOVLB  0
06E7A:  CALL   4C74
....................             glcd_rect(60, 17, 73, 39, YES, ON); 
06E7E:  MOVLW  3C
06E80:  MOVLB  6
06E82:  MOVWF  x84
06E84:  MOVLW  11
06E86:  MOVWF  x85
06E88:  MOVLW  49
06E8A:  MOVWF  x86
06E8C:  MOVLW  27
06E8E:  MOVWF  x87
06E90:  MOVLW  01
06E92:  MOVWF  x88
06E94:  MOVWF  x89
06E96:  MOVLB  0
06E98:  CALL   4C74
....................             glcd_rect(75, 14, 88, 39, YES, ON); 
06E9C:  MOVLW  4B
06E9E:  MOVLB  6
06EA0:  MOVWF  x84
06EA2:  MOVLW  0E
06EA4:  MOVWF  x85
06EA6:  MOVLW  58
06EA8:  MOVWF  x86
06EAA:  MOVLW  27
06EAC:  MOVWF  x87
06EAE:  MOVLW  01
06EB0:  MOVWF  x88
06EB2:  MOVWF  x89
06EB4:  MOVLB  0
06EB6:  CALL   4C74
....................          } 
....................           
....................          if(imprimir==1){ 
06EBA:  MOVLB  4
06EBC:  BTFSS  x2C.6
06EBE:  BRA    705E
....................             glcd_text57(2, 12, Inflowt, 1, ON); 
06EC0:  MOVLW  02
06EC2:  MOVLB  6
06EC4:  MOVWF  x84
06EC6:  MOVLW  0C
06EC8:  MOVWF  x85
06ECA:  MOVLW  04
06ECC:  MOVWF  x87
06ECE:  MOVLW  6D
06ED0:  MOVWF  x86
06ED2:  MOVLW  01
06ED4:  MOVWF  x88
06ED6:  MOVWF  x89
06ED8:  MOVLB  0
06EDA:  CALL   4D36
....................             displayTiempo(VelMotor,25,11,0,1);   
06EDE:  MOVFF  5DC,66C
06EE2:  MOVLW  19
06EE4:  MOVLB  6
06EE6:  MOVWF  x6D
06EE8:  MOVLW  0B
06EEA:  MOVWF  x6E
06EEC:  CLRF   x6F
06EEE:  MOVLW  01
06EF0:  MOVWF  x70
06EF2:  MOVLB  0
06EF4:  CALL   5784
....................             glcd_rect(0, 10, 95, 63, NO, ON); 
06EF8:  MOVLB  6
06EFA:  CLRF   x84
06EFC:  MOVLW  0A
06EFE:  MOVWF  x85
06F00:  MOVLW  5F
06F02:  MOVWF  x86
06F04:  MOVLW  3F
06F06:  MOVWF  x87
06F08:  CLRF   x88
06F0A:  MOVLW  01
06F0C:  MOVWF  x89
06F0E:  MOVLB  0
06F10:  CALL   4C74
....................             glcd_rect(100, 10, 127, 63, NO, ON); 
06F14:  MOVLW  64
06F16:  MOVLB  6
06F18:  MOVWF  x84
06F1A:  MOVLW  0A
06F1C:  MOVWF  x85
06F1E:  MOVLW  7F
06F20:  MOVWF  x86
06F22:  MOVLW  3F
06F24:  MOVWF  x87
06F26:  CLRF   x88
06F28:  MOVLW  01
06F2A:  MOVWF  x89
06F2C:  MOVLB  0
06F2E:  CALL   4C74
....................             glcd_text57(2, 51, Downflowt, 1, ON); 
06F32:  MOVLW  02
06F34:  MOVLB  6
06F36:  MOVWF  x84
06F38:  MOVLW  33
06F3A:  MOVWF  x85
06F3C:  MOVLW  04
06F3E:  MOVWF  x87
06F40:  MOVLW  72
06F42:  MOVWF  x86
06F44:  MOVLW  01
06F46:  MOVWF  x88
06F48:  MOVWF  x89
06F4A:  MOVLB  0
06F4C:  CALL   4D36
....................             glcd_text57(2, 41, Vida_Filtro, 1, ON); 
06F50:  MOVLW  02
06F52:  MOVLB  6
06F54:  MOVWF  x84
06F56:  MOVLW  29
06F58:  MOVWF  x85
06F5A:  MOVLW  04
06F5C:  MOVWF  x87
06F5E:  MOVLW  9C
06F60:  MOVWF  x86
06F62:  MOVLW  01
06F64:  MOVWF  x88
06F66:  MOVWF  x89
06F68:  MOVLB  0
06F6A:  CALL   4D36
....................             displayTiempo(Ttrabajo[3],60,41,0,1);displayTiempo(Ttrabajo[2],67,41,0,1);displayTiempo(Ttrabajo[1],74,41,0,1);displayTiempo(Ttrabajo[0],82,41,0,1); 
06F6E:  MOVFF  50E,66C
06F72:  MOVLW  3C
06F74:  MOVLB  6
06F76:  MOVWF  x6D
06F78:  MOVLW  29
06F7A:  MOVWF  x6E
06F7C:  CLRF   x6F
06F7E:  MOVLW  01
06F80:  MOVWF  x70
06F82:  MOVLB  0
06F84:  CALL   5784
06F88:  MOVFF  50D,66C
06F8C:  MOVLW  43
06F8E:  MOVLB  6
06F90:  MOVWF  x6D
06F92:  MOVLW  29
06F94:  MOVWF  x6E
06F96:  CLRF   x6F
06F98:  MOVLW  01
06F9A:  MOVWF  x70
06F9C:  MOVLB  0
06F9E:  CALL   5784
06FA2:  MOVFF  50C,66C
06FA6:  MOVLW  4A
06FA8:  MOVLB  6
06FAA:  MOVWF  x6D
06FAC:  MOVLW  29
06FAE:  MOVWF  x6E
06FB0:  CLRF   x6F
06FB2:  MOVLW  01
06FB4:  MOVWF  x70
06FB6:  MOVLB  0
06FB8:  CALL   5784
06FBC:  MOVFF  50B,66C
06FC0:  MOVLW  52
06FC2:  MOVLB  6
06FC4:  MOVWF  x6D
06FC6:  MOVLW  29
06FC8:  MOVWF  x6E
06FCA:  CLRF   x6F
06FCC:  MOVLW  01
06FCE:  MOVWF  x70
06FD0:  MOVLB  0
06FD2:  CALL   5784
....................             strcpy(Menus.Letra,"JPCEGH120PP-TOPA"); 
06FD6:  MOVLW  04
06FD8:  MOVWF  FEA
06FDA:  MOVLW  16
06FDC:  MOVWF  FE9
06FDE:  MOVFF  FF2,66C
06FE2:  BCF    FF2.7
06FE4:  MOVLW  00
06FE6:  CALL   0F58
06FEA:  TBLRD*-
06FEC:  TBLRD*+
06FEE:  MOVF   FF5,W
06FF0:  MOVWF  FEE
06FF2:  IORLW  00
06FF4:  BNZ   6FEC
06FF6:  MOVLB  6
06FF8:  BTFSC  x6C.7
06FFA:  BSF    FF2.7
....................             displayMenu(Menus.Letra,20,0,1,1); 
06FFC:  MOVLW  04
06FFE:  MOVWF  x74
07000:  MOVLW  16
07002:  MOVWF  x73
07004:  MOVLW  14
07006:  MOVWF  x75
07008:  CLRF   x76
0700A:  MOVLW  01
0700C:  MOVWF  x77
0700E:  MOVWF  x78
07010:  MOVLB  0
07012:  CALL   4FA6
....................             displayfloat(Temperatura,69,50,0,1); 
07016:  MOVLB  6
07018:  CLRF   xA2
0701A:  MOVFF  5D8,6A1
0701E:  MOVLB  0
07020:  CALL   1932
07024:  MOVFF  00,66C
07028:  MOVFF  01,66D
0702C:  MOVFF  02,66E
07030:  MOVFF  03,66F
07034:  MOVFF  03,673
07038:  MOVFF  02,672
0703C:  MOVFF  01,671
07040:  MOVFF  00,670
07044:  MOVLW  45
07046:  MOVLB  6
07048:  MOVWF  x74
0704A:  MOVLW  32
0704C:  MOVWF  x75
0704E:  CLRF   x76
07050:  MOVLW  01
07052:  MOVWF  x77
07054:  MOVLB  0
07056:  CALL   5CDC
....................             imprimir=0; 
0705A:  MOVLB  4
0705C:  BCF    x2C.6
....................          } 
....................                    
....................          if(flag_blower==1){ 
0705E:  BTFSS  x2C.7
07060:  BRA    7206
....................             glcd_imagen(5);tiempo_trabajo=1; 
07062:  MOVLW  05
07064:  MOVLB  6
07066:  MOVWF  x6C
07068:  MOVLB  0
0706A:  CALL   585E
0706E:  MOVLB  4
07070:  BSF    x2D.6
....................             if(guardatrabajo==1){ 
07072:  BTFSS  x2E.1
07074:  BRA    71F8
....................                VelocidadMotor(6); 
07076:  MOVLW  06
07078:  MOVLB  6
0707A:  MOVWF  x6C
0707C:  MOVLB  0
0707E:  CALL   1D34
....................                guardatrabajo=0; 
07082:  MOVLB  4
07084:  BCF    x2E.1
....................                write_eeprom(33,make8(minutos_trabajo,0)); 
07086:  MOVFF  4E3,66C
0708A:  CLRF   FAA
0708C:  MOVLW  21
0708E:  MOVWF  FA9
07090:  MOVFF  66C,FA8
07094:  BCF    FA6.6
07096:  BCF    FA6.7
07098:  BSF    FA6.2
0709A:  MOVF   FF2,W
0709C:  MOVWF  00
0709E:  BCF    FF2.7
070A0:  MOVLB  F
070A2:  MOVLW  55
070A4:  MOVWF  FA7
070A6:  MOVLW  AA
070A8:  MOVWF  FA7
070AA:  BSF    FA6.1
070AC:  BTFSC  FA6.1
070AE:  BRA    70AC
070B0:  BCF    FA6.2
070B2:  MOVF   00,W
070B4:  IORWF  FF2,F
....................                delay_ms(20); 
070B6:  MOVLW  14
070B8:  MOVLB  6
070BA:  MOVWF  x80
070BC:  MOVLB  0
070BE:  CALL   14A0
....................                write_eeprom(34,make8(minutos_trabajo,1)); 
070C2:  MOVFF  4E4,66C
070C6:  CLRF   FAA
070C8:  MOVLW  22
070CA:  MOVWF  FA9
070CC:  MOVFF  66C,FA8
070D0:  BCF    FA6.6
070D2:  BCF    FA6.7
070D4:  BSF    FA6.2
070D6:  MOVF   FF2,W
070D8:  MOVWF  00
070DA:  BCF    FF2.7
070DC:  MOVLB  F
070DE:  MOVLW  55
070E0:  MOVWF  FA7
070E2:  MOVLW  AA
070E4:  MOVWF  FA7
070E6:  BSF    FA6.1
070E8:  BTFSC  FA6.1
070EA:  BRA    70E8
070EC:  BCF    FA6.2
070EE:  MOVF   00,W
070F0:  IORWF  FF2,F
....................                delay_ms(20); 
070F2:  MOVLW  14
070F4:  MOVLB  6
070F6:  MOVWF  x80
070F8:  MOVLB  0
070FA:  CALL   14A0
....................                write_eeprom(16,Ttrabajo[0]); 
070FE:  CLRF   FAA
07100:  MOVLW  10
07102:  MOVWF  FA9
07104:  MOVFF  50B,FA8
07108:  BCF    FA6.6
0710A:  BCF    FA6.7
0710C:  BSF    FA6.2
0710E:  MOVF   FF2,W
07110:  MOVWF  00
07112:  BCF    FF2.7
07114:  MOVLB  F
07116:  MOVLW  55
07118:  MOVWF  FA7
0711A:  MOVLW  AA
0711C:  MOVWF  FA7
0711E:  BSF    FA6.1
07120:  BTFSC  FA6.1
07122:  BRA    7120
07124:  BCF    FA6.2
07126:  MOVF   00,W
07128:  IORWF  FF2,F
....................                delay_ms(20); 
0712A:  MOVLW  14
0712C:  MOVLB  6
0712E:  MOVWF  x80
07130:  MOVLB  0
07132:  CALL   14A0
....................                write_eeprom(17,Ttrabajo[1]); 
07136:  CLRF   FAA
07138:  MOVLW  11
0713A:  MOVWF  FA9
0713C:  MOVFF  50C,FA8
07140:  BCF    FA6.6
07142:  BCF    FA6.7
07144:  BSF    FA6.2
07146:  MOVF   FF2,W
07148:  MOVWF  00
0714A:  BCF    FF2.7
0714C:  MOVLB  F
0714E:  MOVLW  55
07150:  MOVWF  FA7
07152:  MOVLW  AA
07154:  MOVWF  FA7
07156:  BSF    FA6.1
07158:  BTFSC  FA6.1
0715A:  BRA    7158
0715C:  BCF    FA6.2
0715E:  MOVF   00,W
07160:  IORWF  FF2,F
....................                delay_ms(20); 
07162:  MOVLW  14
07164:  MOVLB  6
07166:  MOVWF  x80
07168:  MOVLB  0
0716A:  CALL   14A0
....................                write_eeprom(18,Ttrabajo[2]); 
0716E:  CLRF   FAA
07170:  MOVLW  12
07172:  MOVWF  FA9
07174:  MOVFF  50D,FA8
07178:  BCF    FA6.6
0717A:  BCF    FA6.7
0717C:  BSF    FA6.2
0717E:  MOVF   FF2,W
07180:  MOVWF  00
07182:  BCF    FF2.7
07184:  MOVLB  F
07186:  MOVLW  55
07188:  MOVWF  FA7
0718A:  MOVLW  AA
0718C:  MOVWF  FA7
0718E:  BSF    FA6.1
07190:  BTFSC  FA6.1
07192:  BRA    7190
07194:  BCF    FA6.2
07196:  MOVF   00,W
07198:  IORWF  FF2,F
....................                delay_ms(20); 
0719A:  MOVLW  14
0719C:  MOVLB  6
0719E:  MOVWF  x80
071A0:  MOVLB  0
071A2:  CALL   14A0
....................                write_eeprom(19,Ttrabajo[3]); 
071A6:  CLRF   FAA
071A8:  MOVLW  13
071AA:  MOVWF  FA9
071AC:  MOVFF  50E,FA8
071B0:  BCF    FA6.6
071B2:  BCF    FA6.7
071B4:  BSF    FA6.2
071B6:  MOVF   FF2,W
071B8:  MOVWF  00
071BA:  BCF    FF2.7
071BC:  MOVLB  F
071BE:  MOVLW  55
071C0:  MOVWF  FA7
071C2:  MOVLW  AA
071C4:  MOVWF  FA7
071C6:  BSF    FA6.1
071C8:  BTFSC  FA6.1
071CA:  BRA    71C8
071CC:  BCF    FA6.2
071CE:  MOVF   00,W
071D0:  IORWF  FF2,F
....................                delay_ms(20); 
071D2:  MOVLW  14
071D4:  MOVLB  6
071D6:  MOVWF  x80
071D8:  MOVLB  0
071DA:  CALL   14A0
....................                glcd_init(ON);             //Inicializa la glcd 
071DE:  MOVLW  01
071E0:  MOVLB  6
071E2:  MOVWF  x6C
071E4:  MOVLB  0
071E6:  CALL   1610
....................                glcd_fillScreen(OFF);      //Limpia la pantalla 
071EA:  MOVLB  6
071EC:  CLRF   x73
071EE:  MOVLB  0
071F0:  CALL   14FE
....................                glcd_update();   
071F4:  CALL   1558
....................             } 
....................             VelocidadMotor(VelMotor); 
071F8:  MOVFF  5DC,66C
071FC:  MOVLB  0
071FE:  CALL   1D34
....................          }else{ 
07202:  BRA    73A0
07204:  MOVLB  4
....................             Filtro_Downflow=0; 
07206:  MOVLB  5
07208:  CLRF   x22
0720A:  CLRF   x21
0720C:  CLRF   x20
0720E:  CLRF   x1F
....................             glcd_rect(102, 45, 126, 62, YES, OFF);tiempo_trabajo=0;VelocidadMotor(0); 
07210:  MOVLW  66
07212:  MOVLB  6
07214:  MOVWF  x84
07216:  MOVLW  2D
07218:  MOVWF  x85
0721A:  MOVLW  7E
0721C:  MOVWF  x86
0721E:  MOVLW  3E
07220:  MOVWF  x87
07222:  MOVLW  01
07224:  MOVWF  x88
07226:  CLRF   x89
07228:  MOVLB  0
0722A:  CALL   4C74
0722E:  MOVLB  4
07230:  BCF    x2D.6
07232:  MOVLB  6
07234:  CLRF   x6C
07236:  MOVLB  0
07238:  CALL   1D34
....................             if(guardatrabajo==0){ 
0723C:  MOVLB  4
0723E:  BTFSC  x2E.1
07240:  BRA    73A2
....................                guardatrabajo=1; 
07242:  BSF    x2E.1
....................                write_eeprom(33,make8(minutos_trabajo,0)); 
07244:  MOVFF  4E3,66C
07248:  CLRF   FAA
0724A:  MOVLW  21
0724C:  MOVWF  FA9
0724E:  MOVFF  66C,FA8
07252:  BCF    FA6.6
07254:  BCF    FA6.7
07256:  BSF    FA6.2
07258:  MOVF   FF2,W
0725A:  MOVWF  00
0725C:  BCF    FF2.7
0725E:  MOVLB  F
07260:  MOVLW  55
07262:  MOVWF  FA7
07264:  MOVLW  AA
07266:  MOVWF  FA7
07268:  BSF    FA6.1
0726A:  BTFSC  FA6.1
0726C:  BRA    726A
0726E:  BCF    FA6.2
07270:  MOVF   00,W
07272:  IORWF  FF2,F
....................                delay_ms(20); 
07274:  MOVLW  14
07276:  MOVLB  6
07278:  MOVWF  x80
0727A:  MOVLB  0
0727C:  CALL   14A0
....................                write_eeprom(34,make8(minutos_trabajo,1)); 
07280:  MOVFF  4E4,66C
07284:  CLRF   FAA
07286:  MOVLW  22
07288:  MOVWF  FA9
0728A:  MOVFF  66C,FA8
0728E:  BCF    FA6.6
07290:  BCF    FA6.7
07292:  BSF    FA6.2
07294:  MOVF   FF2,W
07296:  MOVWF  00
07298:  BCF    FF2.7
0729A:  MOVLB  F
0729C:  MOVLW  55
0729E:  MOVWF  FA7
072A0:  MOVLW  AA
072A2:  MOVWF  FA7
072A4:  BSF    FA6.1
072A6:  BTFSC  FA6.1
072A8:  BRA    72A6
072AA:  BCF    FA6.2
072AC:  MOVF   00,W
072AE:  IORWF  FF2,F
....................                delay_ms(20); 
072B0:  MOVLW  14
072B2:  MOVLB  6
072B4:  MOVWF  x80
072B6:  MOVLB  0
072B8:  CALL   14A0
....................                write_eeprom(16,Ttrabajo[0]); 
072BC:  CLRF   FAA
072BE:  MOVLW  10
072C0:  MOVWF  FA9
072C2:  MOVFF  50B,FA8
072C6:  BCF    FA6.6
072C8:  BCF    FA6.7
072CA:  BSF    FA6.2
072CC:  MOVF   FF2,W
072CE:  MOVWF  00
072D0:  BCF    FF2.7
072D2:  MOVLB  F
072D4:  MOVLW  55
072D6:  MOVWF  FA7
072D8:  MOVLW  AA
072DA:  MOVWF  FA7
072DC:  BSF    FA6.1
072DE:  BTFSC  FA6.1
072E0:  BRA    72DE
072E2:  BCF    FA6.2
072E4:  MOVF   00,W
072E6:  IORWF  FF2,F
....................                delay_ms(20); 
072E8:  MOVLW  14
072EA:  MOVLB  6
072EC:  MOVWF  x80
072EE:  MOVLB  0
072F0:  CALL   14A0
....................                write_eeprom(17,Ttrabajo[1]); 
072F4:  CLRF   FAA
072F6:  MOVLW  11
072F8:  MOVWF  FA9
072FA:  MOVFF  50C,FA8
072FE:  BCF    FA6.6
07300:  BCF    FA6.7
07302:  BSF    FA6.2
07304:  MOVF   FF2,W
07306:  MOVWF  00
07308:  BCF    FF2.7
0730A:  MOVLB  F
0730C:  MOVLW  55
0730E:  MOVWF  FA7
07310:  MOVLW  AA
07312:  MOVWF  FA7
07314:  BSF    FA6.1
07316:  BTFSC  FA6.1
07318:  BRA    7316
0731A:  BCF    FA6.2
0731C:  MOVF   00,W
0731E:  IORWF  FF2,F
....................                delay_ms(20); 
07320:  MOVLW  14
07322:  MOVLB  6
07324:  MOVWF  x80
07326:  MOVLB  0
07328:  CALL   14A0
....................                write_eeprom(18,Ttrabajo[2]); 
0732C:  CLRF   FAA
0732E:  MOVLW  12
07330:  MOVWF  FA9
07332:  MOVFF  50D,FA8
07336:  BCF    FA6.6
07338:  BCF    FA6.7
0733A:  BSF    FA6.2
0733C:  MOVF   FF2,W
0733E:  MOVWF  00
07340:  BCF    FF2.7
07342:  MOVLB  F
07344:  MOVLW  55
07346:  MOVWF  FA7
07348:  MOVLW  AA
0734A:  MOVWF  FA7
0734C:  BSF    FA6.1
0734E:  BTFSC  FA6.1
07350:  BRA    734E
07352:  BCF    FA6.2
07354:  MOVF   00,W
07356:  IORWF  FF2,F
....................                delay_ms(20); 
07358:  MOVLW  14
0735A:  MOVLB  6
0735C:  MOVWF  x80
0735E:  MOVLB  0
07360:  CALL   14A0
....................                write_eeprom(19,Ttrabajo[3]); 
07364:  CLRF   FAA
07366:  MOVLW  13
07368:  MOVWF  FA9
0736A:  MOVFF  50E,FA8
0736E:  BCF    FA6.6
07370:  BCF    FA6.7
07372:  BSF    FA6.2
07374:  MOVF   FF2,W
07376:  MOVWF  00
07378:  BCF    FF2.7
0737A:  MOVLB  F
0737C:  MOVLW  55
0737E:  MOVWF  FA7
07380:  MOVLW  AA
07382:  MOVWF  FA7
07384:  BSF    FA6.1
07386:  BTFSC  FA6.1
07388:  BRA    7386
0738A:  BCF    FA6.2
0738C:  MOVF   00,W
0738E:  IORWF  FF2,F
....................                delay_ms(20); 
07390:  MOVLW  14
07392:  MOVLB  6
07394:  MOVWF  x80
07396:  MOVLB  0
07398:  CALL   14A0
....................                //glcd_init(ON);             //Inicializa la glcd 
....................                //glcd_fillScreen(OFF);      //Limpia la pantalla 
....................                glcd_update();   
0739C:  CALL   1558
073A0:  MOVLB  4
....................             } 
....................          } 
....................           
....................          if(flag_luz==1){ 
073A2:  BTFSS  x2D.1
073A4:  BRA    73BA
....................             glcd_imagen(3);LuzBlanca_on; 
073A6:  MOVLW  03
073A8:  MOVLB  6
073AA:  MOVWF  x6C
073AC:  MOVLB  0
073AE:  CALL   585E
073B2:  BCF    F8B.2
073B4:  BCF    F94.2
....................          }else{ 
073B6:  BRA    73DC
073B8:  MOVLB  4
....................             glcd_rect(102, 14, 126, 28, YES, OFF);LuzBlanca_off; 
073BA:  MOVLW  66
073BC:  MOVLB  6
073BE:  MOVWF  x84
073C0:  MOVLW  0E
073C2:  MOVWF  x85
073C4:  MOVLW  7E
073C6:  MOVWF  x86
073C8:  MOVLW  1C
073CA:  MOVWF  x87
073CC:  MOVLW  01
073CE:  MOVWF  x88
073D0:  CLRF   x89
073D2:  MOVLB  0
073D4:  CALL   4C74
073D8:  BSF    F8B.2
073DA:  BCF    F94.2
....................          } 
....................           
....................       if(tright>=30){ 
073DC:  MOVLB  4
073DE:  MOVF   xEC,F
073E0:  BNZ   73E8
073E2:  MOVF   xEB,W
073E4:  SUBLW  1D
073E6:  BC    7400
....................          if(Flanco4 == 0){ 
073E8:  BTFSC  x2C.4
073EA:  BRA    73FE
....................             Flanco4 = 1;delay_ms(3);flag_blower=!flag_blower; 
073EC:  BSF    x2C.4
073EE:  MOVLW  03
073F0:  MOVLB  6
073F2:  MOVWF  x80
073F4:  MOVLB  0
073F6:  CALL   14A0
073FA:  MOVLB  4
073FC:  BTG    x2C.7
....................          } 
....................       }else{ 
073FE:  BRA    7402
....................          Flanco4 = 0; 
07400:  BCF    x2C.4
....................       } 
....................           
....................       if(tleft>=30){//Si oprime boton de Blower. 
07402:  MOVF   xEE,F
07404:  BNZ   740C
07406:  MOVF   xED,W
07408:  SUBLW  1D
0740A:  BC    7432
....................          if(Flanco3 == 0){ 
0740C:  BTFSC  x2C.3
0740E:  BRA    7430
....................             Flanco3 = 1;delay_ms(3);Menu=33;glcd_fillScreen(OFF);      //Limpia la pantalla 
07410:  BSF    x2C.3
07412:  MOVLW  03
07414:  MOVLB  6
07416:  MOVWF  x80
07418:  MOVLB  0
0741A:  CALL   14A0
0741E:  MOVLW  21
07420:  MOVLB  4
07422:  MOVWF  xC7
07424:  MOVLB  6
07426:  CLRF   x73
07428:  MOVLB  0
0742A:  CALL   14FE
0742E:  MOVLB  4
....................          } 
....................       }else{ 
07430:  BRA    7434
....................          Flanco3 = 0; 
07432:  BCF    x2C.3
....................       } 
....................              
....................       if(tdown>=30){//Si oprime boton de Luz Blanca. 
07434:  MOVF   xEA,F
07436:  BNZ   743E
07438:  MOVF   xE9,W
0743A:  SUBLW  1D
0743C:  BC    7456
....................          if(Flanco5 == 0){ 
0743E:  BTFSC  x2C.5
07440:  BRA    7454
....................             Flanco5 = 1;delay_ms(3);flag_luz=!flag_luz; 
07442:  BSF    x2C.5
07444:  MOVLW  03
07446:  MOVLB  6
07448:  MOVWF  x80
0744A:  MOVLB  0
0744C:  CALL   14A0
07450:  MOVLB  4
07452:  BTG    x2D.1
....................          } 
....................       }else{ 
07454:  BRA    7458
....................          Flanco5 = 0; 
07456:  BCF    x2C.5
....................       } 
....................        
....................       if(tup>=30){//Si oprime boton de Toma. 
07458:  MOVF   xE8,F
0745A:  BNZ   7462
0745C:  MOVF   xE7,W
0745E:  SUBLW  1D
07460:  BC    74A6
....................          delay_ms(20); 
07462:  MOVLW  14
07464:  MOVLB  6
07466:  MOVWF  x80
07468:  MOVLB  0
0746A:  CALL   14A0
....................          if(UP){//Si oprime boton de Toma. 
0746E:  BSF    F92.5
07470:  BTFSC  F80.5
07472:  BRA    74A4
....................             delay_ms(5);Menu=3;//glcd_fillScreen(OFF); 
07474:  MOVLW  05
07476:  MOVLB  6
07478:  MOVWF  x80
0747A:  MOVLB  0
0747C:  CALL   14A0
07480:  MOVLW  03
07482:  MOVLB  4
07484:  MOVWF  xC7
....................             glcd_init(ON);             //Inicializa la glcd 
07486:  MOVLW  01
07488:  MOVLB  6
0748A:  MOVWF  x6C
0748C:  MOVLB  0
0748E:  CALL   1610
....................             glcd_fillScreen(OFF);      //Limpia la pantalla 
07492:  MOVLB  6
07494:  CLRF   x73
07496:  MOVLB  0
07498:  CALL   14FE
....................             glcd_update();   
0749C:  CALL   1558
....................             LuzBlanca_off; 
074A0:  BSF    F8B.2
074A2:  BCF    F94.2
074A4:  MOVLB  4
....................          } 
....................       } 
....................              
....................     } 
.................... //_--------------------------------------------------------------------------------------------------------------------------------------------------------        
....................  
.................... //_-------------------------------------------------------------------------------------------------------------------------------------------------------- 
....................       if(Menu==3){ //Menu Principal. 
074A6:  MOVF   xC7,W
074A8:  SUBLW  03
074AA:  BTFSS  FD8.2
074AC:  BRA    7794
....................              
....................       strcpy(Menus.Letra,"Menu"); 
074AE:  MOVLW  04
074B0:  MOVWF  FEA
074B2:  MOVLW  16
074B4:  MOVWF  FE9
074B6:  MOVFF  FF2,66C
074BA:  BCF    FF2.7
074BC:  MOVLW  00
074BE:  MOVLB  0
074C0:  CALL   0F84
074C4:  TBLRD*-
074C6:  TBLRD*+
074C8:  MOVF   FF5,W
074CA:  MOVWF  FEE
074CC:  IORLW  00
074CE:  BNZ   74C6
074D0:  MOVLB  6
074D2:  BTFSC  x6C.7
074D4:  BSF    FF2.7
....................       displayMenu(Menus.Letra,40,0,1,2); 
074D6:  MOVLW  04
074D8:  MOVWF  x74
074DA:  MOVLW  16
074DC:  MOVWF  x73
074DE:  MOVLW  28
074E0:  MOVWF  x75
074E2:  CLRF   x76
074E4:  MOVLW  01
074E6:  MOVWF  x77
074E8:  MOVLW  02
074EA:  MOVWF  x78
074EC:  MOVLB  0
074EE:  CALL   4FA6
....................        
....................       if(Opcion==1){ 
074F2:  MOVLB  4
074F4:  DECFSZ xC9,W
074F6:  BRA    753E
....................          strcpy(Menus.Letra,"Ajustes"); 
074F8:  MOVLW  04
074FA:  MOVWF  FEA
074FC:  MOVLW  16
074FE:  MOVWF  FE9
07500:  MOVFF  FF2,66C
07504:  BCF    FF2.7
07506:  MOVLW  00
07508:  MOVLB  0
0750A:  CALL   0FA4
0750E:  TBLRD*-
07510:  TBLRD*+
07512:  MOVF   FF5,W
07514:  MOVWF  FEE
07516:  IORLW  00
07518:  BNZ   7510
0751A:  MOVLB  6
0751C:  BTFSC  x6C.7
0751E:  BSF    FF2.7
....................          displayMenu(Menus.Letra,0,19,1,1); 
07520:  MOVLW  04
07522:  MOVWF  x74
07524:  MOVLW  16
07526:  MOVWF  x73
07528:  CLRF   x75
0752A:  MOVLW  13
0752C:  MOVWF  x76
0752E:  MOVLW  01
07530:  MOVWF  x77
07532:  MOVWF  x78
07534:  MOVLB  0
07536:  CALL   4FA6
....................       }else{ 
0753A:  BRA    7580
0753C:  MOVLB  4
....................          strcpy(Menus.Letra,"Ajustes"); 
0753E:  MOVLW  04
07540:  MOVWF  FEA
07542:  MOVLW  16
07544:  MOVWF  FE9
07546:  MOVFF  FF2,66C
0754A:  BCF    FF2.7
0754C:  MOVLW  00
0754E:  MOVLB  0
07550:  CALL   0FA4
07554:  TBLRD*-
07556:  TBLRD*+
07558:  MOVF   FF5,W
0755A:  MOVWF  FEE
0755C:  IORLW  00
0755E:  BNZ   7556
07560:  MOVLB  6
07562:  BTFSC  x6C.7
07564:  BSF    FF2.7
....................          displayMenu(Menus.Letra,0,19,0,1); 
07566:  MOVLW  04
07568:  MOVWF  x74
0756A:  MOVLW  16
0756C:  MOVWF  x73
0756E:  CLRF   x75
07570:  MOVLW  13
07572:  MOVWF  x76
07574:  CLRF   x77
07576:  MOVLW  01
07578:  MOVWF  x78
0757A:  MOVLB  0
0757C:  CALL   4FA6
....................       } 
....................           
....................       if(Opcion==2){ 
07580:  MOVLB  4
07582:  MOVF   xC9,W
07584:  SUBLW  02
07586:  BNZ   75CE
....................          strcpy(Menus.Letra,"Cambio de Clave"); 
07588:  MOVLW  04
0758A:  MOVWF  FEA
0758C:  MOVLW  16
0758E:  MOVWF  FE9
07590:  MOVFF  FF2,66C
07594:  BCF    FF2.7
07596:  MOVLW  00
07598:  MOVLB  0
0759A:  CALL   0FC6
0759E:  TBLRD*-
075A0:  TBLRD*+
075A2:  MOVF   FF5,W
075A4:  MOVWF  FEE
075A6:  IORLW  00
075A8:  BNZ   75A0
075AA:  MOVLB  6
075AC:  BTFSC  x6C.7
075AE:  BSF    FF2.7
....................          displayMenu(Menus.Letra,0,35,1,1); 
075B0:  MOVLW  04
075B2:  MOVWF  x74
075B4:  MOVLW  16
075B6:  MOVWF  x73
075B8:  CLRF   x75
075BA:  MOVLW  23
075BC:  MOVWF  x76
075BE:  MOVLW  01
075C0:  MOVWF  x77
075C2:  MOVWF  x78
075C4:  MOVLB  0
075C6:  CALL   4FA6
....................       }else{ 
075CA:  BRA    7610
075CC:  MOVLB  4
....................          strcpy(Menus.Letra,"Cambio de Clave"); 
075CE:  MOVLW  04
075D0:  MOVWF  FEA
075D2:  MOVLW  16
075D4:  MOVWF  FE9
075D6:  MOVFF  FF2,66C
075DA:  BCF    FF2.7
075DC:  MOVLW  00
075DE:  MOVLB  0
075E0:  CALL   0FC6
075E4:  TBLRD*-
075E6:  TBLRD*+
075E8:  MOVF   FF5,W
075EA:  MOVWF  FEE
075EC:  IORLW  00
075EE:  BNZ   75E6
075F0:  MOVLB  6
075F2:  BTFSC  x6C.7
075F4:  BSF    FF2.7
....................          displayMenu(Menus.Letra,0,35,0,1); 
075F6:  MOVLW  04
075F8:  MOVWF  x74
075FA:  MOVLW  16
075FC:  MOVWF  x73
075FE:  CLRF   x75
07600:  MOVLW  23
07602:  MOVWF  x76
07604:  CLRF   x77
07606:  MOVLW  01
07608:  MOVWF  x78
0760A:  MOVLB  0
0760C:  CALL   4FA6
....................       } 
....................           
....................       if(Opcion==3){ 
07610:  MOVLB  4
07612:  MOVF   xC9,W
07614:  SUBLW  03
07616:  BNZ   765E
....................          strcpy(Menus.Letra,"Modo"); 
07618:  MOVLW  04
0761A:  MOVWF  FEA
0761C:  MOVLW  16
0761E:  MOVWF  FE9
07620:  MOVFF  FF2,66C
07624:  BCF    FF2.7
07626:  MOVLW  00
07628:  MOVLB  0
0762A:  CALL   0FF0
0762E:  TBLRD*-
07630:  TBLRD*+
07632:  MOVF   FF5,W
07634:  MOVWF  FEE
07636:  IORLW  00
07638:  BNZ   7630
0763A:  MOVLB  6
0763C:  BTFSC  x6C.7
0763E:  BSF    FF2.7
....................          displayMenu(Menus.Letra,0,51,1,1); 
07640:  MOVLW  04
07642:  MOVWF  x74
07644:  MOVLW  16
07646:  MOVWF  x73
07648:  CLRF   x75
0764A:  MOVLW  33
0764C:  MOVWF  x76
0764E:  MOVLW  01
07650:  MOVWF  x77
07652:  MOVWF  x78
07654:  MOVLB  0
07656:  CALL   4FA6
....................       }else{ 
0765A:  BRA    76A0
0765C:  MOVLB  4
....................          strcpy(Menus.Letra,"Modo"); 
0765E:  MOVLW  04
07660:  MOVWF  FEA
07662:  MOVLW  16
07664:  MOVWF  FE9
07666:  MOVFF  FF2,66C
0766A:  BCF    FF2.7
0766C:  MOVLW  00
0766E:  MOVLB  0
07670:  CALL   0FF0
07674:  TBLRD*-
07676:  TBLRD*+
07678:  MOVF   FF5,W
0767A:  MOVWF  FEE
0767C:  IORLW  00
0767E:  BNZ   7676
07680:  MOVLB  6
07682:  BTFSC  x6C.7
07684:  BSF    FF2.7
....................          displayMenu(Menus.Letra,0,51,0,1); 
07686:  MOVLW  04
07688:  MOVWF  x74
0768A:  MOVLW  16
0768C:  MOVWF  x73
0768E:  CLRF   x75
07690:  MOVLW  33
07692:  MOVWF  x76
07694:  CLRF   x77
07696:  MOVLW  01
07698:  MOVWF  x78
0769A:  MOVLB  0
0769C:  CALL   4FA6
....................       } 
....................       glcd_update();  
076A0:  CALL   1558
....................        
....................       if(w==0){ 
076A4:  MOVLB  4
076A6:  BTFSC  x2D.3
076A8:  BRA    76C4
....................          delay_ms(500);w=1; 
076AA:  MOVLW  02
076AC:  MOVLB  6
076AE:  MOVWF  x6C
076B0:  MOVLW  FA
076B2:  MOVWF  x80
076B4:  MOVLB  0
076B6:  CALL   14A0
076BA:  MOVLB  6
076BC:  DECFSZ x6C,F
076BE:  BRA    76B0
076C0:  MOVLB  4
076C2:  BSF    x2D.3
....................       } 
....................           
....................       if(UP){//Si oprime hacia arriba         
076C4:  BSF    F92.5
076C6:  BTFSC  F80.5
076C8:  BRA    76E2
....................          if(Flanco == 0){ 
076CA:  BTFSC  x2C.0
076CC:  BRA    76E0
....................             Flanco = 1;delay_ms(30);Opcion--; 
076CE:  BSF    x2C.0
076D0:  MOVLW  1E
076D2:  MOVLB  6
076D4:  MOVWF  x80
076D6:  MOVLB  0
076D8:  CALL   14A0
076DC:  MOVLB  4
076DE:  DECF   xC9,F
....................          } 
....................       }else{ 
076E0:  BRA    76E4
....................          Flanco = 0; 
076E2:  BCF    x2C.0
....................       } 
....................              
....................       if(DOWN){//Si oprime hacia abajo 
076E4:  BSF    F96.0
076E6:  BTFSC  F84.0
076E8:  BRA    7702
....................          if(Flanco2 == 0){ 
076EA:  BTFSC  x2C.2
076EC:  BRA    7700
....................             Flanco2 = 1;delay_ms(30);Opcion++; 
076EE:  BSF    x2C.2
076F0:  MOVLW  1E
076F2:  MOVLB  6
076F4:  MOVWF  x80
076F6:  MOVLB  0
076F8:  CALL   14A0
076FC:  MOVLB  4
076FE:  INCF   xC9,F
....................          } 
....................       }else{ 
07700:  BRA    7704
....................          Flanco2 = 0; 
07702:  BCF    x2C.2
....................       } 
....................              
....................       if(RIGHT){//Si oprime SET 
07704:  BSF    F96.1
07706:  BTFSC  F84.1
07708:  BRA    7752
....................          if(Flanco1 == 0){ 
0770A:  BTFSC  x2C.1
0770C:  BRA    7750
....................             Flanco1 = 1;delay_ms(500);Menu=Opcion+3;Opcion=1;glcd_fillscreen(OFF);unidad=1; 
0770E:  BSF    x2C.1
07710:  MOVLW  02
07712:  MOVLB  6
07714:  MOVWF  x6C
07716:  MOVLW  FA
07718:  MOVWF  x80
0771A:  MOVLB  0
0771C:  CALL   14A0
07720:  MOVLB  6
07722:  DECFSZ x6C,F
07724:  BRA    7716
07726:  MOVLW  03
07728:  MOVLB  4
0772A:  ADDWF  xC9,W
0772C:  MOVWF  xC7
0772E:  MOVLW  01
07730:  MOVWF  xC9
07732:  MOVLB  6
07734:  CLRF   x73
07736:  MOVLB  0
07738:  CALL   14FE
0773C:  MOVLW  01
0773E:  MOVLB  4
07740:  MOVWF  xC8
....................             Contrasena[0]=0;Contrasena[1]=0;Contrasena[2]=0;Contrasena[3]=0;n=0; 
07742:  MOVLB  5
07744:  CLRF   x0F
07746:  CLRF   x10
07748:  CLRF   x11
0774A:  CLRF   x12
0774C:  MOVLB  4
0774E:  BCF    x2E.3
....................          } 
....................       }else{ 
07750:  BRA    7754
....................          Flanco1 = 0; 
07752:  BCF    x2C.1
....................       } 
....................              
....................       if(LEFT){//Si oprime boton de Toma. 
07754:  BSF    F96.2
07756:  BTFSC  F84.2
07758:  BRA    7782
....................          delay_ms(700);Menu=2;glcd_fillscreen(OFF); 
0775A:  MOVLW  04
0775C:  MOVLB  6
0775E:  MOVWF  x6C
07760:  MOVLW  AF
07762:  MOVWF  x80
07764:  MOVLB  0
07766:  CALL   14A0
0776A:  MOVLB  6
0776C:  DECFSZ x6C,F
0776E:  BRA    7760
07770:  MOVLW  02
07772:  MOVLB  4
07774:  MOVWF  xC7
07776:  MOVLB  6
07778:  CLRF   x73
0777A:  MOVLB  0
0777C:  CALL   14FE
07780:  MOVLB  4
....................       } 
....................              
....................       if(Opcion>3) 
07782:  MOVF   xC9,W
07784:  SUBLW  03
07786:  BC    778C
....................          Opcion=1; 
07788:  MOVLW  01
0778A:  MOVWF  xC9
....................       if(Opcion<1) 
0778C:  MOVF   xC9,F
0778E:  BNZ   7794
....................          Opcion=3; 
07790:  MOVLW  03
07792:  MOVWF  xC9
....................     } 
.................... //_--------------------------------------------------------------------------------------------------------------------------------------------------------        
....................  
.................... //_-------------------------------------------------------------------------------------------------------------------------------------------------------- 
....................       if(Menu==4){ //Menu de Ajustes. 
07794:  MOVF   xC7,W
07796:  SUBLW  04
07798:  BTFSS  FD8.2
0779A:  BRA    7A4A
....................        
....................       strcpy(Menus.Letra,"Ajustes"); 
0779C:  MOVLW  04
0779E:  MOVWF  FEA
077A0:  MOVLW  16
077A2:  MOVWF  FE9
077A4:  MOVFF  FF2,66C
077A8:  BCF    FF2.7
077AA:  MOVLW  00
077AC:  MOVLB  0
077AE:  CALL   0FA4
077B2:  TBLRD*-
077B4:  TBLRD*+
077B6:  MOVF   FF5,W
077B8:  MOVWF  FEE
077BA:  IORLW  00
077BC:  BNZ   77B4
077BE:  MOVLB  6
077C0:  BTFSC  x6C.7
077C2:  BSF    FF2.7
....................       displayMenu(Menus.Letra,0,0,1,2); 
077C4:  MOVLW  04
077C6:  MOVWF  x74
077C8:  MOVLW  16
077CA:  MOVWF  x73
077CC:  CLRF   x75
077CE:  CLRF   x76
077D0:  MOVLW  01
077D2:  MOVWF  x77
077D4:  MOVLW  02
077D6:  MOVWF  x78
077D8:  MOVLB  0
077DA:  CALL   4FA6
....................        
....................       if(Opcion==1)    
077DE:  MOVLB  4
077E0:  DECFSZ xC9,W
077E2:  BRA    782A
....................          {strcpy(Menus.Letra,"Tiempo Purga"); 
077E4:  MOVLW  04
077E6:  MOVWF  FEA
077E8:  MOVLW  16
077EA:  MOVWF  FE9
077EC:  MOVFF  FF2,66C
077F0:  BCF    FF2.7
077F2:  MOVLW  00
077F4:  MOVLB  0
077F6:  CALL   1010
077FA:  TBLRD*-
077FC:  TBLRD*+
077FE:  MOVF   FF5,W
07800:  MOVWF  FEE
07802:  IORLW  00
07804:  BNZ   77FC
07806:  MOVLB  6
07808:  BTFSC  x6C.7
0780A:  BSF    FF2.7
....................          displayMenu(Menus.Letra,0,20,1,1);} 
0780C:  MOVLW  04
0780E:  MOVWF  x74
07810:  MOVLW  16
07812:  MOVWF  x73
07814:  CLRF   x75
07816:  MOVLW  14
07818:  MOVWF  x76
0781A:  MOVLW  01
0781C:  MOVWF  x77
0781E:  MOVWF  x78
07820:  MOVLB  0
07822:  CALL   4FA6
....................       else 
07826:  BRA    786C
07828:  MOVLB  4
....................          {strcpy(Menus.Letra,"Tiempo Purga"); 
0782A:  MOVLW  04
0782C:  MOVWF  FEA
0782E:  MOVLW  16
07830:  MOVWF  FE9
07832:  MOVFF  FF2,66C
07836:  BCF    FF2.7
07838:  MOVLW  00
0783A:  MOVLB  0
0783C:  CALL   1010
07840:  TBLRD*-
07842:  TBLRD*+
07844:  MOVF   FF5,W
07846:  MOVWF  FEE
07848:  IORLW  00
0784A:  BNZ   7842
0784C:  MOVLB  6
0784E:  BTFSC  x6C.7
07850:  BSF    FF2.7
....................          displayMenu(Menus.Letra,0,20,0,1);}              
07852:  MOVLW  04
07854:  MOVWF  x74
07856:  MOVLW  16
07858:  MOVWF  x73
0785A:  CLRF   x75
0785C:  MOVLW  14
0785E:  MOVWF  x76
07860:  CLRF   x77
07862:  MOVLW  01
07864:  MOVWF  x78
07866:  MOVLB  0
07868:  CALL   4FA6
....................        
....................       if(Opcion==2)    
0786C:  MOVLB  4
0786E:  MOVF   xC9,W
07870:  SUBLW  02
07872:  BNZ   78BA
....................          {strcpy(Menus.Letra,"Tiempo Post-Purga"); 
07874:  MOVLW  04
07876:  MOVWF  FEA
07878:  MOVLW  16
0787A:  MOVWF  FE9
0787C:  MOVFF  FF2,66C
07880:  BCF    FF2.7
07882:  MOVLW  00
07884:  MOVLB  0
07886:  CALL   1038
0788A:  TBLRD*-
0788C:  TBLRD*+
0788E:  MOVF   FF5,W
07890:  MOVWF  FEE
07892:  IORLW  00
07894:  BNZ   788C
07896:  MOVLB  6
07898:  BTFSC  x6C.7
0789A:  BSF    FF2.7
....................          displayMenu(Menus.Letra,0,35,1,1);} 
0789C:  MOVLW  04
0789E:  MOVWF  x74
078A0:  MOVLW  16
078A2:  MOVWF  x73
078A4:  CLRF   x75
078A6:  MOVLW  23
078A8:  MOVWF  x76
078AA:  MOVLW  01
078AC:  MOVWF  x77
078AE:  MOVWF  x78
078B0:  MOVLB  0
078B2:  CALL   4FA6
....................       else 
078B6:  BRA    78FC
078B8:  MOVLB  4
....................          {strcpy(Menus.Letra,"Tiempo Post-Purga"); 
078BA:  MOVLW  04
078BC:  MOVWF  FEA
078BE:  MOVLW  16
078C0:  MOVWF  FE9
078C2:  MOVFF  FF2,66C
078C6:  BCF    FF2.7
078C8:  MOVLW  00
078CA:  MOVLB  0
078CC:  CALL   1038
078D0:  TBLRD*-
078D2:  TBLRD*+
078D4:  MOVF   FF5,W
078D6:  MOVWF  FEE
078D8:  IORLW  00
078DA:  BNZ   78D2
078DC:  MOVLB  6
078DE:  BTFSC  x6C.7
078E0:  BSF    FF2.7
....................          displayMenu(Menus.Letra,0,35,0,1);} 
078E2:  MOVLW  04
078E4:  MOVWF  x74
078E6:  MOVLW  16
078E8:  MOVWF  x73
078EA:  CLRF   x75
078EC:  MOVLW  23
078EE:  MOVWF  x76
078F0:  CLRF   x77
078F2:  MOVLW  01
078F4:  MOVWF  x78
078F6:  MOVLB  0
078F8:  CALL   4FA6
....................        
....................       if(Opcion==3)    
078FC:  MOVLB  4
078FE:  MOVF   xC9,W
07900:  SUBLW  03
07902:  BNZ   794A
....................          {strcpy(Menus.Letra,"Luz UV"); 
07904:  MOVLW  04
07906:  MOVWF  FEA
07908:  MOVLW  16
0790A:  MOVWF  FE9
0790C:  MOVFF  FF2,66C
07910:  BCF    FF2.7
07912:  MOVLW  00
07914:  MOVLB  0
07916:  CALL   1064
0791A:  TBLRD*-
0791C:  TBLRD*+
0791E:  MOVF   FF5,W
07920:  MOVWF  FEE
07922:  IORLW  00
07924:  BNZ   791C
07926:  MOVLB  6
07928:  BTFSC  x6C.7
0792A:  BSF    FF2.7
....................          displayMenu(Menus.Letra,0,50,1,1);} 
0792C:  MOVLW  04
0792E:  MOVWF  x74
07930:  MOVLW  16
07932:  MOVWF  x73
07934:  CLRF   x75
07936:  MOVLW  32
07938:  MOVWF  x76
0793A:  MOVLW  01
0793C:  MOVWF  x77
0793E:  MOVWF  x78
07940:  MOVLB  0
07942:  CALL   4FA6
....................       else 
07946:  BRA    798C
07948:  MOVLB  4
....................          {strcpy(Menus.Letra,"Luz UV"); 
0794A:  MOVLW  04
0794C:  MOVWF  FEA
0794E:  MOVLW  16
07950:  MOVWF  FE9
07952:  MOVFF  FF2,66C
07956:  BCF    FF2.7
07958:  MOVLW  00
0795A:  MOVLB  0
0795C:  CALL   1064
07960:  TBLRD*-
07962:  TBLRD*+
07964:  MOVF   FF5,W
07966:  MOVWF  FEE
07968:  IORLW  00
0796A:  BNZ   7962
0796C:  MOVLB  6
0796E:  BTFSC  x6C.7
07970:  BSF    FF2.7
....................          displayMenu(Menus.Letra,0,50,0,1);}    
07972:  MOVLW  04
07974:  MOVWF  x74
07976:  MOVLW  16
07978:  MOVWF  x73
0797A:  CLRF   x75
0797C:  MOVLW  32
0797E:  MOVWF  x76
07980:  CLRF   x77
07982:  MOVLW  01
07984:  MOVWF  x78
07986:  MOVLB  0
07988:  CALL   4FA6
....................           
....................       if(UP)//Si oprime hacia arriba 
0798C:  BSF    F92.5
0798E:  BTFSC  F80.5
07990:  BRA    79AC
....................       {  if(Flanco == 0)  
07992:  MOVLB  4
07994:  BTFSC  x2C.0
07996:  BRA    79AA
....................             {Flanco = 1;delay_ms(30);Opcion--; 
07998:  BSF    x2C.0
0799A:  MOVLW  1E
0799C:  MOVLB  6
0799E:  MOVWF  x80
079A0:  MOVLB  0
079A2:  CALL   14A0
079A6:  MOVLB  4
079A8:  DECF   xC9,F
....................             } 
....................       } 
....................          else 
079AA:  BRA    79B0
....................             {Flanco = 0;} 
079AC:  MOVLB  4
079AE:  BCF    x2C.0
....................              
....................       if(DOWN)//Si oprime hacia abajo 
079B0:  BSF    F96.0
079B2:  BTFSC  F84.0
079B4:  BRA    79CE
....................       {  if(Flanco2 == 0)  
079B6:  BTFSC  x2C.2
079B8:  BRA    79CC
....................             {Flanco2 = 1;delay_ms(30);Opcion++; 
079BA:  BSF    x2C.2
079BC:  MOVLW  1E
079BE:  MOVLB  6
079C0:  MOVWF  x80
079C2:  MOVLB  0
079C4:  CALL   14A0
079C8:  MOVLB  4
079CA:  INCF   xC9,F
....................             }      
....................       } 
....................          else 
079CC:  BRA    79D0
....................             {Flanco2 = 0;}   
079CE:  BCF    x2C.2
....................              
....................       if(RIGHT)//Si oprime SET 
079D0:  BSF    F96.1
079D2:  BTFSC  F84.1
079D4:  BRA    7A08
....................       {  if(Flanco1 == 0)  
079D6:  BTFSC  x2C.1
079D8:  BRA    7A06
....................             {Flanco1 = 1;delay_ms(500);Menu=Opcion+10;glcd_fillScreen(OFF); 
079DA:  BSF    x2C.1
079DC:  MOVLW  02
079DE:  MOVLB  6
079E0:  MOVWF  x6C
079E2:  MOVLW  FA
079E4:  MOVWF  x80
079E6:  MOVLB  0
079E8:  CALL   14A0
079EC:  MOVLB  6
079EE:  DECFSZ x6C,F
079F0:  BRA    79E2
079F2:  MOVLW  0A
079F4:  MOVLB  4
079F6:  ADDWF  xC9,W
079F8:  MOVWF  xC7
079FA:  MOVLB  6
079FC:  CLRF   x73
079FE:  MOVLB  0
07A00:  CALL   14FE
07A04:  MOVLB  4
....................             } 
....................       } 
....................          else 
07A06:  BRA    7A0A
....................             {Flanco1 = 0;}   
07A08:  BCF    x2C.1
....................              
....................       if(LEFT)//Si oprime boton de Toma. 
07A0A:  BSF    F96.2
07A0C:  BTFSC  F84.2
07A0E:  BRA    7A38
....................         {delay_ms(700);Menu=3;glcd_fillscreen(OFF);} 
07A10:  MOVLW  04
07A12:  MOVLB  6
07A14:  MOVWF  x6C
07A16:  MOVLW  AF
07A18:  MOVWF  x80
07A1A:  MOVLB  0
07A1C:  CALL   14A0
07A20:  MOVLB  6
07A22:  DECFSZ x6C,F
07A24:  BRA    7A16
07A26:  MOVLW  03
07A28:  MOVLB  4
07A2A:  MOVWF  xC7
07A2C:  MOVLB  6
07A2E:  CLRF   x73
07A30:  MOVLB  0
07A32:  CALL   14FE
07A36:  MOVLB  4
....................        
....................       if(Opcion>3) 
07A38:  MOVF   xC9,W
07A3A:  SUBLW  03
07A3C:  BC    7A42
....................       {Opcion=1;} 
07A3E:  MOVLW  01
07A40:  MOVWF  xC9
....................       if(Opcion<1) 
07A42:  MOVF   xC9,F
07A44:  BNZ   7A4A
....................       {Opcion=3;} 
07A46:  MOVLW  03
07A48:  MOVWF  xC9
....................      
....................     } 
.................... //_--------------------------------------------------------------------------------------------------------------------------------------------------------        
....................  
.................... //_-------------------------------------------------------------------------------------------------------------------------------------------------------- 
....................       if(Menu==6){ //Menu de Modo. 
07A4A:  MOVF   xC7,W
07A4C:  SUBLW  06
07A4E:  BTFSS  FD8.2
07A50:  BRA    7C78
....................        
....................       strcpy(Menus.Letra,"Modo"); 
07A52:  MOVLW  04
07A54:  MOVWF  FEA
07A56:  MOVLW  16
07A58:  MOVWF  FE9
07A5A:  MOVFF  FF2,66C
07A5E:  BCF    FF2.7
07A60:  MOVLW  00
07A62:  MOVLB  0
07A64:  CALL   0FF0
07A68:  TBLRD*-
07A6A:  TBLRD*+
07A6C:  MOVF   FF5,W
07A6E:  MOVWF  FEE
07A70:  IORLW  00
07A72:  BNZ   7A6A
07A74:  MOVLB  6
07A76:  BTFSC  x6C.7
07A78:  BSF    FF2.7
....................       displayMenu(Menus.Letra,40,0,1,2); 
07A7A:  MOVLW  04
07A7C:  MOVWF  x74
07A7E:  MOVLW  16
07A80:  MOVWF  x73
07A82:  MOVLW  28
07A84:  MOVWF  x75
07A86:  CLRF   x76
07A88:  MOVLW  01
07A8A:  MOVWF  x77
07A8C:  MOVLW  02
07A8E:  MOVWF  x78
07A90:  MOVLB  0
07A92:  CALL   4FA6
....................           
....................       if(Opcion==1)    
07A96:  MOVLB  4
07A98:  DECFSZ xC9,W
07A9A:  BRA    7AE2
....................          {strcpy(Menus.Letra,"Mantenimiento"); 
07A9C:  MOVLW  04
07A9E:  MOVWF  FEA
07AA0:  MOVLW  16
07AA2:  MOVWF  FE9
07AA4:  MOVFF  FF2,66C
07AA8:  BCF    FF2.7
07AAA:  MOVLW  00
07AAC:  MOVLB  0
07AAE:  CALL   1086
07AB2:  TBLRD*-
07AB4:  TBLRD*+
07AB6:  MOVF   FF5,W
07AB8:  MOVWF  FEE
07ABA:  IORLW  00
07ABC:  BNZ   7AB4
07ABE:  MOVLB  6
07AC0:  BTFSC  x6C.7
07AC2:  BSF    FF2.7
....................          displayMenu(Menus.Letra,0,19,1,1);} 
07AC4:  MOVLW  04
07AC6:  MOVWF  x74
07AC8:  MOVLW  16
07ACA:  MOVWF  x73
07ACC:  CLRF   x75
07ACE:  MOVLW  13
07AD0:  MOVWF  x76
07AD2:  MOVLW  01
07AD4:  MOVWF  x77
07AD6:  MOVWF  x78
07AD8:  MOVLB  0
07ADA:  CALL   4FA6
....................       else 
07ADE:  BRA    7B24
07AE0:  MOVLB  4
....................          {strcpy(Menus.Letra,"Mantenimiento"); 
07AE2:  MOVLW  04
07AE4:  MOVWF  FEA
07AE6:  MOVLW  16
07AE8:  MOVWF  FE9
07AEA:  MOVFF  FF2,66C
07AEE:  BCF    FF2.7
07AF0:  MOVLW  00
07AF2:  MOVLB  0
07AF4:  CALL   1086
07AF8:  TBLRD*-
07AFA:  TBLRD*+
07AFC:  MOVF   FF5,W
07AFE:  MOVWF  FEE
07B00:  IORLW  00
07B02:  BNZ   7AFA
07B04:  MOVLB  6
07B06:  BTFSC  x6C.7
07B08:  BSF    FF2.7
....................          displayMenu(Menus.Letra,0,19,0,1);}    
07B0A:  MOVLW  04
07B0C:  MOVWF  x74
07B0E:  MOVLW  16
07B10:  MOVWF  x73
07B12:  CLRF   x75
07B14:  MOVLW  13
07B16:  MOVWF  x76
07B18:  CLRF   x77
07B1A:  MOVLW  01
07B1C:  MOVWF  x78
07B1E:  MOVLB  0
07B20:  CALL   4FA6
....................           
....................       if(Opcion==2)    
07B24:  MOVLB  4
07B26:  MOVF   xC9,W
07B28:  SUBLW  02
07B2A:  BNZ   7B72
....................          {strcpy(Menus.Letra,"Servicio"); 
07B2C:  MOVLW  04
07B2E:  MOVWF  FEA
07B30:  MOVLW  16
07B32:  MOVWF  FE9
07B34:  MOVFF  FF2,66C
07B38:  BCF    FF2.7
07B3A:  MOVLW  00
07B3C:  MOVLB  0
07B3E:  CALL   10AE
07B42:  TBLRD*-
07B44:  TBLRD*+
07B46:  MOVF   FF5,W
07B48:  MOVWF  FEE
07B4A:  IORLW  00
07B4C:  BNZ   7B44
07B4E:  MOVLB  6
07B50:  BTFSC  x6C.7
07B52:  BSF    FF2.7
....................          displayMenu(Menus.Letra,0,35,1,1);} 
07B54:  MOVLW  04
07B56:  MOVWF  x74
07B58:  MOVLW  16
07B5A:  MOVWF  x73
07B5C:  CLRF   x75
07B5E:  MOVLW  23
07B60:  MOVWF  x76
07B62:  MOVLW  01
07B64:  MOVWF  x77
07B66:  MOVWF  x78
07B68:  MOVLB  0
07B6A:  CALL   4FA6
....................       else 
07B6E:  BRA    7BB4
07B70:  MOVLB  4
....................          {strcpy(Menus.Letra,"Servicio"); 
07B72:  MOVLW  04
07B74:  MOVWF  FEA
07B76:  MOVLW  16
07B78:  MOVWF  FE9
07B7A:  MOVFF  FF2,66C
07B7E:  BCF    FF2.7
07B80:  MOVLW  00
07B82:  MOVLB  0
07B84:  CALL   10AE
07B88:  TBLRD*-
07B8A:  TBLRD*+
07B8C:  MOVF   FF5,W
07B8E:  MOVWF  FEE
07B90:  IORLW  00
07B92:  BNZ   7B8A
07B94:  MOVLB  6
07B96:  BTFSC  x6C.7
07B98:  BSF    FF2.7
....................          displayMenu(Menus.Letra,0,35,0,1);} 
07B9A:  MOVLW  04
07B9C:  MOVWF  x74
07B9E:  MOVLW  16
07BA0:  MOVWF  x73
07BA2:  CLRF   x75
07BA4:  MOVLW  23
07BA6:  MOVWF  x76
07BA8:  CLRF   x77
07BAA:  MOVLW  01
07BAC:  MOVWF  x78
07BAE:  MOVLB  0
07BB0:  CALL   4FA6
....................           
....................       if(UP)//Si oprime hacia arriba 
07BB4:  BSF    F92.5
07BB6:  BTFSC  F80.5
07BB8:  BRA    7BD4
....................       {  if(Flanco == 0)  
07BBA:  MOVLB  4
07BBC:  BTFSC  x2C.0
07BBE:  BRA    7BD2
....................             {Flanco = 1;delay_ms(30);Opcion--; 
07BC0:  BSF    x2C.0
07BC2:  MOVLW  1E
07BC4:  MOVLB  6
07BC6:  MOVWF  x80
07BC8:  MOVLB  0
07BCA:  CALL   14A0
07BCE:  MOVLB  4
07BD0:  DECF   xC9,F
....................             } 
....................       } 
....................          else 
07BD2:  BRA    7BD8
....................             {Flanco = 0;} 
07BD4:  MOVLB  4
07BD6:  BCF    x2C.0
....................              
....................       if(DOWN)//Si oprime hacia abajo 
07BD8:  BSF    F96.0
07BDA:  BTFSC  F84.0
07BDC:  BRA    7BF6
....................       {  if(Flanco2 == 0)  
07BDE:  BTFSC  x2C.2
07BE0:  BRA    7BF4
....................             {Flanco2 = 1;delay_ms(30);Opcion++; 
07BE2:  BSF    x2C.2
07BE4:  MOVLW  1E
07BE6:  MOVLB  6
07BE8:  MOVWF  x80
07BEA:  MOVLB  0
07BEC:  CALL   14A0
07BF0:  MOVLB  4
07BF2:  INCF   xC9,F
....................             }      
....................       } 
....................          else 
07BF4:  BRA    7BF8
....................             {Flanco2 = 0;}   
07BF6:  BCF    x2C.2
....................              
....................       if(RIGHT)//Si oprime SET 
07BF8:  BSF    F96.1
07BFA:  BTFSC  F84.1
07BFC:  BRA    7C36
....................       {  if(Flanco1 == 0)  
07BFE:  BTFSC  x2C.1
07C00:  BRA    7C34
....................             {Flanco1 = 1;delay_ms(500);Menu=Opcion+30;glcd_fillScreen(OFF);Opcion=1;unidad=1; 
07C02:  BSF    x2C.1
07C04:  MOVLW  02
07C06:  MOVLB  6
07C08:  MOVWF  x6C
07C0A:  MOVLW  FA
07C0C:  MOVWF  x80
07C0E:  MOVLB  0
07C10:  CALL   14A0
07C14:  MOVLB  6
07C16:  DECFSZ x6C,F
07C18:  BRA    7C0A
07C1A:  MOVLW  1E
07C1C:  MOVLB  4
07C1E:  ADDWF  xC9,W
07C20:  MOVWF  xC7
07C22:  MOVLB  6
07C24:  CLRF   x73
07C26:  MOVLB  0
07C28:  CALL   14FE
07C2C:  MOVLW  01
07C2E:  MOVLB  4
07C30:  MOVWF  xC9
07C32:  MOVWF  xC8
....................             } 
....................       } 
....................          else 
07C34:  BRA    7C38
....................             {Flanco1 = 0;}   
07C36:  BCF    x2C.1
....................              
....................       if(LEFT)//Si oprime boton de Toma. 
07C38:  BSF    F96.2
07C3A:  BTFSC  F84.2
07C3C:  BRA    7C66
....................         {delay_ms(700);Menu=3;glcd_fillscreen(OFF);} 
07C3E:  MOVLW  04
07C40:  MOVLB  6
07C42:  MOVWF  x6C
07C44:  MOVLW  AF
07C46:  MOVWF  x80
07C48:  MOVLB  0
07C4A:  CALL   14A0
07C4E:  MOVLB  6
07C50:  DECFSZ x6C,F
07C52:  BRA    7C44
07C54:  MOVLW  03
07C56:  MOVLB  4
07C58:  MOVWF  xC7
07C5A:  MOVLB  6
07C5C:  CLRF   x73
07C5E:  MOVLB  0
07C60:  CALL   14FE
07C64:  MOVLB  4
....................       if(Opcion>2) 
07C66:  MOVF   xC9,W
07C68:  SUBLW  02
07C6A:  BC    7C70
....................       {Opcion=1;} 
07C6C:  MOVLW  01
07C6E:  MOVWF  xC9
....................       if(Opcion<1) 
07C70:  MOVF   xC9,F
07C72:  BNZ   7C78
....................       {Opcion=2;} 
07C74:  MOVLW  02
07C76:  MOVWF  xC9
....................      
....................     } 
.................... //_--------------------------------------------------------------------------------------------------------------------------------------------------------        
....................  
.................... //_-------------------------------------------------------------------------------------------------------------------------------------------------------- 
....................       if(Menu==13){ //Menu de Tempo UV. 
07C78:  MOVF   xC7,W
07C7A:  SUBLW  0D
07C7C:  BTFSS  FD8.2
07C7E:  BRA    7DDC
....................        
....................       strcpy(Menus.Letra,"Luz UV"); 
07C80:  MOVLW  04
07C82:  MOVWF  FEA
07C84:  MOVLW  16
07C86:  MOVWF  FE9
07C88:  MOVFF  FF2,66C
07C8C:  BCF    FF2.7
07C8E:  MOVLW  00
07C90:  MOVLB  0
07C92:  CALL   1064
07C96:  TBLRD*-
07C98:  TBLRD*+
07C9A:  MOVF   FF5,W
07C9C:  MOVWF  FEE
07C9E:  IORLW  00
07CA0:  BNZ   7C98
07CA2:  MOVLB  6
07CA4:  BTFSC  x6C.7
07CA6:  BSF    FF2.7
....................       displayMenu(Menus.Letra,30,0,1,2); 
07CA8:  MOVLW  04
07CAA:  MOVWF  x74
07CAC:  MOVLW  16
07CAE:  MOVWF  x73
07CB0:  MOVLW  1E
07CB2:  MOVWF  x75
07CB4:  CLRF   x76
07CB6:  MOVLW  01
07CB8:  MOVWF  x77
07CBA:  MOVLW  02
07CBC:  MOVWF  x78
07CBE:  MOVLB  0
07CC0:  CALL   4FA6
....................        
....................       if(!flag_uv){ 
07CC4:  MOVLB  4
07CC6:  BTFSC  x2D.4
07CC8:  BRA    7D16
....................          strcpy(Menus.Letra,"UV Off"); 
07CCA:  MOVLW  04
07CCC:  MOVWF  FEA
07CCE:  MOVLW  16
07CD0:  MOVWF  FE9
07CD2:  MOVFF  FF2,66C
07CD6:  BCF    FF2.7
07CD8:  MOVLW  00
07CDA:  MOVLB  0
07CDC:  CALL   10D2
07CE0:  TBLRD*-
07CE2:  TBLRD*+
07CE4:  MOVF   FF5,W
07CE6:  MOVWF  FEE
07CE8:  IORLW  00
07CEA:  BNZ   7CE2
07CEC:  MOVLB  6
07CEE:  BTFSC  x6C.7
07CF0:  BSF    FF2.7
....................          displayMenu(Menus.Letra,30,30,1,2); 
07CF2:  MOVLW  04
07CF4:  MOVWF  x74
07CF6:  MOVLW  16
07CF8:  MOVWF  x73
07CFA:  MOVLW  1E
07CFC:  MOVWF  x75
07CFE:  MOVWF  x76
07D00:  MOVLW  01
07D02:  MOVWF  x77
07D04:  MOVLW  02
07D06:  MOVWF  x78
07D08:  MOVLB  0
07D0A:  CALL   4FA6
....................          Aux_off; 
07D0E:  BCF    F8B.0
07D10:  BCF    F94.0
....................       }else{ 
07D12:  BRA    7D5E
07D14:  MOVLB  4
....................          strcpy(Menus.Letra,"UV On"); 
07D16:  MOVLW  04
07D18:  MOVWF  FEA
07D1A:  MOVLW  16
07D1C:  MOVWF  FE9
07D1E:  MOVFF  FF2,66C
07D22:  BCF    FF2.7
07D24:  MOVLW  00
07D26:  MOVLB  0
07D28:  CALL   10F4
07D2C:  TBLRD*-
07D2E:  TBLRD*+
07D30:  MOVF   FF5,W
07D32:  MOVWF  FEE
07D34:  IORLW  00
07D36:  BNZ   7D2E
07D38:  MOVLB  6
07D3A:  BTFSC  x6C.7
07D3C:  BSF    FF2.7
....................          displayMenu(Menus.Letra,30,30,1,2); 
07D3E:  MOVLW  04
07D40:  MOVWF  x74
07D42:  MOVLW  16
07D44:  MOVWF  x73
07D46:  MOVLW  1E
07D48:  MOVWF  x75
07D4A:  MOVWF  x76
07D4C:  MOVLW  01
07D4E:  MOVWF  x77
07D50:  MOVLW  02
07D52:  MOVWF  x78
07D54:  MOVLB  0
07D56:  CALL   4FA6
....................          Aux_on; 
07D5A:  BSF    F8B.0
07D5C:  BCF    F94.0
....................       } 
....................          
....................       if(UP)//Si oprime hacia arriba 
07D5E:  BSF    F92.5
07D60:  BTFSC  F80.5
07D62:  BRA    7D80
....................       {  if(Flanco == 0)  
07D64:  MOVLB  4
07D66:  BTFSC  x2C.0
07D68:  BRA    7D7C
....................             {Flanco = 1;delay_ms(30);flag_uv=1; 
07D6A:  BSF    x2C.0
07D6C:  MOVLW  1E
07D6E:  MOVLB  6
07D70:  MOVWF  x80
07D72:  MOVLB  0
07D74:  CALL   14A0
07D78:  MOVLB  4
07D7A:  BSF    x2D.4
....................             } 
....................       }else{ 
07D7C:  BRA    7D84
07D7E:  MOVLB  0
....................          Flanco = 0; 
07D80:  MOVLB  4
07D82:  BCF    x2C.0
....................       } 
....................              
....................       if(DOWN )//Si oprime hacia abajo 
07D84:  BSF    F96.0
07D86:  BTFSC  F84.0
07D88:  BRA    7DA2
....................       {  if(Flanco2 == 0)  
07D8A:  BTFSC  x2C.2
07D8C:  BRA    7DA0
....................             {Flanco2 = 1;delay_ms(30);flag_uv=0; 
07D8E:  BSF    x2C.2
07D90:  MOVLW  1E
07D92:  MOVLB  6
07D94:  MOVWF  x80
07D96:  MOVLB  0
07D98:  CALL   14A0
07D9C:  MOVLB  4
07D9E:  BCF    x2D.4
....................             }      
....................       }else{ 
07DA0:  BRA    7DA4
....................          Flanco2 = 0; 
07DA2:  BCF    x2C.2
....................       } 
....................              
....................       if(LEFT)//Si oprime boton de Toma. 
07DA4:  BSF    F96.2
07DA6:  BTFSC  F84.2
07DA8:  BRA    7DDC
....................       { 
....................          delay_ms(700);Menu=4;glcd_fillscreen(OFF);Opcion=1;unidad=1;Aux_off; 
07DAA:  MOVLW  04
07DAC:  MOVLB  6
07DAE:  MOVWF  x6C
07DB0:  MOVLW  AF
07DB2:  MOVWF  x80
07DB4:  MOVLB  0
07DB6:  CALL   14A0
07DBA:  MOVLB  6
07DBC:  DECFSZ x6C,F
07DBE:  BRA    7DB0
07DC0:  MOVLW  04
07DC2:  MOVLB  4
07DC4:  MOVWF  xC7
07DC6:  MOVLB  6
07DC8:  CLRF   x73
07DCA:  MOVLB  0
07DCC:  CALL   14FE
07DD0:  MOVLW  01
07DD2:  MOVLB  4
07DD4:  MOVWF  xC9
07DD6:  MOVWF  xC8
07DD8:  BCF    F8B.0
07DDA:  BCF    F94.0
....................       } 
....................      
....................     } 
.................... //_--------------------------------------------------------------------------------------------------------------------------------------------------------        
....................  
.................... //_-------------------------------------------------------------------------------------------------------------------------------------------------------- 
....................       if(Menu==11){ //Menu de Purga. 
07DDC:  MOVF   xC7,W
07DDE:  SUBLW  0B
07DE0:  BTFSS  FD8.2
07DE2:  BRA    81A6
....................        
....................       strcpy(Menus.Letra,"T. Purga"); 
07DE4:  MOVLW  04
07DE6:  MOVWF  FEA
07DE8:  MOVLW  16
07DEA:  MOVWF  FE9
07DEC:  MOVFF  FF2,66C
07DF0:  BCF    FF2.7
07DF2:  MOVLW  00
07DF4:  MOVLB  0
07DF6:  CALL   1114
07DFA:  TBLRD*-
07DFC:  TBLRD*+
07DFE:  MOVF   FF5,W
07E00:  MOVWF  FEE
07E02:  IORLW  00
07E04:  BNZ   7DFC
07E06:  MOVLB  6
07E08:  BTFSC  x6C.7
07E0A:  BSF    FF2.7
....................       displayMenu(Menus.Letra,10,0,1,2); 
07E0C:  MOVLW  04
07E0E:  MOVWF  x74
07E10:  MOVLW  16
07E12:  MOVWF  x73
07E14:  MOVLW  0A
07E16:  MOVWF  x75
07E18:  CLRF   x76
07E1A:  MOVLW  01
07E1C:  MOVWF  x77
07E1E:  MOVLW  02
07E20:  MOVWF  x78
07E22:  MOVLB  0
07E24:  CALL   4FA6
....................        
....................       if(unidad==4) 
07E28:  MOVLB  4
07E2A:  MOVF   xC8,W
07E2C:  SUBLW  04
07E2E:  BNZ   7E4E
....................       {displayTiempo(Tpurgap[3],20,40,1,2);} 
07E30:  MOVFF  4FA,66C
07E34:  MOVLW  14
07E36:  MOVLB  6
07E38:  MOVWF  x6D
07E3A:  MOVLW  28
07E3C:  MOVWF  x6E
07E3E:  MOVLW  01
07E40:  MOVWF  x6F
07E42:  MOVLW  02
07E44:  MOVWF  x70
07E46:  MOVLB  0
07E48:  CALL   5784
....................       else 
07E4C:  BRA    7E68
....................       {displayTiempo(Tpurgap[3],20,40,0,2);} 
07E4E:  MOVFF  4FA,66C
07E52:  MOVLW  14
07E54:  MOVLB  6
07E56:  MOVWF  x6D
07E58:  MOVLW  28
07E5A:  MOVWF  x6E
07E5C:  CLRF   x6F
07E5E:  MOVLW  02
07E60:  MOVWF  x70
07E62:  MOVLB  0
07E64:  CALL   5784
....................        
....................       if(unidad==3) 
07E68:  MOVLB  4
07E6A:  MOVF   xC8,W
07E6C:  SUBLW  03
07E6E:  BNZ   7E8C
....................       {displayTiempo(Tpurgap[2],40,40,1,2);} 
07E70:  MOVFF  4F9,66C
07E74:  MOVLW  28
07E76:  MOVLB  6
07E78:  MOVWF  x6D
07E7A:  MOVWF  x6E
07E7C:  MOVLW  01
07E7E:  MOVWF  x6F
07E80:  MOVLW  02
07E82:  MOVWF  x70
07E84:  MOVLB  0
07E86:  CALL   5784
....................       else 
07E8A:  BRA    7EA4
....................       {displayTiempo(Tpurgap[2],40,40,0,2);} 
07E8C:  MOVFF  4F9,66C
07E90:  MOVLW  28
07E92:  MOVLB  6
07E94:  MOVWF  x6D
07E96:  MOVWF  x6E
07E98:  CLRF   x6F
07E9A:  MOVLW  02
07E9C:  MOVWF  x70
07E9E:  MOVLB  0
07EA0:  CALL   5784
....................        
....................       if(unidad==2) 
07EA4:  MOVLB  4
07EA6:  MOVF   xC8,W
07EA8:  SUBLW  02
07EAA:  BNZ   7ECA
....................       {displayTiempo(Tpurgap[1],70,40,1,2);} 
07EAC:  MOVFF  4F8,66C
07EB0:  MOVLW  46
07EB2:  MOVLB  6
07EB4:  MOVWF  x6D
07EB6:  MOVLW  28
07EB8:  MOVWF  x6E
07EBA:  MOVLW  01
07EBC:  MOVWF  x6F
07EBE:  MOVLW  02
07EC0:  MOVWF  x70
07EC2:  MOVLB  0
07EC4:  CALL   5784
....................       else 
07EC8:  BRA    7EE4
....................       {displayTiempo(Tpurgap[1],70,40,0,2);} 
07ECA:  MOVFF  4F8,66C
07ECE:  MOVLW  46
07ED0:  MOVLB  6
07ED2:  MOVWF  x6D
07ED4:  MOVLW  28
07ED6:  MOVWF  x6E
07ED8:  CLRF   x6F
07EDA:  MOVLW  02
07EDC:  MOVWF  x70
07EDE:  MOVLB  0
07EE0:  CALL   5784
....................        
....................       if(unidad==1) 
07EE4:  MOVLB  4
07EE6:  DECFSZ xC8,W
07EE8:  BRA    7F08
....................       {displayTiempo(Tpurgap[0],90,40,1,2);} 
07EEA:  MOVFF  4F7,66C
07EEE:  MOVLW  5A
07EF0:  MOVLB  6
07EF2:  MOVWF  x6D
07EF4:  MOVLW  28
07EF6:  MOVWF  x6E
07EF8:  MOVLW  01
07EFA:  MOVWF  x6F
07EFC:  MOVLW  02
07EFE:  MOVWF  x70
07F00:  MOVLB  0
07F02:  CALL   5784
....................       else 
07F06:  BRA    7F22
....................       {displayTiempo(Tpurgap[0],90,40,0,2);} 
07F08:  MOVFF  4F7,66C
07F0C:  MOVLW  5A
07F0E:  MOVLB  6
07F10:  MOVWF  x6D
07F12:  MOVLW  28
07F14:  MOVWF  x6E
07F16:  CLRF   x6F
07F18:  MOVLW  02
07F1A:  MOVWF  x70
07F1C:  MOVLB  0
07F1E:  CALL   5784
....................        
....................       glcd_text57(60, 42, Dos_puntos, 2, ON); 
07F22:  MOVLW  3C
07F24:  MOVLB  6
07F26:  MOVWF  x84
07F28:  MOVLW  2A
07F2A:  MOVWF  x85
07F2C:  MOVLW  04
07F2E:  MOVWF  x87
07F30:  MOVLW  4D
07F32:  MOVWF  x86
07F34:  MOVLW  02
07F36:  MOVWF  x88
07F38:  MOVLW  01
07F3A:  MOVWF  x89
07F3C:  MOVLB  0
07F3E:  CALL   4D36
....................           
....................          
....................       if(UP)//Si oprime hacia arriba 
07F42:  BSF    F92.5
07F44:  BTFSC  F80.5
07F46:  BRA    7F72
....................       {  if(Flanco == 0)  
07F48:  MOVLB  4
07F4A:  BTFSC  x2C.0
07F4C:  BRA    7F70
....................             {Flanco = 1;delay_ms(30);Tpurgap[unidad-1]++; 
07F4E:  BSF    x2C.0
07F50:  MOVLW  1E
07F52:  MOVLB  6
07F54:  MOVWF  x80
07F56:  MOVLB  0
07F58:  CALL   14A0
07F5C:  MOVLW  01
07F5E:  MOVLB  4
07F60:  SUBWF  xC8,W
07F62:  CLRF   03
07F64:  ADDLW  F7
07F66:  MOVWF  FE9
07F68:  MOVLW  04
07F6A:  ADDWFC 03,W
07F6C:  MOVWF  FEA
07F6E:  INCF   FEF,F
....................             } 
....................       } 
....................          else 
07F70:  BRA    7F76
....................             {Flanco = 0;} 
07F72:  MOVLB  4
07F74:  BCF    x2C.0
....................              
....................       if(DOWN)//Si oprime hacia abajo 
07F76:  BSF    F96.0
07F78:  BTFSC  F84.0
07F7A:  BRA    7FA4
....................       {  if(Flanco2 == 0)  
07F7C:  BTFSC  x2C.2
07F7E:  BRA    7FA2
....................             {Flanco2 = 1;delay_ms(30);Tpurgap[unidad-1]--; 
07F80:  BSF    x2C.2
07F82:  MOVLW  1E
07F84:  MOVLB  6
07F86:  MOVWF  x80
07F88:  MOVLB  0
07F8A:  CALL   14A0
07F8E:  MOVLW  01
07F90:  MOVLB  4
07F92:  SUBWF  xC8,W
07F94:  CLRF   03
07F96:  ADDLW  F7
07F98:  MOVWF  FE9
07F9A:  MOVLW  04
07F9C:  ADDWFC 03,W
07F9E:  MOVWF  FEA
07FA0:  DECF   FEF,F
....................             }      
....................       } 
....................          else 
07FA2:  BRA    7FA6
....................             {Flanco2 = 0;}   
07FA4:  BCF    x2C.2
....................              
....................       if(RIGHT)//Si oprime SET 
07FA6:  BSF    F96.1
07FA8:  BTFSC  F84.1
07FAA:  BRA    7FC4
....................       {  if(Flanco1 == 0)  
07FAC:  BTFSC  x2C.1
07FAE:  BRA    7FC2
....................             {Flanco1 = 1;delay_ms(30);unidad--; 
07FB0:  BSF    x2C.1
07FB2:  MOVLW  1E
07FB4:  MOVLB  6
07FB6:  MOVWF  x80
07FB8:  MOVLB  0
07FBA:  CALL   14A0
07FBE:  MOVLB  4
07FC0:  DECF   xC8,F
....................             } 
....................       } 
....................          else 
07FC2:  BRA    7FC6
....................             {Flanco1 = 0;}   
07FC4:  BCF    x2C.1
....................              
....................       if(LEFT)//Si oprime boton de Toma. 
07FC6:  BSF    F96.2
07FC8:  BTFSC  F84.2
07FCA:  BRA    80DA
....................       { 
....................          delay_ms(700);Menu=4;glcd_fillscreen(OFF);Opcion=1;unidad=1; 
07FCC:  MOVLW  04
07FCE:  MOVLB  6
07FD0:  MOVWF  x6C
07FD2:  MOVLW  AF
07FD4:  MOVWF  x80
07FD6:  MOVLB  0
07FD8:  CALL   14A0
07FDC:  MOVLB  6
07FDE:  DECFSZ x6C,F
07FE0:  BRA    7FD2
07FE2:  MOVLW  04
07FE4:  MOVLB  4
07FE6:  MOVWF  xC7
07FE8:  MOVLB  6
07FEA:  CLRF   x73
07FEC:  MOVLB  0
07FEE:  CALL   14FE
07FF2:  MOVLW  01
07FF4:  MOVLB  4
07FF6:  MOVWF  xC9
07FF8:  MOVWF  xC8
....................          write_eeprom(4,Tpurgap[0]); 
07FFA:  CLRF   FAA
07FFC:  MOVLW  04
07FFE:  MOVWF  FA9
08000:  MOVFF  4F7,FA8
08004:  BCF    FA6.6
08006:  BCF    FA6.7
08008:  BSF    FA6.2
0800A:  MOVF   FF2,W
0800C:  MOVWF  00
0800E:  BCF    FF2.7
08010:  MOVLB  F
08012:  MOVLW  55
08014:  MOVWF  FA7
08016:  MOVLW  AA
08018:  MOVWF  FA7
0801A:  BSF    FA6.1
0801C:  BTFSC  FA6.1
0801E:  BRA    801C
08020:  BCF    FA6.2
08022:  MOVF   00,W
08024:  IORWF  FF2,F
....................          delay_ms(20); 
08026:  MOVLW  14
08028:  MOVLB  6
0802A:  MOVWF  x80
0802C:  MOVLB  0
0802E:  CALL   14A0
....................          write_eeprom(5,Tpurgap[1]); 
08032:  CLRF   FAA
08034:  MOVLW  05
08036:  MOVWF  FA9
08038:  MOVFF  4F8,FA8
0803C:  BCF    FA6.6
0803E:  BCF    FA6.7
08040:  BSF    FA6.2
08042:  MOVF   FF2,W
08044:  MOVWF  00
08046:  BCF    FF2.7
08048:  MOVLB  F
0804A:  MOVLW  55
0804C:  MOVWF  FA7
0804E:  MOVLW  AA
08050:  MOVWF  FA7
08052:  BSF    FA6.1
08054:  BTFSC  FA6.1
08056:  BRA    8054
08058:  BCF    FA6.2
0805A:  MOVF   00,W
0805C:  IORWF  FF2,F
....................          delay_ms(20); 
0805E:  MOVLW  14
08060:  MOVLB  6
08062:  MOVWF  x80
08064:  MOVLB  0
08066:  CALL   14A0
....................          write_eeprom(6,Tpurgap[2]); 
0806A:  CLRF   FAA
0806C:  MOVLW  06
0806E:  MOVWF  FA9
08070:  MOVFF  4F9,FA8
08074:  BCF    FA6.6
08076:  BCF    FA6.7
08078:  BSF    FA6.2
0807A:  MOVF   FF2,W
0807C:  MOVWF  00
0807E:  BCF    FF2.7
08080:  MOVLB  F
08082:  MOVLW  55
08084:  MOVWF  FA7
08086:  MOVLW  AA
08088:  MOVWF  FA7
0808A:  BSF    FA6.1
0808C:  BTFSC  FA6.1
0808E:  BRA    808C
08090:  BCF    FA6.2
08092:  MOVF   00,W
08094:  IORWF  FF2,F
....................          delay_ms(20); 
08096:  MOVLW  14
08098:  MOVLB  6
0809A:  MOVWF  x80
0809C:  MOVLB  0
0809E:  CALL   14A0
....................          write_eeprom(7,Tpurgap[3]); 
080A2:  CLRF   FAA
080A4:  MOVLW  07
080A6:  MOVWF  FA9
080A8:  MOVFF  4FA,FA8
080AC:  BCF    FA6.6
080AE:  BCF    FA6.7
080B0:  BSF    FA6.2
080B2:  MOVF   FF2,W
080B4:  MOVWF  00
080B6:  BCF    FF2.7
080B8:  MOVLB  F
080BA:  MOVLW  55
080BC:  MOVWF  FA7
080BE:  MOVLW  AA
080C0:  MOVWF  FA7
080C2:  BSF    FA6.1
080C4:  BTFSC  FA6.1
080C6:  BRA    80C4
080C8:  BCF    FA6.2
080CA:  MOVF   00,W
080CC:  IORWF  FF2,F
....................          delay_ms(20); 
080CE:  MOVLW  14
080D0:  MOVLB  6
080D2:  MOVWF  x80
080D4:  MOVLB  0
080D6:  CALL   14A0
....................       } 
....................        
....................       for(i=0;i<4;i++) 
080DA:  MOVLB  5
080DC:  CLRF   xD5
080DE:  MOVF   xD5,W
080E0:  SUBLW  03
080E2:  BNC   8136
....................       { 
....................          if(Tpurgap[i]>9) 
080E4:  CLRF   03
080E6:  MOVF   xD5,W
080E8:  ADDLW  F7
080EA:  MOVWF  FE9
080EC:  MOVLW  04
080EE:  ADDWFC 03,W
080F0:  MOVWF  FEA
080F2:  BTFSC  FEF.7
080F4:  BRA    810C
080F6:  MOVF   FEF,W
080F8:  SUBLW  09
080FA:  BC    810C
....................          {Tpurgap[i]=0;} 
080FC:  CLRF   03
080FE:  MOVF   xD5,W
08100:  ADDLW  F7
08102:  MOVWF  FE9
08104:  MOVLW  04
08106:  ADDWFC 03,W
08108:  MOVWF  FEA
0810A:  CLRF   FEF
....................           
....................          if(Tpurgap[i]<0) 
0810C:  CLRF   03
0810E:  MOVF   xD5,W
08110:  ADDLW  F7
08112:  MOVWF  FE9
08114:  MOVLW  04
08116:  ADDWFC 03,W
08118:  MOVWF  FEA
0811A:  BTFSC  FEF.7
0811C:  BRA    8120
0811E:  BRA    8132
....................          {Tpurgap[i]=9;} 
08120:  CLRF   03
08122:  MOVF   xD5,W
08124:  ADDLW  F7
08126:  MOVWF  FE9
08128:  MOVLW  04
0812A:  ADDWFC 03,W
0812C:  MOVWF  FEA
0812E:  MOVLW  09
08130:  MOVWF  FEF
....................       }       
08132:  INCF   xD5,F
08134:  BRA    80DE
....................       for(i=1;i<4;i++) 
08136:  MOVLW  01
08138:  MOVWF  xD5
0813A:  MOVF   xD5,W
0813C:  SUBLW  03
0813E:  BNC   8194
....................       { 
....................          if(Tpurgap[i]>5) 
08140:  CLRF   03
08142:  MOVF   xD5,W
08144:  ADDLW  F7
08146:  MOVWF  FE9
08148:  MOVLW  04
0814A:  ADDWFC 03,W
0814C:  MOVWF  FEA
0814E:  BTFSC  FEF.7
08150:  BRA    8168
08152:  MOVF   FEF,W
08154:  SUBLW  05
08156:  BC    8168
....................          {Tpurgap[i]=0;} 
08158:  CLRF   03
0815A:  MOVF   xD5,W
0815C:  ADDLW  F7
0815E:  MOVWF  FE9
08160:  MOVLW  04
08162:  ADDWFC 03,W
08164:  MOVWF  FEA
08166:  CLRF   FEF
....................           
....................          if(Tpurgap[i]<0) 
08168:  CLRF   03
0816A:  MOVF   xD5,W
0816C:  ADDLW  F7
0816E:  MOVWF  FE9
08170:  MOVLW  04
08172:  ADDWFC 03,W
08174:  MOVWF  FEA
08176:  BTFSC  FEF.7
08178:  BRA    817C
0817A:  BRA    818E
....................          {Tpurgap[i]=5;} 
0817C:  CLRF   03
0817E:  MOVF   xD5,W
08180:  ADDLW  F7
08182:  MOVWF  FE9
08184:  MOVLW  04
08186:  ADDWFC 03,W
08188:  MOVWF  FEA
0818A:  MOVLW  05
0818C:  MOVWF  FEF
....................         i++;  
0818E:  INCF   xD5,F
....................       } 
08190:  INCF   xD5,F
08192:  BRA    813A
....................       if(unidad<1) 
08194:  MOVLB  4
08196:  MOVF   xC8,F
08198:  BNZ   819E
....................       {unidad=4;} 
0819A:  MOVLW  04
0819C:  MOVWF  xC8
....................       if(Opcion<1) 
0819E:  MOVF   xC9,F
081A0:  BNZ   81A6
....................       {Opcion=4;} 
081A2:  MOVLW  04
081A4:  MOVWF  xC9
....................      
....................     } 
.................... //_--------------------------------------------------------------------------------------------------------------------------------------------------------        
....................  
.................... //_-------------------------------------------------------------------------------------------------------------------------------------------------------- 
....................       if(Menu==12){ //Menu de Post-Purga. 
081A6:  MOVF   xC7,W
081A8:  SUBLW  0C
081AA:  BTFSS  FD8.2
081AC:  BRA    856E
....................        
....................       strcpy(Menus.Letra,"T. Post-Purga"); 
081AE:  MOVLW  04
081B0:  MOVWF  FEA
081B2:  MOVLW  16
081B4:  MOVWF  FE9
081B6:  MOVFF  FF2,66C
081BA:  BCF    FF2.7
081BC:  MOVLW  00
081BE:  MOVLB  0
081C0:  CALL   1138
081C4:  TBLRD*-
081C6:  TBLRD*+
081C8:  MOVF   FF5,W
081CA:  MOVWF  FEE
081CC:  IORLW  00
081CE:  BNZ   81C6
081D0:  MOVLB  6
081D2:  BTFSC  x6C.7
081D4:  BSF    FF2.7
....................       displayMenu(Menus.Letra,0,0,1,2); 
081D6:  MOVLW  04
081D8:  MOVWF  x74
081DA:  MOVLW  16
081DC:  MOVWF  x73
081DE:  CLRF   x75
081E0:  CLRF   x76
081E2:  MOVLW  01
081E4:  MOVWF  x77
081E6:  MOVLW  02
081E8:  MOVWF  x78
081EA:  MOVLB  0
081EC:  CALL   4FA6
....................        
....................       if(unidad==4) 
081F0:  MOVLB  4
081F2:  MOVF   xC8,W
081F4:  SUBLW  04
081F6:  BNZ   8216
....................       {displayTiempo(Tppurgap[3],20,40,1,2);} 
081F8:  MOVFF  502,66C
081FC:  MOVLW  14
081FE:  MOVLB  6
08200:  MOVWF  x6D
08202:  MOVLW  28
08204:  MOVWF  x6E
08206:  MOVLW  01
08208:  MOVWF  x6F
0820A:  MOVLW  02
0820C:  MOVWF  x70
0820E:  MOVLB  0
08210:  CALL   5784
....................       else 
08214:  BRA    8230
....................       {displayTiempo(Tppurgap[3],20,40,0,2);} 
08216:  MOVFF  502,66C
0821A:  MOVLW  14
0821C:  MOVLB  6
0821E:  MOVWF  x6D
08220:  MOVLW  28
08222:  MOVWF  x6E
08224:  CLRF   x6F
08226:  MOVLW  02
08228:  MOVWF  x70
0822A:  MOVLB  0
0822C:  CALL   5784
....................        
....................       if(unidad==3) 
08230:  MOVLB  4
08232:  MOVF   xC8,W
08234:  SUBLW  03
08236:  BNZ   8254
....................       {displayTiempo(Tppurgap[2],40,40,1,2);} 
08238:  MOVFF  501,66C
0823C:  MOVLW  28
0823E:  MOVLB  6
08240:  MOVWF  x6D
08242:  MOVWF  x6E
08244:  MOVLW  01
08246:  MOVWF  x6F
08248:  MOVLW  02
0824A:  MOVWF  x70
0824C:  MOVLB  0
0824E:  CALL   5784
....................       else 
08252:  BRA    826C
....................       {displayTiempo(Tppurgap[2],40,40,0,2);} 
08254:  MOVFF  501,66C
08258:  MOVLW  28
0825A:  MOVLB  6
0825C:  MOVWF  x6D
0825E:  MOVWF  x6E
08260:  CLRF   x6F
08262:  MOVLW  02
08264:  MOVWF  x70
08266:  MOVLB  0
08268:  CALL   5784
....................        
....................       if(unidad==2) 
0826C:  MOVLB  4
0826E:  MOVF   xC8,W
08270:  SUBLW  02
08272:  BNZ   8292
....................       {displayTiempo(Tppurgap[1],70,40,1,2);} 
08274:  MOVFF  500,66C
08278:  MOVLW  46
0827A:  MOVLB  6
0827C:  MOVWF  x6D
0827E:  MOVLW  28
08280:  MOVWF  x6E
08282:  MOVLW  01
08284:  MOVWF  x6F
08286:  MOVLW  02
08288:  MOVWF  x70
0828A:  MOVLB  0
0828C:  CALL   5784
....................       else 
08290:  BRA    82AC
....................       {displayTiempo(Tppurgap[1],70,40,0,2);} 
08292:  MOVFF  500,66C
08296:  MOVLW  46
08298:  MOVLB  6
0829A:  MOVWF  x6D
0829C:  MOVLW  28
0829E:  MOVWF  x6E
082A0:  CLRF   x6F
082A2:  MOVLW  02
082A4:  MOVWF  x70
082A6:  MOVLB  0
082A8:  CALL   5784
....................        
....................       if(unidad==1) 
082AC:  MOVLB  4
082AE:  DECFSZ xC8,W
082B0:  BRA    82D0
....................       {displayTiempo(Tppurgap[0],90,40,1,2);} 
082B2:  MOVFF  4FF,66C
082B6:  MOVLW  5A
082B8:  MOVLB  6
082BA:  MOVWF  x6D
082BC:  MOVLW  28
082BE:  MOVWF  x6E
082C0:  MOVLW  01
082C2:  MOVWF  x6F
082C4:  MOVLW  02
082C6:  MOVWF  x70
082C8:  MOVLB  0
082CA:  CALL   5784
....................       else 
082CE:  BRA    82EA
....................       {displayTiempo(Tppurgap[0],90,40,0,2);} 
082D0:  MOVFF  4FF,66C
082D4:  MOVLW  5A
082D6:  MOVLB  6
082D8:  MOVWF  x6D
082DA:  MOVLW  28
082DC:  MOVWF  x6E
082DE:  CLRF   x6F
082E0:  MOVLW  02
082E2:  MOVWF  x70
082E4:  MOVLB  0
082E6:  CALL   5784
....................        
....................       glcd_text57(60, 42, Dos_puntos, 2, ON); 
082EA:  MOVLW  3C
082EC:  MOVLB  6
082EE:  MOVWF  x84
082F0:  MOVLW  2A
082F2:  MOVWF  x85
082F4:  MOVLW  04
082F6:  MOVWF  x87
082F8:  MOVLW  4D
082FA:  MOVWF  x86
082FC:  MOVLW  02
082FE:  MOVWF  x88
08300:  MOVLW  01
08302:  MOVWF  x89
08304:  MOVLB  0
08306:  CALL   4D36
....................           
....................          
....................       if(UP)//Si oprime hacia arriba 
0830A:  BSF    F92.5
0830C:  BTFSC  F80.5
0830E:  BRA    833A
....................       {  if(Flanco == 0)  
08310:  MOVLB  4
08312:  BTFSC  x2C.0
08314:  BRA    8338
....................             {Flanco = 1;delay_ms(30);Tppurgap[unidad-1]++; 
08316:  BSF    x2C.0
08318:  MOVLW  1E
0831A:  MOVLB  6
0831C:  MOVWF  x80
0831E:  MOVLB  0
08320:  CALL   14A0
08324:  MOVLW  01
08326:  MOVLB  4
08328:  SUBWF  xC8,W
0832A:  CLRF   03
0832C:  ADDLW  FF
0832E:  MOVWF  FE9
08330:  MOVLW  04
08332:  ADDWFC 03,W
08334:  MOVWF  FEA
08336:  INCF   FEF,F
....................             } 
....................       } 
....................          else 
08338:  BRA    833E
....................             {Flanco = 0;} 
0833A:  MOVLB  4
0833C:  BCF    x2C.0
....................              
....................       if(DOWN)//Si oprime hacia abajo 
0833E:  BSF    F96.0
08340:  BTFSC  F84.0
08342:  BRA    836C
....................       {  if(Flanco2 == 0)  
08344:  BTFSC  x2C.2
08346:  BRA    836A
....................             {Flanco2 = 1;delay_ms(30);Tppurgap[unidad-1]--; 
08348:  BSF    x2C.2
0834A:  MOVLW  1E
0834C:  MOVLB  6
0834E:  MOVWF  x80
08350:  MOVLB  0
08352:  CALL   14A0
08356:  MOVLW  01
08358:  MOVLB  4
0835A:  SUBWF  xC8,W
0835C:  CLRF   03
0835E:  ADDLW  FF
08360:  MOVWF  FE9
08362:  MOVLW  04
08364:  ADDWFC 03,W
08366:  MOVWF  FEA
08368:  DECF   FEF,F
....................             }      
....................       } 
....................          else 
0836A:  BRA    836E
....................             {Flanco2 = 0;}   
0836C:  BCF    x2C.2
....................              
....................       if(RIGHT)//Si oprime SET 
0836E:  BSF    F96.1
08370:  BTFSC  F84.1
08372:  BRA    838C
....................       {  if(Flanco1 == 0)  
08374:  BTFSC  x2C.1
08376:  BRA    838A
....................             {Flanco1 = 1;delay_ms(30);unidad--; 
08378:  BSF    x2C.1
0837A:  MOVLW  1E
0837C:  MOVLB  6
0837E:  MOVWF  x80
08380:  MOVLB  0
08382:  CALL   14A0
08386:  MOVLB  4
08388:  DECF   xC8,F
....................             } 
....................       } 
....................          else 
0838A:  BRA    838E
....................             {Flanco1 = 0;}   
0838C:  BCF    x2C.1
....................              
....................       if(LEFT)//Si oprime boton de Toma. 
0838E:  BSF    F96.2
08390:  BTFSC  F84.2
08392:  BRA    84A2
....................       { 
....................          delay_ms(700);Menu=4;glcd_fillscreen(OFF);Opcion=1;unidad=1; 
08394:  MOVLW  04
08396:  MOVLB  6
08398:  MOVWF  x6C
0839A:  MOVLW  AF
0839C:  MOVWF  x80
0839E:  MOVLB  0
083A0:  CALL   14A0
083A4:  MOVLB  6
083A6:  DECFSZ x6C,F
083A8:  BRA    839A
083AA:  MOVLW  04
083AC:  MOVLB  4
083AE:  MOVWF  xC7
083B0:  MOVLB  6
083B2:  CLRF   x73
083B4:  MOVLB  0
083B6:  CALL   14FE
083BA:  MOVLW  01
083BC:  MOVLB  4
083BE:  MOVWF  xC9
083C0:  MOVWF  xC8
....................          write_eeprom(8,Tppurgap[0]); 
083C2:  CLRF   FAA
083C4:  MOVLW  08
083C6:  MOVWF  FA9
083C8:  MOVFF  4FF,FA8
083CC:  BCF    FA6.6
083CE:  BCF    FA6.7
083D0:  BSF    FA6.2
083D2:  MOVF   FF2,W
083D4:  MOVWF  00
083D6:  BCF    FF2.7
083D8:  MOVLB  F
083DA:  MOVLW  55
083DC:  MOVWF  FA7
083DE:  MOVLW  AA
083E0:  MOVWF  FA7
083E2:  BSF    FA6.1
083E4:  BTFSC  FA6.1
083E6:  BRA    83E4
083E8:  BCF    FA6.2
083EA:  MOVF   00,W
083EC:  IORWF  FF2,F
....................          delay_ms(20); 
083EE:  MOVLW  14
083F0:  MOVLB  6
083F2:  MOVWF  x80
083F4:  MOVLB  0
083F6:  CALL   14A0
....................          write_eeprom(9,Tppurgap[1]); 
083FA:  CLRF   FAA
083FC:  MOVLW  09
083FE:  MOVWF  FA9
08400:  MOVFF  500,FA8
08404:  BCF    FA6.6
08406:  BCF    FA6.7
08408:  BSF    FA6.2
0840A:  MOVF   FF2,W
0840C:  MOVWF  00
0840E:  BCF    FF2.7
08410:  MOVLB  F
08412:  MOVLW  55
08414:  MOVWF  FA7
08416:  MOVLW  AA
08418:  MOVWF  FA7
0841A:  BSF    FA6.1
0841C:  BTFSC  FA6.1
0841E:  BRA    841C
08420:  BCF    FA6.2
08422:  MOVF   00,W
08424:  IORWF  FF2,F
....................          delay_ms(20); 
08426:  MOVLW  14
08428:  MOVLB  6
0842A:  MOVWF  x80
0842C:  MOVLB  0
0842E:  CALL   14A0
....................          write_eeprom(10,Tppurgap[2]); 
08432:  CLRF   FAA
08434:  MOVLW  0A
08436:  MOVWF  FA9
08438:  MOVFF  501,FA8
0843C:  BCF    FA6.6
0843E:  BCF    FA6.7
08440:  BSF    FA6.2
08442:  MOVF   FF2,W
08444:  MOVWF  00
08446:  BCF    FF2.7
08448:  MOVLB  F
0844A:  MOVLW  55
0844C:  MOVWF  FA7
0844E:  MOVLW  AA
08450:  MOVWF  FA7
08452:  BSF    FA6.1
08454:  BTFSC  FA6.1
08456:  BRA    8454
08458:  BCF    FA6.2
0845A:  MOVF   00,W
0845C:  IORWF  FF2,F
....................          delay_ms(20); 
0845E:  MOVLW  14
08460:  MOVLB  6
08462:  MOVWF  x80
08464:  MOVLB  0
08466:  CALL   14A0
....................          write_eeprom(11,Tppurgap[3]); 
0846A:  CLRF   FAA
0846C:  MOVLW  0B
0846E:  MOVWF  FA9
08470:  MOVFF  502,FA8
08474:  BCF    FA6.6
08476:  BCF    FA6.7
08478:  BSF    FA6.2
0847A:  MOVF   FF2,W
0847C:  MOVWF  00
0847E:  BCF    FF2.7
08480:  MOVLB  F
08482:  MOVLW  55
08484:  MOVWF  FA7
08486:  MOVLW  AA
08488:  MOVWF  FA7
0848A:  BSF    FA6.1
0848C:  BTFSC  FA6.1
0848E:  BRA    848C
08490:  BCF    FA6.2
08492:  MOVF   00,W
08494:  IORWF  FF2,F
....................          delay_ms(20); 
08496:  MOVLW  14
08498:  MOVLB  6
0849A:  MOVWF  x80
0849C:  MOVLB  0
0849E:  CALL   14A0
....................       } 
....................              
....................       for(i=0;i<4;i++) 
084A2:  MOVLB  5
084A4:  CLRF   xD5
084A6:  MOVF   xD5,W
084A8:  SUBLW  03
084AA:  BNC   84FE
....................       { 
....................          if(Tppurgap[i]>9) 
084AC:  CLRF   03
084AE:  MOVF   xD5,W
084B0:  ADDLW  FF
084B2:  MOVWF  FE9
084B4:  MOVLW  04
084B6:  ADDWFC 03,W
084B8:  MOVWF  FEA
084BA:  BTFSC  FEF.7
084BC:  BRA    84D4
084BE:  MOVF   FEF,W
084C0:  SUBLW  09
084C2:  BC    84D4
....................          {Tppurgap[i]=0;} 
084C4:  CLRF   03
084C6:  MOVF   xD5,W
084C8:  ADDLW  FF
084CA:  MOVWF  FE9
084CC:  MOVLW  04
084CE:  ADDWFC 03,W
084D0:  MOVWF  FEA
084D2:  CLRF   FEF
....................           
....................          if(Tppurgap[i]<0) 
084D4:  CLRF   03
084D6:  MOVF   xD5,W
084D8:  ADDLW  FF
084DA:  MOVWF  FE9
084DC:  MOVLW  04
084DE:  ADDWFC 03,W
084E0:  MOVWF  FEA
084E2:  BTFSC  FEF.7
084E4:  BRA    84E8
084E6:  BRA    84FA
....................          {Tppurgap[i]=9;} 
084E8:  CLRF   03
084EA:  MOVF   xD5,W
084EC:  ADDLW  FF
084EE:  MOVWF  FE9
084F0:  MOVLW  04
084F2:  ADDWFC 03,W
084F4:  MOVWF  FEA
084F6:  MOVLW  09
084F8:  MOVWF  FEF
....................       } 
084FA:  INCF   xD5,F
084FC:  BRA    84A6
....................        
....................       for(i=1;i<4;i++) 
084FE:  MOVLW  01
08500:  MOVWF  xD5
08502:  MOVF   xD5,W
08504:  SUBLW  03
08506:  BNC   855C
....................       { 
....................          if(Tppurgap[i]>5) 
08508:  CLRF   03
0850A:  MOVF   xD5,W
0850C:  ADDLW  FF
0850E:  MOVWF  FE9
08510:  MOVLW  04
08512:  ADDWFC 03,W
08514:  MOVWF  FEA
08516:  BTFSC  FEF.7
08518:  BRA    8530
0851A:  MOVF   FEF,W
0851C:  SUBLW  05
0851E:  BC    8530
....................          {Tppurgap[i]=0;} 
08520:  CLRF   03
08522:  MOVF   xD5,W
08524:  ADDLW  FF
08526:  MOVWF  FE9
08528:  MOVLW  04
0852A:  ADDWFC 03,W
0852C:  MOVWF  FEA
0852E:  CLRF   FEF
....................           
....................          if(Tppurgap[i]<0) 
08530:  CLRF   03
08532:  MOVF   xD5,W
08534:  ADDLW  FF
08536:  MOVWF  FE9
08538:  MOVLW  04
0853A:  ADDWFC 03,W
0853C:  MOVWF  FEA
0853E:  BTFSC  FEF.7
08540:  BRA    8544
08542:  BRA    8556
....................          {Tppurgap[i]=5;} 
08544:  CLRF   03
08546:  MOVF   xD5,W
08548:  ADDLW  FF
0854A:  MOVWF  FE9
0854C:  MOVLW  04
0854E:  ADDWFC 03,W
08550:  MOVWF  FEA
08552:  MOVLW  05
08554:  MOVWF  FEF
....................         i++;  
08556:  INCF   xD5,F
....................       } 
08558:  INCF   xD5,F
0855A:  BRA    8502
....................       if(unidad<1) 
0855C:  MOVLB  4
0855E:  MOVF   xC8,F
08560:  BNZ   8566
....................       {unidad=4;} 
08562:  MOVLW  04
08564:  MOVWF  xC8
....................       if(Opcion<1) 
08566:  MOVF   xC9,F
08568:  BNZ   856E
....................       {Opcion=4;} 
0856A:  MOVLW  04
0856C:  MOVWF  xC9
....................      
....................     } 
.................... //_--------------------------------------------------------------------------------------------------------------------------------------------------------        
....................  
.................... //_-------------------------------------------------------------------------------------------------------------------------------------------------------- 
....................       if(Menu==5){ //Menu de Clave. 
0856E:  MOVF   xC7,W
08570:  SUBLW  05
08572:  BNZ   85D2
....................  
....................       PidePassword(3,5,211,Password[0],Password[1],Password[2],Password[3]); 
08574:  MOVLW  03
08576:  MOVLB  6
08578:  MOVWF  x6C
0857A:  MOVLW  05
0857C:  MOVWF  x6D
0857E:  MOVLW  D3
08580:  MOVWF  x6E
08582:  MOVFF  513,66F
08586:  MOVFF  514,670
0858A:  MOVFF  515,671
0858E:  MOVFF  516,672
08592:  MOVLB  0
08594:  CALL   5072
....................              
....................       if(LEFT)//Si oprime boton de Toma. 
08598:  BSF    F96.2
0859A:  BTFSC  F84.2
0859C:  BRA    85D4
....................       { 
....................          delay_ms(200); 
0859E:  MOVLW  C8
085A0:  MOVLB  6
085A2:  MOVWF  x80
085A4:  MOVLB  0
085A6:  CALL   14A0
....................          if(unidad==1){ 
085AA:  MOVLB  4
085AC:  DECFSZ xC8,W
085AE:  BRA    85D2
....................             Menu=3;glcd_fillscreen(OFF);Opcion=1;unidad=1;Contrasena[0]=0;Contrasena[1]=0;Contrasena[2]=0;Contrasena[3]=0; 
085B0:  MOVLW  03
085B2:  MOVWF  xC7
085B4:  MOVLB  6
085B6:  CLRF   x73
085B8:  MOVLB  0
085BA:  CALL   14FE
085BE:  MOVLW  01
085C0:  MOVLB  4
085C2:  MOVWF  xC9
085C4:  MOVWF  xC8
085C6:  MOVLB  5
085C8:  CLRF   x0F
085CA:  CLRF   x10
085CC:  CLRF   x11
085CE:  CLRF   x12
085D0:  MOVLB  4
085D2:  MOVLB  0
....................          } 
....................       }  
....................     } 
.................... //_--------------------------------------------------------------------------------------------------------------------------------------------------------        
....................  
.................... //_-------------------------------------------------------------------------------------------------------------------------------------------------------- 
....................       if(Menu==211){ //Menu de Cambio Clave. 
085D4:  MOVLB  4
085D6:  MOVF   xC7,W
085D8:  SUBLW  D3
085DA:  BTFSS  FD8.2
085DC:  BRA    8A88
....................        
....................       if(n==0) 
085DE:  BTFSC  x2E.3
085E0:  BRA    8640
....................       { 
....................          displayContrasena(Contrasena[0],20,30,1);displayContrasena(Contrasena[1],40,30,0); 
085E2:  MOVFF  50F,675
085E6:  MOVLW  14
085E8:  MOVLB  6
085EA:  MOVWF  x76
085EC:  MOVLW  1E
085EE:  MOVWF  x77
085F0:  MOVLW  01
085F2:  MOVWF  x78
085F4:  MOVLB  0
085F6:  CALL   4EEE
085FA:  MOVFF  510,675
085FE:  MOVLW  28
08600:  MOVLB  6
08602:  MOVWF  x76
08604:  MOVLW  1E
08606:  MOVWF  x77
08608:  CLRF   x78
0860A:  MOVLB  0
0860C:  CALL   4EEE
....................          displayContrasena(Contrasena[2],60,30,0);displayContrasena(Contrasena[0],80,30,0); 
08610:  MOVFF  511,675
08614:  MOVLW  3C
08616:  MOVLB  6
08618:  MOVWF  x76
0861A:  MOVLW  1E
0861C:  MOVWF  x77
0861E:  CLRF   x78
08620:  MOVLB  0
08622:  CALL   4EEE
08626:  MOVFF  50F,675
0862A:  MOVLW  50
0862C:  MOVLB  6
0862E:  MOVWF  x76
08630:  MOVLW  1E
08632:  MOVWF  x77
08634:  CLRF   x78
08636:  MOVLB  0
08638:  CALL   4EEE
....................          n=1; 
0863C:  MOVLB  4
0863E:  BSF    x2E.3
....................       } 
....................       strcpy(Menus.Letra,"Clave Nueva"); 
08640:  MOVLW  04
08642:  MOVWF  FEA
08644:  MOVLW  16
08646:  MOVWF  FE9
08648:  MOVFF  FF2,66C
0864C:  BCF    FF2.7
0864E:  MOVLW  00
08650:  MOVLB  0
08652:  CALL   1160
08656:  TBLRD*-
08658:  TBLRD*+
0865A:  MOVF   FF5,W
0865C:  MOVWF  FEE
0865E:  IORLW  00
08660:  BNZ   8658
08662:  MOVLB  6
08664:  BTFSC  x6C.7
08666:  BSF    FF2.7
....................       displayMenu(Menus.Letra,0,0,1,2); 
08668:  MOVLW  04
0866A:  MOVWF  x74
0866C:  MOVLW  16
0866E:  MOVWF  x73
08670:  CLRF   x75
08672:  CLRF   x76
08674:  MOVLW  01
08676:  MOVWF  x77
08678:  MOVLW  02
0867A:  MOVWF  x78
0867C:  MOVLB  0
0867E:  CALL   4FA6
....................          
....................        
....................       if(UP)//Si oprime hacia arriba 
08682:  BSF    F92.5
08684:  BTFSC  F80.5
08686:  BRA    8764
....................       {  if(Flanco == 0)  
08688:  MOVLB  4
0868A:  BTFSC  x2C.0
0868C:  BRA    8762
....................             {Flanco = 1;delay_ms(30); 
0868E:  BSF    x2C.0
08690:  MOVLW  1E
08692:  MOVLB  6
08694:  MOVWF  x80
08696:  MOVLB  0
08698:  CALL   14A0
....................             for(i=1;i<=4;i++) 
0869C:  MOVLW  01
0869E:  MOVLB  5
086A0:  MOVWF  xD5
086A2:  MOVF   xD5,W
086A4:  SUBLW  04
086A6:  BNC   8760
....................                { 
....................                   if(unidad==i) 
086A8:  MOVF   xD5,W
086AA:  MOVLB  4
086AC:  SUBWF  xC8,W
086AE:  BNZ   8726
....................                   {Contrasena[i-1]++; 
086B0:  MOVLW  01
086B2:  MOVLB  5
086B4:  SUBWF  xD5,W
086B6:  CLRF   03
086B8:  ADDLW  0F
086BA:  MOVWF  FE9
086BC:  MOVLW  05
086BE:  ADDWFC 03,W
086C0:  MOVWF  FEA
086C2:  INCF   FEF,F
....................                   if(Contrasena[i-1]>9) 
086C4:  MOVLW  01
086C6:  SUBWF  xD5,W
086C8:  CLRF   03
086CA:  ADDLW  0F
086CC:  MOVWF  FE9
086CE:  MOVLW  05
086D0:  ADDWFC 03,W
086D2:  MOVWF  FEA
086D4:  BTFSC  FEF.7
086D6:  BRA    86F0
086D8:  MOVF   FEF,W
086DA:  SUBLW  09
086DC:  BC    86F0
....................                         {Contrasena[i-1]=0;} 
086DE:  MOVLW  01
086E0:  SUBWF  xD5,W
086E2:  CLRF   03
086E4:  ADDLW  0F
086E6:  MOVWF  FE9
086E8:  MOVLW  05
086EA:  ADDWFC 03,W
086EC:  MOVWF  FEA
086EE:  CLRF   FEF
....................                   displayContrasena(Contrasena[i-1],i*20,30,1);} 
086F0:  MOVLW  01
086F2:  SUBWF  xD5,W
086F4:  CLRF   03
086F6:  ADDLW  0F
086F8:  MOVWF  FE9
086FA:  MOVLW  05
086FC:  ADDWFC 03,W
086FE:  MOVWF  FEA
08700:  MOVFF  FEF,66C
08704:  MOVF   xD5,W
08706:  MULLW  14
08708:  MOVFF  FF3,66D
0870C:  MOVLB  6
0870E:  MOVFF  66C,675
08712:  MOVFF  66D,676
08716:  MOVLW  1E
08718:  MOVWF  x77
0871A:  MOVLW  01
0871C:  MOVWF  x78
0871E:  MOVLB  0
08720:  CALL   4EEE
....................                   else 
08724:  BRA    875A
....................                   {displayContrasena(Contrasena[i-1],i*20,30,0);} 
08726:  MOVLW  01
08728:  MOVLB  5
0872A:  SUBWF  xD5,W
0872C:  CLRF   03
0872E:  ADDLW  0F
08730:  MOVWF  FE9
08732:  MOVLW  05
08734:  ADDWFC 03,W
08736:  MOVWF  FEA
08738:  MOVFF  FEF,66C
0873C:  MOVF   xD5,W
0873E:  MULLW  14
08740:  MOVFF  FF3,66D
08744:  MOVLB  6
08746:  MOVFF  66C,675
0874A:  MOVFF  66D,676
0874E:  MOVLW  1E
08750:  MOVWF  x77
08752:  CLRF   x78
08754:  MOVLB  0
08756:  CALL   4EEE
....................                } 
0875A:  MOVLB  5
0875C:  INCF   xD5,F
0875E:  BRA    86A2
08760:  MOVLB  4
....................             } 
....................       } 
....................          else 
08762:  BRA    8768
....................             {Flanco = 0;} 
08764:  MOVLB  4
08766:  BCF    x2C.0
....................              
....................       if(DOWN )//Si oprime hacia abajo 
08768:  BSF    F96.0
0876A:  BTFSC  F84.0
0876C:  BRA    8846
....................       {  if(Flanco2 == 0)  
0876E:  BTFSC  x2C.2
08770:  BRA    8844
....................             {Flanco2 = 1;delay_ms(30); 
08772:  BSF    x2C.2
08774:  MOVLW  1E
08776:  MOVLB  6
08778:  MOVWF  x80
0877A:  MOVLB  0
0877C:  CALL   14A0
....................                for(i=1;i<=4;i++) 
08780:  MOVLW  01
08782:  MOVLB  5
08784:  MOVWF  xD5
08786:  MOVF   xD5,W
08788:  SUBLW  04
0878A:  BNC   8842
....................                { 
....................                   if(unidad==i) 
0878C:  MOVF   xD5,W
0878E:  MOVLB  4
08790:  SUBWF  xC8,W
08792:  BNZ   8808
....................                   {Contrasena[i-1]--;  
08794:  MOVLW  01
08796:  MOVLB  5
08798:  SUBWF  xD5,W
0879A:  CLRF   03
0879C:  ADDLW  0F
0879E:  MOVWF  FE9
087A0:  MOVLW  05
087A2:  ADDWFC 03,W
087A4:  MOVWF  FEA
087A6:  DECF   FEF,F
....................                      if(Contrasena[i-1]<0) 
087A8:  MOVLW  01
087AA:  SUBWF  xD5,W
087AC:  CLRF   03
087AE:  ADDLW  0F
087B0:  MOVWF  FE9
087B2:  MOVLW  05
087B4:  ADDWFC 03,W
087B6:  MOVWF  FEA
087B8:  BTFSC  FEF.7
087BA:  BRA    87BE
087BC:  BRA    87D2
....................                         {Contrasena[i-1]=9;} 
087BE:  MOVLW  01
087C0:  SUBWF  xD5,W
087C2:  CLRF   03
087C4:  ADDLW  0F
087C6:  MOVWF  FE9
087C8:  MOVLW  05
087CA:  ADDWFC 03,W
087CC:  MOVWF  FEA
087CE:  MOVLW  09
087D0:  MOVWF  FEF
....................                    displayContrasena(Contrasena[i-1],i*20,30,1);} 
087D2:  MOVLW  01
087D4:  SUBWF  xD5,W
087D6:  CLRF   03
087D8:  ADDLW  0F
087DA:  MOVWF  FE9
087DC:  MOVLW  05
087DE:  ADDWFC 03,W
087E0:  MOVWF  FEA
087E2:  MOVFF  FEF,66C
087E6:  MOVF   xD5,W
087E8:  MULLW  14
087EA:  MOVFF  FF3,66D
087EE:  MOVLB  6
087F0:  MOVFF  66C,675
087F4:  MOVFF  66D,676
087F8:  MOVLW  1E
087FA:  MOVWF  x77
087FC:  MOVLW  01
087FE:  MOVWF  x78
08800:  MOVLB  0
08802:  CALL   4EEE
....................                   else 
08806:  BRA    883C
....................                   {displayContrasena(Contrasena[i-1],i*20,30,0);} 
08808:  MOVLW  01
0880A:  MOVLB  5
0880C:  SUBWF  xD5,W
0880E:  CLRF   03
08810:  ADDLW  0F
08812:  MOVWF  FE9
08814:  MOVLW  05
08816:  ADDWFC 03,W
08818:  MOVWF  FEA
0881A:  MOVFF  FEF,66C
0881E:  MOVF   xD5,W
08820:  MULLW  14
08822:  MOVFF  FF3,66D
08826:  MOVLB  6
08828:  MOVFF  66C,675
0882C:  MOVFF  66D,676
08830:  MOVLW  1E
08832:  MOVWF  x77
08834:  CLRF   x78
08836:  MOVLB  0
08838:  CALL   4EEE
....................                }       
0883C:  MOVLB  5
0883E:  INCF   xD5,F
08840:  BRA    8786
08842:  MOVLB  4
....................             }      
....................       } 
....................          else 
08844:  BRA    8848
....................             {Flanco2 = 0;}   
08846:  BCF    x2C.2
....................              
....................       if(RIGHT)//Si oprime SET 
08848:  BSF    F96.1
0884A:  BTFSC  F84.1
0884C:  BRA    88EE
....................       {  if(Flanco1 == 0)  
0884E:  BTFSC  x2C.1
08850:  BRA    88EC
....................             {Flanco1 = 1;delay_ms(30);unidad++; 
08852:  BSF    x2C.1
08854:  MOVLW  1E
08856:  MOVLB  6
08858:  MOVWF  x80
0885A:  MOVLB  0
0885C:  CALL   14A0
08860:  MOVLB  4
08862:  INCF   xC8,F
....................                for(i=1;i<=4;i++) 
08864:  MOVLW  01
08866:  MOVLB  5
08868:  MOVWF  xD5
0886A:  MOVF   xD5,W
0886C:  SUBLW  04
0886E:  BNC   88EA
....................                { 
....................                   if(unidad==i) 
08870:  MOVF   xD5,W
08872:  MOVLB  4
08874:  SUBWF  xC8,W
08876:  BNZ   88B0
....................                   {displayContrasena(Contrasena[i-1],i*20,30,1);} 
08878:  MOVLW  01
0887A:  MOVLB  5
0887C:  SUBWF  xD5,W
0887E:  CLRF   03
08880:  ADDLW  0F
08882:  MOVWF  FE9
08884:  MOVLW  05
08886:  ADDWFC 03,W
08888:  MOVWF  FEA
0888A:  MOVFF  FEF,66C
0888E:  MOVF   xD5,W
08890:  MULLW  14
08892:  MOVFF  FF3,66D
08896:  MOVLB  6
08898:  MOVFF  66C,675
0889C:  MOVFF  66D,676
088A0:  MOVLW  1E
088A2:  MOVWF  x77
088A4:  MOVLW  01
088A6:  MOVWF  x78
088A8:  MOVLB  0
088AA:  CALL   4EEE
....................                   else 
088AE:  BRA    88E4
....................                   {displayContrasena(Contrasena[i-1],i*20,30,0);} 
088B0:  MOVLW  01
088B2:  MOVLB  5
088B4:  SUBWF  xD5,W
088B6:  CLRF   03
088B8:  ADDLW  0F
088BA:  MOVWF  FE9
088BC:  MOVLW  05
088BE:  ADDWFC 03,W
088C0:  MOVWF  FEA
088C2:  MOVFF  FEF,66C
088C6:  MOVF   xD5,W
088C8:  MULLW  14
088CA:  MOVFF  FF3,66D
088CE:  MOVLB  6
088D0:  MOVFF  66C,675
088D4:  MOVFF  66D,676
088D8:  MOVLW  1E
088DA:  MOVWF  x77
088DC:  CLRF   x78
088DE:  MOVLB  0
088E0:  CALL   4EEE
....................                } 
088E4:  MOVLB  5
088E6:  INCF   xD5,F
088E8:  BRA    886A
088EA:  MOVLB  4
....................             } 
....................       } 
....................          else 
088EC:  BRA    88F0
....................             {Flanco1 = 0;}   
088EE:  BCF    x2C.1
....................              
....................       if(LEFT)//Si oprime boton de Toma. 
088F0:  BSF    F96.2
088F2:  BTFSC  F84.2
088F4:  BRA    8934
....................       { 
....................          
....................          delay_ms(700); 
088F6:  MOVLW  04
088F8:  MOVLB  6
088FA:  MOVWF  x6C
088FC:  MOVLW  AF
088FE:  MOVWF  x80
08900:  MOVLB  0
08902:  CALL   14A0
08906:  MOVLB  6
08908:  DECFSZ x6C,F
0890A:  BRA    88FC
....................          if(unidad==1){ 
0890C:  MOVLB  4
0890E:  DECFSZ xC8,W
08910:  BRA    8934
....................             Menu=3;glcd_fillscreen(OFF);Opcion=1;unidad=1;Contrasena[0]=0;Contrasena[1]=0;Contrasena[2]=0;Contrasena[3]=0; 
08912:  MOVLW  03
08914:  MOVWF  xC7
08916:  MOVLB  6
08918:  CLRF   x73
0891A:  MOVLB  0
0891C:  CALL   14FE
08920:  MOVLW  01
08922:  MOVLB  4
08924:  MOVWF  xC9
08926:  MOVWF  xC8
08928:  MOVLB  5
0892A:  CLRF   x0F
0892C:  CLRF   x10
0892E:  CLRF   x11
08930:  CLRF   x12
08932:  MOVLB  4
....................          } 
....................       } 
....................        
....................       if(unidad>4) 
08934:  MOVF   xC8,W
08936:  SUBLW  04
08938:  BTFSC  FD8.0
0893A:  BRA    8A88
....................       { 
....................          Opcion=1;glcd_fillscreen(OFF);unidad=1;n=0; 
0893C:  MOVLW  01
0893E:  MOVWF  xC9
08940:  MOVLB  6
08942:  CLRF   x73
08944:  MOVLB  0
08946:  CALL   14FE
0894A:  MOVLW  01
0894C:  MOVLB  4
0894E:  MOVWF  xC8
08950:  BCF    x2E.3
....................          Password[0]=Contrasena[0];Password[1]=Contrasena[1];Password[2]=Contrasena[2];Password[3]=Contrasena[3]; 
08952:  MOVFF  50F,513
08956:  MOVFF  510,514
0895A:  MOVFF  511,515
0895E:  MOVFF  512,516
....................          write_eeprom(0,Password[0]); 
08962:  CLRF   FAA
08964:  CLRF   FA9
08966:  MOVFF  513,FA8
0896A:  BCF    FA6.6
0896C:  BCF    FA6.7
0896E:  BSF    FA6.2
08970:  MOVF   FF2,W
08972:  MOVWF  00
08974:  BCF    FF2.7
08976:  MOVLB  F
08978:  MOVLW  55
0897A:  MOVWF  FA7
0897C:  MOVLW  AA
0897E:  MOVWF  FA7
08980:  BSF    FA6.1
08982:  BTFSC  FA6.1
08984:  BRA    8982
08986:  BCF    FA6.2
08988:  MOVF   00,W
0898A:  IORWF  FF2,F
....................          delay_ms(20); 
0898C:  MOVLW  14
0898E:  MOVLB  6
08990:  MOVWF  x80
08992:  MOVLB  0
08994:  CALL   14A0
....................          write_eeprom(1,Password[1]); 
08998:  CLRF   FAA
0899A:  MOVLW  01
0899C:  MOVWF  FA9
0899E:  MOVFF  514,FA8
089A2:  BCF    FA6.6
089A4:  BCF    FA6.7
089A6:  BSF    FA6.2
089A8:  MOVF   FF2,W
089AA:  MOVWF  00
089AC:  BCF    FF2.7
089AE:  MOVLB  F
089B0:  MOVLW  55
089B2:  MOVWF  FA7
089B4:  MOVLW  AA
089B6:  MOVWF  FA7
089B8:  BSF    FA6.1
089BA:  BTFSC  FA6.1
089BC:  BRA    89BA
089BE:  BCF    FA6.2
089C0:  MOVF   00,W
089C2:  IORWF  FF2,F
....................          delay_ms(20); 
089C4:  MOVLW  14
089C6:  MOVLB  6
089C8:  MOVWF  x80
089CA:  MOVLB  0
089CC:  CALL   14A0
....................          write_eeprom(2,Password[2]); 
089D0:  CLRF   FAA
089D2:  MOVLW  02
089D4:  MOVWF  FA9
089D6:  MOVFF  515,FA8
089DA:  BCF    FA6.6
089DC:  BCF    FA6.7
089DE:  BSF    FA6.2
089E0:  MOVF   FF2,W
089E2:  MOVWF  00
089E4:  BCF    FF2.7
089E6:  MOVLB  F
089E8:  MOVLW  55
089EA:  MOVWF  FA7
089EC:  MOVLW  AA
089EE:  MOVWF  FA7
089F0:  BSF    FA6.1
089F2:  BTFSC  FA6.1
089F4:  BRA    89F2
089F6:  BCF    FA6.2
089F8:  MOVF   00,W
089FA:  IORWF  FF2,F
....................          delay_ms(20); 
089FC:  MOVLW  14
089FE:  MOVLB  6
08A00:  MOVWF  x80
08A02:  MOVLB  0
08A04:  CALL   14A0
....................          write_eeprom(3,Password[3]); 
08A08:  CLRF   FAA
08A0A:  MOVLW  03
08A0C:  MOVWF  FA9
08A0E:  MOVFF  516,FA8
08A12:  BCF    FA6.6
08A14:  BCF    FA6.7
08A16:  BSF    FA6.2
08A18:  MOVF   FF2,W
08A1A:  MOVWF  00
08A1C:  BCF    FF2.7
08A1E:  MOVLB  F
08A20:  MOVLW  55
08A22:  MOVWF  FA7
08A24:  MOVLW  AA
08A26:  MOVWF  FA7
08A28:  BSF    FA6.1
08A2A:  BTFSC  FA6.1
08A2C:  BRA    8A2A
08A2E:  BCF    FA6.2
08A30:  MOVF   00,W
08A32:  IORWF  FF2,F
....................          delay_ms(20); 
08A34:  MOVLW  14
08A36:  MOVLB  6
08A38:  MOVWF  x80
08A3A:  MOVLB  0
08A3C:  CALL   14A0
....................          glcd_imagen(1);glcd_update();Menu=211;delay_ms(1000);glcd_fillScreen(OFF);Menu=3; 
08A40:  MOVLW  01
08A42:  MOVLB  6
08A44:  MOVWF  x6C
08A46:  MOVLB  0
08A48:  CALL   585E
08A4C:  CALL   1558
08A50:  MOVLW  D3
08A52:  MOVLB  4
08A54:  MOVWF  xC7
08A56:  MOVLW  04
08A58:  MOVLB  6
08A5A:  MOVWF  x6C
08A5C:  MOVLW  FA
08A5E:  MOVWF  x80
08A60:  MOVLB  0
08A62:  CALL   14A0
08A66:  MOVLB  6
08A68:  DECFSZ x6C,F
08A6A:  BRA    8A5C
08A6C:  CLRF   x73
08A6E:  MOVLB  0
08A70:  CALL   14FE
08A74:  MOVLW  03
08A76:  MOVLB  4
08A78:  MOVWF  xC7
....................          n=0; 
08A7A:  BCF    x2E.3
....................          Contrasena[0]=0;Contrasena[1]=0;Contrasena[2]=0;Contrasena[3]=0; 
08A7C:  MOVLB  5
08A7E:  CLRF   x0F
08A80:  CLRF   x10
08A82:  CLRF   x11
08A84:  CLRF   x12
08A86:  MOVLB  4
....................       } 
....................      
....................     } 
.................... //_--------------------------------------------------------------------------------------------------------------------------------------------------------        
....................  
.................... //_-------------------------------------------------------------------------------------------------------------------------------------------------------- 
....................       if(Menu==31){ //Menu de Mantenimiento. 
08A88:  MOVF   xC7,W
08A8A:  SUBLW  1F
08A8C:  BTFSS  FD8.2
08A8E:  BRA    8DEE
....................        
....................          strcpy(Menus.Letra,"Manteniento"); 
08A90:  MOVLW  04
08A92:  MOVWF  FEA
08A94:  MOVLW  16
08A96:  MOVWF  FE9
08A98:  MOVFF  FF2,66C
08A9C:  BCF    FF2.7
08A9E:  MOVLW  00
08AA0:  MOVLB  0
08AA2:  CALL   1186
08AA6:  TBLRD*-
08AA8:  TBLRD*+
08AAA:  MOVF   FF5,W
08AAC:  MOVWF  FEE
08AAE:  IORLW  00
08AB0:  BNZ   8AA8
08AB2:  MOVLB  6
08AB4:  BTFSC  x6C.7
08AB6:  BSF    FF2.7
....................          displayMenu(Menus.Letra,0,0,1,2); 
08AB8:  MOVLW  04
08ABA:  MOVWF  x74
08ABC:  MOVLW  16
08ABE:  MOVWF  x73
08AC0:  CLRF   x75
08AC2:  CLRF   x76
08AC4:  MOVLW  01
08AC6:  MOVWF  x77
08AC8:  MOVLW  02
08ACA:  MOVWF  x78
08ACC:  MOVLB  0
08ACE:  CALL   4FA6
....................           
....................          strcpy(Menus.Letra,"Trabajo Filtro(h):"); 
08AD2:  MOVLW  04
08AD4:  MOVWF  FEA
08AD6:  MOVLW  16
08AD8:  MOVWF  FE9
08ADA:  MOVFF  FF2,66C
08ADE:  BCF    FF2.7
08AE0:  MOVLW  00
08AE2:  CALL   11AC
08AE6:  TBLRD*-
08AE8:  TBLRD*+
08AEA:  MOVF   FF5,W
08AEC:  MOVWF  FEE
08AEE:  IORLW  00
08AF0:  BNZ   8AE8
08AF2:  MOVLB  6
08AF4:  BTFSC  x6C.7
08AF6:  BSF    FF2.7
....................          displayMenu(Menus.Letra,10,20,1,1); 
08AF8:  MOVLW  04
08AFA:  MOVWF  x74
08AFC:  MOVLW  16
08AFE:  MOVWF  x73
08B00:  MOVLW  0A
08B02:  MOVWF  x75
08B04:  MOVLW  14
08B06:  MOVWF  x76
08B08:  MOVLW  01
08B0A:  MOVWF  x77
08B0C:  MOVWF  x78
08B0E:  MOVLB  0
08B10:  CALL   4FA6
....................          glcd_text57(0, 31, Vida_Filtro, 1, ON); 
08B14:  MOVLB  6
08B16:  CLRF   x84
08B18:  MOVLW  1F
08B1A:  MOVWF  x85
08B1C:  MOVLW  04
08B1E:  MOVWF  x87
08B20:  MOVLW  9C
08B22:  MOVWF  x86
08B24:  MOVLW  01
08B26:  MOVWF  x88
08B28:  MOVWF  x89
08B2A:  MOVLB  0
08B2C:  CALL   4D36
....................          displayTiempo(Ttrabajo[3],60,30,0,1);displayTiempo(Ttrabajo[2],67,30,0,1);displayTiempo(Ttrabajo[1],74,30,0,1);displayTiempo(Ttrabajo[0],82,30,0,1); 
08B30:  MOVFF  50E,66C
08B34:  MOVLW  3C
08B36:  MOVLB  6
08B38:  MOVWF  x6D
08B3A:  MOVLW  1E
08B3C:  MOVWF  x6E
08B3E:  CLRF   x6F
08B40:  MOVLW  01
08B42:  MOVWF  x70
08B44:  MOVLB  0
08B46:  CALL   5784
08B4A:  MOVFF  50D,66C
08B4E:  MOVLW  43
08B50:  MOVLB  6
08B52:  MOVWF  x6D
08B54:  MOVLW  1E
08B56:  MOVWF  x6E
08B58:  CLRF   x6F
08B5A:  MOVLW  01
08B5C:  MOVWF  x70
08B5E:  MOVLB  0
08B60:  CALL   5784
08B64:  MOVFF  50C,66C
08B68:  MOVLW  4A
08B6A:  MOVLB  6
08B6C:  MOVWF  x6D
08B6E:  MOVLW  1E
08B70:  MOVWF  x6E
08B72:  CLRF   x6F
08B74:  MOVLW  01
08B76:  MOVWF  x70
08B78:  MOVLB  0
08B7A:  CALL   5784
08B7E:  MOVFF  50B,66C
08B82:  MOVLW  52
08B84:  MOVLB  6
08B86:  MOVWF  x6D
08B88:  MOVLW  1E
08B8A:  MOVWF  x6E
08B8C:  CLRF   x6F
08B8E:  MOVLW  01
08B90:  MOVWF  x70
08B92:  MOVLB  0
08B94:  CALL   5784
....................           
....................          LuzBlanca_on; 
08B98:  BCF    F8B.2
08B9A:  BCF    F94.2
....................           
....................             if(UP && RIGHT) // Reinicia Tiempo de Luz UV 
08B9C:  BSF    F92.5
08B9E:  BTFSC  F80.5
08BA0:  BRA    8CB4
08BA2:  BSF    F96.1
08BA4:  BTFSC  F84.1
08BA6:  BRA    8CB4
....................             { 
....................                   delay_ms(2000); 
08BA8:  MOVLW  08
08BAA:  MOVLB  6
08BAC:  MOVWF  x6C
08BAE:  MOVLW  FA
08BB0:  MOVWF  x80
08BB2:  MOVLB  0
08BB4:  CALL   14A0
08BB8:  MOVLB  6
08BBA:  DECFSZ x6C,F
08BBC:  BRA    8BAE
....................                   write_eeprom(12,0); 
08BBE:  CLRF   FAA
08BC0:  MOVLW  0C
08BC2:  MOVWF  FA9
08BC4:  CLRF   FA8
08BC6:  BCF    FA6.6
08BC8:  BCF    FA6.7
08BCA:  BSF    FA6.2
08BCC:  MOVF   FF2,W
08BCE:  MOVWF  00
08BD0:  BCF    FF2.7
08BD2:  MOVLB  F
08BD4:  MOVLW  55
08BD6:  MOVWF  FA7
08BD8:  MOVLW  AA
08BDA:  MOVWF  FA7
08BDC:  BSF    FA6.1
08BDE:  BTFSC  FA6.1
08BE0:  BRA    8BDE
08BE2:  BCF    FA6.2
08BE4:  MOVF   00,W
08BE6:  IORWF  FF2,F
....................                   delay_ms(20); 
08BE8:  MOVLW  14
08BEA:  MOVLB  6
08BEC:  MOVWF  x80
08BEE:  MOVLB  0
08BF0:  CALL   14A0
....................                   write_eeprom(13,0); 
08BF4:  CLRF   FAA
08BF6:  MOVLW  0D
08BF8:  MOVWF  FA9
08BFA:  CLRF   FA8
08BFC:  BCF    FA6.6
08BFE:  BCF    FA6.7
08C00:  BSF    FA6.2
08C02:  MOVF   FF2,W
08C04:  MOVWF  00
08C06:  BCF    FF2.7
08C08:  MOVLB  F
08C0A:  MOVLW  55
08C0C:  MOVWF  FA7
08C0E:  MOVLW  AA
08C10:  MOVWF  FA7
08C12:  BSF    FA6.1
08C14:  BTFSC  FA6.1
08C16:  BRA    8C14
08C18:  BCF    FA6.2
08C1A:  MOVF   00,W
08C1C:  IORWF  FF2,F
....................                   delay_ms(20); 
08C1E:  MOVLW  14
08C20:  MOVLB  6
08C22:  MOVWF  x80
08C24:  MOVLB  0
08C26:  CALL   14A0
....................                   write_eeprom(14,0); 
08C2A:  CLRF   FAA
08C2C:  MOVLW  0E
08C2E:  MOVWF  FA9
08C30:  CLRF   FA8
08C32:  BCF    FA6.6
08C34:  BCF    FA6.7
08C36:  BSF    FA6.2
08C38:  MOVF   FF2,W
08C3A:  MOVWF  00
08C3C:  BCF    FF2.7
08C3E:  MOVLB  F
08C40:  MOVLW  55
08C42:  MOVWF  FA7
08C44:  MOVLW  AA
08C46:  MOVWF  FA7
08C48:  BSF    FA6.1
08C4A:  BTFSC  FA6.1
08C4C:  BRA    8C4A
08C4E:  BCF    FA6.2
08C50:  MOVF   00,W
08C52:  IORWF  FF2,F
....................                   delay_ms(20); 
08C54:  MOVLW  14
08C56:  MOVLB  6
08C58:  MOVWF  x80
08C5A:  MOVLB  0
08C5C:  CALL   14A0
....................                   write_eeprom(15,0); 
08C60:  CLRF   FAA
08C62:  MOVLW  0F
08C64:  MOVWF  FA9
08C66:  CLRF   FA8
08C68:  BCF    FA6.6
08C6A:  BCF    FA6.7
08C6C:  BSF    FA6.2
08C6E:  MOVF   FF2,W
08C70:  MOVWF  00
08C72:  BCF    FF2.7
08C74:  MOVLB  F
08C76:  MOVLW  55
08C78:  MOVWF  FA7
08C7A:  MOVLW  AA
08C7C:  MOVWF  FA7
08C7E:  BSF    FA6.1
08C80:  BTFSC  FA6.1
08C82:  BRA    8C80
08C84:  BCF    FA6.2
08C86:  MOVF   00,W
08C88:  IORWF  FF2,F
....................                   delay_ms(20); 
08C8A:  MOVLW  14
08C8C:  MOVLB  6
08C8E:  MOVWF  x80
08C90:  MOVLB  0
08C92:  CALL   14A0
....................                   Tuv[3]=0;Tuv[2]=0;Tuv[1]=0;Tuv[0]=0; 
08C96:  MOVLB  5
08C98:  CLRF   x06
08C9A:  CLRF   x05
08C9C:  CLRF   x04
08C9E:  CLRF   x03
....................                   Menu=3;glcd_fillscreen(OFF);LuzBlanca_off; 
08CA0:  MOVLW  03
08CA2:  MOVLB  4
08CA4:  MOVWF  xC7
08CA6:  MOVLB  6
08CA8:  CLRF   x73
08CAA:  MOVLB  0
08CAC:  CALL   14FE
08CB0:  BSF    F8B.2
08CB2:  BCF    F94.2
....................                 
....................             } 
....................             if(DOWN && RIGHT) // Reinicia Tiempo de Trabajo 
08CB4:  BSF    F96.0
08CB6:  BTFSC  F84.0
08CB8:  BRA    8DCC
08CBA:  BSF    F96.1
08CBC:  BTFSC  F84.1
08CBE:  BRA    8DCC
....................             { 
....................                   delay_ms(2000); 
08CC0:  MOVLW  08
08CC2:  MOVLB  6
08CC4:  MOVWF  x6C
08CC6:  MOVLW  FA
08CC8:  MOVWF  x80
08CCA:  MOVLB  0
08CCC:  CALL   14A0
08CD0:  MOVLB  6
08CD2:  DECFSZ x6C,F
08CD4:  BRA    8CC6
....................                   write_eeprom(16,0); 
08CD6:  CLRF   FAA
08CD8:  MOVLW  10
08CDA:  MOVWF  FA9
08CDC:  CLRF   FA8
08CDE:  BCF    FA6.6
08CE0:  BCF    FA6.7
08CE2:  BSF    FA6.2
08CE4:  MOVF   FF2,W
08CE6:  MOVWF  00
08CE8:  BCF    FF2.7
08CEA:  MOVLB  F
08CEC:  MOVLW  55
08CEE:  MOVWF  FA7
08CF0:  MOVLW  AA
08CF2:  MOVWF  FA7
08CF4:  BSF    FA6.1
08CF6:  BTFSC  FA6.1
08CF8:  BRA    8CF6
08CFA:  BCF    FA6.2
08CFC:  MOVF   00,W
08CFE:  IORWF  FF2,F
....................                   delay_ms(20); 
08D00:  MOVLW  14
08D02:  MOVLB  6
08D04:  MOVWF  x80
08D06:  MOVLB  0
08D08:  CALL   14A0
....................                   write_eeprom(17,0); 
08D0C:  CLRF   FAA
08D0E:  MOVLW  11
08D10:  MOVWF  FA9
08D12:  CLRF   FA8
08D14:  BCF    FA6.6
08D16:  BCF    FA6.7
08D18:  BSF    FA6.2
08D1A:  MOVF   FF2,W
08D1C:  MOVWF  00
08D1E:  BCF    FF2.7
08D20:  MOVLB  F
08D22:  MOVLW  55
08D24:  MOVWF  FA7
08D26:  MOVLW  AA
08D28:  MOVWF  FA7
08D2A:  BSF    FA6.1
08D2C:  BTFSC  FA6.1
08D2E:  BRA    8D2C
08D30:  BCF    FA6.2
08D32:  MOVF   00,W
08D34:  IORWF  FF2,F
....................                   delay_ms(20); 
08D36:  MOVLW  14
08D38:  MOVLB  6
08D3A:  MOVWF  x80
08D3C:  MOVLB  0
08D3E:  CALL   14A0
....................                   write_eeprom(18,0); 
08D42:  CLRF   FAA
08D44:  MOVLW  12
08D46:  MOVWF  FA9
08D48:  CLRF   FA8
08D4A:  BCF    FA6.6
08D4C:  BCF    FA6.7
08D4E:  BSF    FA6.2
08D50:  MOVF   FF2,W
08D52:  MOVWF  00
08D54:  BCF    FF2.7
08D56:  MOVLB  F
08D58:  MOVLW  55
08D5A:  MOVWF  FA7
08D5C:  MOVLW  AA
08D5E:  MOVWF  FA7
08D60:  BSF    FA6.1
08D62:  BTFSC  FA6.1
08D64:  BRA    8D62
08D66:  BCF    FA6.2
08D68:  MOVF   00,W
08D6A:  IORWF  FF2,F
....................                   delay_ms(20); 
08D6C:  MOVLW  14
08D6E:  MOVLB  6
08D70:  MOVWF  x80
08D72:  MOVLB  0
08D74:  CALL   14A0
....................                   write_eeprom(19,0); 
08D78:  CLRF   FAA
08D7A:  MOVLW  13
08D7C:  MOVWF  FA9
08D7E:  CLRF   FA8
08D80:  BCF    FA6.6
08D82:  BCF    FA6.7
08D84:  BSF    FA6.2
08D86:  MOVF   FF2,W
08D88:  MOVWF  00
08D8A:  BCF    FF2.7
08D8C:  MOVLB  F
08D8E:  MOVLW  55
08D90:  MOVWF  FA7
08D92:  MOVLW  AA
08D94:  MOVWF  FA7
08D96:  BSF    FA6.1
08D98:  BTFSC  FA6.1
08D9A:  BRA    8D98
08D9C:  BCF    FA6.2
08D9E:  MOVF   00,W
08DA0:  IORWF  FF2,F
....................                   delay_ms(20); 
08DA2:  MOVLW  14
08DA4:  MOVLB  6
08DA6:  MOVWF  x80
08DA8:  MOVLB  0
08DAA:  CALL   14A0
....................                   Ttrabajo[3]=0;Ttrabajo[2]=0;Ttrabajo[1]=0;Ttrabajo[0]=0; 
08DAE:  MOVLB  5
08DB0:  CLRF   x0E
08DB2:  CLRF   x0D
08DB4:  CLRF   x0C
08DB6:  CLRF   x0B
....................                   Menu=3;glcd_fillscreen(OFF);LuzBlanca_off; 
08DB8:  MOVLW  03
08DBA:  MOVLB  4
08DBC:  MOVWF  xC7
08DBE:  MOVLB  6
08DC0:  CLRF   x73
08DC2:  MOVLB  0
08DC4:  CALL   14FE
08DC8:  BSF    F8B.2
08DCA:  BCF    F94.2
....................             } 
....................              
....................             if(LEFT) 
08DCC:  BSF    F96.2
08DCE:  BTFSC  F84.2
08DD0:  BRA    8DF0
....................             { 
....................                Menu=6;glcd_fillscreen(OFF);LuzBlanca_off;Opcion=1;unidad=1; 
08DD2:  MOVLW  06
08DD4:  MOVLB  4
08DD6:  MOVWF  xC7
08DD8:  MOVLB  6
08DDA:  CLRF   x73
08DDC:  MOVLB  0
08DDE:  CALL   14FE
08DE2:  BSF    F8B.2
08DE4:  BCF    F94.2
08DE6:  MOVLW  01
08DE8:  MOVLB  4
08DEA:  MOVWF  xC9
08DEC:  MOVWF  xC8
08DEE:  MOVLB  0
....................             } 
....................     } 
.................... //_--------------------------------------------------------------------------------------------------------------------------------------------------------        
....................  
.................... //_-------------------------------------------------------------------------------------------------------------------------------------------------------- 
....................       if(Menu==32){ //Menu de Servicio 
08DF0:  MOVLB  4
08DF2:  MOVF   xC7,W
08DF4:  SUBLW  20
08DF6:  BTFSS  FD8.2
08DF8:  BRA    9152
....................        
....................       strcpy(Menus.Letra,"Servicio"); 
08DFA:  MOVLW  04
08DFC:  MOVWF  FEA
08DFE:  MOVLW  16
08E00:  MOVWF  FE9
08E02:  MOVFF  FF2,66C
08E06:  BCF    FF2.7
08E08:  MOVLW  00
08E0A:  MOVLB  0
08E0C:  CALL   10AE
08E10:  TBLRD*-
08E12:  TBLRD*+
08E14:  MOVF   FF5,W
08E16:  MOVWF  FEE
08E18:  IORLW  00
08E1A:  BNZ   8E12
08E1C:  MOVLB  6
08E1E:  BTFSC  x6C.7
08E20:  BSF    FF2.7
....................       displayMenu(Menus.Letra,10,0,1,2); 
08E22:  MOVLW  04
08E24:  MOVWF  x74
08E26:  MOVLW  16
08E28:  MOVWF  x73
08E2A:  MOVLW  0A
08E2C:  MOVWF  x75
08E2E:  CLRF   x76
08E30:  MOVLW  01
08E32:  MOVWF  x77
08E34:  MOVLW  02
08E36:  MOVWF  x78
08E38:  MOVLB  0
08E3A:  CALL   4FA6
....................        
....................       if(Opcion==1)    
08E3E:  MOVLB  4
08E40:  DECFSZ xC9,W
08E42:  BRA    8E8A
....................          {strcpy(Menus.Letra,"Sensor de Flujo"); 
08E44:  MOVLW  04
08E46:  MOVWF  FEA
08E48:  MOVLW  16
08E4A:  MOVWF  FE9
08E4C:  MOVFF  FF2,66C
08E50:  BCF    FF2.7
08E52:  MOVLW  00
08E54:  MOVLB  0
08E56:  CALL   11DA
08E5A:  TBLRD*-
08E5C:  TBLRD*+
08E5E:  MOVF   FF5,W
08E60:  MOVWF  FEE
08E62:  IORLW  00
08E64:  BNZ   8E5C
08E66:  MOVLB  6
08E68:  BTFSC  x6C.7
08E6A:  BSF    FF2.7
....................          displayMenu(Menus.Letra,0,18,1,1);} 
08E6C:  MOVLW  04
08E6E:  MOVWF  x74
08E70:  MOVLW  16
08E72:  MOVWF  x73
08E74:  CLRF   x75
08E76:  MOVLW  12
08E78:  MOVWF  x76
08E7A:  MOVLW  01
08E7C:  MOVWF  x77
08E7E:  MOVWF  x78
08E80:  MOVLB  0
08E82:  CALL   4FA6
....................       else 
08E86:  BRA    8ECC
08E88:  MOVLB  4
....................          {strcpy(Menus.Letra,"Sensor de Flujo"); 
08E8A:  MOVLW  04
08E8C:  MOVWF  FEA
08E8E:  MOVLW  16
08E90:  MOVWF  FE9
08E92:  MOVFF  FF2,66C
08E96:  BCF    FF2.7
08E98:  MOVLW  00
08E9A:  MOVLB  0
08E9C:  CALL   11DA
08EA0:  TBLRD*-
08EA2:  TBLRD*+
08EA4:  MOVF   FF5,W
08EA6:  MOVWF  FEE
08EA8:  IORLW  00
08EAA:  BNZ   8EA2
08EAC:  MOVLB  6
08EAE:  BTFSC  x6C.7
08EB0:  BSF    FF2.7
....................          displayMenu(Menus.Letra,0,18,0,1);}  
08EB2:  MOVLW  04
08EB4:  MOVWF  x74
08EB6:  MOVLW  16
08EB8:  MOVWF  x73
08EBA:  CLRF   x75
08EBC:  MOVLW  12
08EBE:  MOVWF  x76
08EC0:  CLRF   x77
08EC2:  MOVLW  01
08EC4:  MOVWF  x78
08EC6:  MOVLB  0
08EC8:  CALL   4FA6
....................           
....................       if(Opcion==2)    
08ECC:  MOVLB  4
08ECE:  MOVF   xC9,W
08ED0:  SUBLW  02
08ED2:  BNZ   8F1A
....................          {strcpy(Menus.Letra,"Sensor de Presion"); 
08ED4:  MOVLW  04
08ED6:  MOVWF  FEA
08ED8:  MOVLW  16
08EDA:  MOVWF  FE9
08EDC:  MOVFF  FF2,66C
08EE0:  BCF    FF2.7
08EE2:  MOVLW  00
08EE4:  MOVLB  0
08EE6:  CALL   1204
08EEA:  TBLRD*-
08EEC:  TBLRD*+
08EEE:  MOVF   FF5,W
08EF0:  MOVWF  FEE
08EF2:  IORLW  00
08EF4:  BNZ   8EEC
08EF6:  MOVLB  6
08EF8:  BTFSC  x6C.7
08EFA:  BSF    FF2.7
....................          displayMenu(Menus.Letra,0,29,1,1);} 
08EFC:  MOVLW  04
08EFE:  MOVWF  x74
08F00:  MOVLW  16
08F02:  MOVWF  x73
08F04:  CLRF   x75
08F06:  MOVLW  1D
08F08:  MOVWF  x76
08F0A:  MOVLW  01
08F0C:  MOVWF  x77
08F0E:  MOVWF  x78
08F10:  MOVLB  0
08F12:  CALL   4FA6
....................       else 
08F16:  BRA    8F5C
08F18:  MOVLB  4
....................          {strcpy(Menus.Letra,"Sensor de Presion"); 
08F1A:  MOVLW  04
08F1C:  MOVWF  FEA
08F1E:  MOVLW  16
08F20:  MOVWF  FE9
08F22:  MOVFF  FF2,66C
08F26:  BCF    FF2.7
08F28:  MOVLW  00
08F2A:  MOVLB  0
08F2C:  CALL   1204
08F30:  TBLRD*-
08F32:  TBLRD*+
08F34:  MOVF   FF5,W
08F36:  MOVWF  FEE
08F38:  IORLW  00
08F3A:  BNZ   8F32
08F3C:  MOVLB  6
08F3E:  BTFSC  x6C.7
08F40:  BSF    FF2.7
....................          displayMenu(Menus.Letra,0,29,0,1);}   
08F42:  MOVLW  04
08F44:  MOVWF  x74
08F46:  MOVLW  16
08F48:  MOVWF  x73
08F4A:  CLRF   x75
08F4C:  MOVLW  1D
08F4E:  MOVWF  x76
08F50:  CLRF   x77
08F52:  MOVLW  01
08F54:  MOVWF  x78
08F56:  MOVLB  0
08F58:  CALL   4FA6
....................        
....................       if(Opcion==3)    
08F5C:  MOVLB  4
08F5E:  MOVF   xC9,W
08F60:  SUBLW  03
08F62:  BNZ   8FAA
....................          {strcpy(Menus.Letra,"Velocidad Ventilador"); 
08F64:  MOVLW  04
08F66:  MOVWF  FEA
08F68:  MOVLW  16
08F6A:  MOVWF  FE9
08F6C:  MOVFF  FF2,66C
08F70:  BCF    FF2.7
08F72:  MOVLW  00
08F74:  MOVLB  0
08F76:  CALL   1230
08F7A:  TBLRD*-
08F7C:  TBLRD*+
08F7E:  MOVF   FF5,W
08F80:  MOVWF  FEE
08F82:  IORLW  00
08F84:  BNZ   8F7C
08F86:  MOVLB  6
08F88:  BTFSC  x6C.7
08F8A:  BSF    FF2.7
....................          displayMenu(Menus.Letra,0,40,1,1);} 
08F8C:  MOVLW  04
08F8E:  MOVWF  x74
08F90:  MOVLW  16
08F92:  MOVWF  x73
08F94:  CLRF   x75
08F96:  MOVLW  28
08F98:  MOVWF  x76
08F9A:  MOVLW  01
08F9C:  MOVWF  x77
08F9E:  MOVWF  x78
08FA0:  MOVLB  0
08FA2:  CALL   4FA6
....................       else 
08FA6:  BRA    8FEC
08FA8:  MOVLB  4
....................          {strcpy(Menus.Letra,"Velocidad Ventilador"); 
08FAA:  MOVLW  04
08FAC:  MOVWF  FEA
08FAE:  MOVLW  16
08FB0:  MOVWF  FE9
08FB2:  MOVFF  FF2,66C
08FB6:  BCF    FF2.7
08FB8:  MOVLW  00
08FBA:  MOVLB  0
08FBC:  CALL   1230
08FC0:  TBLRD*-
08FC2:  TBLRD*+
08FC4:  MOVF   FF5,W
08FC6:  MOVWF  FEE
08FC8:  IORLW  00
08FCA:  BNZ   8FC2
08FCC:  MOVLB  6
08FCE:  BTFSC  x6C.7
08FD0:  BSF    FF2.7
....................          displayMenu(Menus.Letra,0,40,0,1);}  
08FD2:  MOVLW  04
08FD4:  MOVWF  x74
08FD6:  MOVLW  16
08FD8:  MOVWF  x73
08FDA:  CLRF   x75
08FDC:  MOVLW  28
08FDE:  MOVWF  x76
08FE0:  CLRF   x77
08FE2:  MOVLW  01
08FE4:  MOVWF  x78
08FE6:  MOVLB  0
08FE8:  CALL   4FA6
....................           
....................       if(Opcion==4)    
08FEC:  MOVLB  4
08FEE:  MOVF   xC9,W
08FF0:  SUBLW  04
08FF2:  BNZ   903A
....................          {strcpy(Menus.Letra,"Variador"); 
08FF4:  MOVLW  04
08FF6:  MOVWF  FEA
08FF8:  MOVLW  16
08FFA:  MOVWF  FE9
08FFC:  MOVFF  FF2,66C
09000:  BCF    FF2.7
09002:  MOVLW  00
09004:  MOVLB  0
09006:  CALL   1260
0900A:  TBLRD*-
0900C:  TBLRD*+
0900E:  MOVF   FF5,W
09010:  MOVWF  FEE
09012:  IORLW  00
09014:  BNZ   900C
09016:  MOVLB  6
09018:  BTFSC  x6C.7
0901A:  BSF    FF2.7
....................          displayMenu(Menus.Letra,0,50,1,1);} 
0901C:  MOVLW  04
0901E:  MOVWF  x74
09020:  MOVLW  16
09022:  MOVWF  x73
09024:  CLRF   x75
09026:  MOVLW  32
09028:  MOVWF  x76
0902A:  MOVLW  01
0902C:  MOVWF  x77
0902E:  MOVWF  x78
09030:  MOVLB  0
09032:  CALL   4FA6
....................       else 
09036:  BRA    907C
09038:  MOVLB  4
....................          {strcpy(Menus.Letra,"Variador"); 
0903A:  MOVLW  04
0903C:  MOVWF  FEA
0903E:  MOVLW  16
09040:  MOVWF  FE9
09042:  MOVFF  FF2,66C
09046:  BCF    FF2.7
09048:  MOVLW  00
0904A:  MOVLB  0
0904C:  CALL   1260
09050:  TBLRD*-
09052:  TBLRD*+
09054:  MOVF   FF5,W
09056:  MOVWF  FEE
09058:  IORLW  00
0905A:  BNZ   9052
0905C:  MOVLB  6
0905E:  BTFSC  x6C.7
09060:  BSF    FF2.7
....................          displayMenu(Menus.Letra,0,50,0,1);}    
09062:  MOVLW  04
09064:  MOVWF  x74
09066:  MOVLW  16
09068:  MOVWF  x73
0906A:  CLRF   x75
0906C:  MOVLW  32
0906E:  MOVWF  x76
09070:  CLRF   x77
09072:  MOVLW  01
09074:  MOVWF  x78
09076:  MOVLB  0
09078:  CALL   4FA6
....................        
....................          
....................       if(UP)//Si oprime hacia arriba 
0907C:  BSF    F92.5
0907E:  BTFSC  F80.5
09080:  BRA    909C
....................       {  if(Flanco == 0)  
09082:  MOVLB  4
09084:  BTFSC  x2C.0
09086:  BRA    909A
....................             {Flanco = 1;delay_ms(30);Opcion--; 
09088:  BSF    x2C.0
0908A:  MOVLW  1E
0908C:  MOVLB  6
0908E:  MOVWF  x80
09090:  MOVLB  0
09092:  CALL   14A0
09096:  MOVLB  4
09098:  DECF   xC9,F
....................             } 
....................       } 
....................          else 
0909A:  BRA    90A0
....................             {Flanco = 0;} 
0909C:  MOVLB  4
0909E:  BCF    x2C.0
....................              
....................       if(DOWN)//Si oprime hacia abajo 
090A0:  BSF    F96.0
090A2:  BTFSC  F84.0
090A4:  BRA    90BE
....................       {  if(Flanco2 == 0)  
090A6:  BTFSC  x2C.2
090A8:  BRA    90BC
....................             {Flanco2 = 1;delay_ms(30);Opcion++; 
090AA:  BSF    x2C.2
090AC:  MOVLW  1E
090AE:  MOVLB  6
090B0:  MOVWF  x80
090B2:  MOVLB  0
090B4:  CALL   14A0
090B8:  MOVLB  4
090BA:  INCF   xC9,F
....................             }      
....................       } 
....................          else 
090BC:  BRA    90C0
....................             {Flanco2 = 0;}   
090BE:  BCF    x2C.2
....................              
....................       if(RIGHT)//Si oprime SET 
090C0:  BSF    F96.1
090C2:  BTFSC  F84.1
090C4:  BRA    9108
....................       {   
....................          delay_ms(20); 
090C6:  MOVLW  14
090C8:  MOVLB  6
090CA:  MOVWF  x80
090CC:  MOVLB  0
090CE:  CALL   14A0
....................          if(RIGHT){ 
090D2:  BSF    F96.1
090D4:  BTFSC  F84.1
090D6:  BRA    910A
....................             delay_ms(100); 
090D8:  MOVLW  64
090DA:  MOVLB  6
090DC:  MOVWF  x80
090DE:  MOVLB  0
090E0:  CALL   14A0
....................             glcd_fillScreen(OFF); 
090E4:  MOVLB  6
090E6:  CLRF   x73
090E8:  MOVLB  0
090EA:  CALL   14FE
....................             /* 
....................             while(!PidePassword(6,32,Opcion+40,4,4,4,4)){ 
....................                PidePassword(6,32,Opcion+40,4,4,4,4);glcd_update(); 
....................             }  
....................             */ 
....................             Menu=Opcion+40; 
090EE:  MOVLW  28
090F0:  MOVLB  4
090F2:  ADDWF  xC9,W
090F4:  MOVWF  xC7
....................             glcd_fillScreen(OFF);Opcion=1;unidad=1; 
090F6:  MOVLB  6
090F8:  CLRF   x73
090FA:  MOVLB  0
090FC:  CALL   14FE
09100:  MOVLW  01
09102:  MOVLB  4
09104:  MOVWF  xC9
09106:  MOVWF  xC8
09108:  MOVLB  0
....................          } 
....................       } 
....................              
....................       if(LEFT)//Si oprime boton de Toma. 
0910A:  BSF    F96.2
0910C:  BTFSC  F84.2
0910E:  BRA    913E
....................         {delay_ms(700);Menu=6;glcd_fillscreen(OFF);Opcion=1;unidad=1;} 
09110:  MOVLW  04
09112:  MOVLB  6
09114:  MOVWF  x6C
09116:  MOVLW  AF
09118:  MOVWF  x80
0911A:  MOVLB  0
0911C:  CALL   14A0
09120:  MOVLB  6
09122:  DECFSZ x6C,F
09124:  BRA    9116
09126:  MOVLW  06
09128:  MOVLB  4
0912A:  MOVWF  xC7
0912C:  MOVLB  6
0912E:  CLRF   x73
09130:  MOVLB  0
09132:  CALL   14FE
09136:  MOVLW  01
09138:  MOVLB  4
0913A:  MOVWF  xC9
0913C:  MOVWF  xC8
....................          
....................       if(Opcion>4) 
0913E:  MOVLB  4
09140:  MOVF   xC9,W
09142:  SUBLW  04
09144:  BC    914A
....................       {Opcion=1;} 
09146:  MOVLW  01
09148:  MOVWF  xC9
....................       if(Opcion<1) 
0914A:  MOVF   xC9,F
0914C:  BNZ   9152
....................       {Opcion=4;} 
0914E:  MOVLW  04
09150:  MOVWF  xC9
....................     } 
.................... //_--------------------------------------------------------------------------------------------------------------------------------------------------------        
....................  
.................... //_-------------------------------------------------------------------------------------------------------------------------------------------------------- 
....................       if(Menu==33){ //Menu de Apagado de Cabina. 
09152:  MOVF   xC7,W
09154:  SUBLW  21
09156:  BTFSS  FD8.2
09158:  BRA    94CE
....................        
....................       strcpy(Menus.Letra,"  Apagar?"); 
0915A:  MOVLW  04
0915C:  MOVWF  FEA
0915E:  MOVLW  16
09160:  MOVWF  FE9
09162:  MOVFF  FF2,66C
09166:  BCF    FF2.7
09168:  MOVLW  00
0916A:  MOVLB  0
0916C:  CALL   1284
09170:  TBLRD*-
09172:  TBLRD*+
09174:  MOVF   FF5,W
09176:  MOVWF  FEE
09178:  IORLW  00
0917A:  BNZ   9172
0917C:  MOVLB  6
0917E:  BTFSC  x6C.7
09180:  BSF    FF2.7
....................       displayMenu(Menus.Letra,10,0,1,2); 
09182:  MOVLW  04
09184:  MOVWF  x74
09186:  MOVLW  16
09188:  MOVWF  x73
0918A:  MOVLW  0A
0918C:  MOVWF  x75
0918E:  CLRF   x76
09190:  MOVLW  01
09192:  MOVWF  x77
09194:  MOVLW  02
09196:  MOVWF  x78
09198:  MOVLB  0
0919A:  CALL   4FA6
....................        
....................       if(unidad==1) 
0919E:  MOVLB  4
091A0:  DECFSZ xC8,W
091A2:  BRA    9230
....................       {strcpy(Menus.Letra,"SI"); 
091A4:  MOVLW  04
091A6:  MOVWF  FEA
091A8:  MOVLW  16
091AA:  MOVWF  FE9
091AC:  MOVFF  FF2,66C
091B0:  BCF    FF2.7
091B2:  MOVLW  00
091B4:  MOVLB  0
091B6:  CALL   12A8
091BA:  TBLRD*-
091BC:  TBLRD*+
091BE:  MOVF   FF5,W
091C0:  MOVWF  FEE
091C2:  IORLW  00
091C4:  BNZ   91BC
091C6:  MOVLB  6
091C8:  BTFSC  x6C.7
091CA:  BSF    FF2.7
....................       displayMenu(Menus.Letra,50,25,1,2); 
091CC:  MOVLW  04
091CE:  MOVWF  x74
091D0:  MOVLW  16
091D2:  MOVWF  x73
091D4:  MOVLW  32
091D6:  MOVWF  x75
091D8:  MOVLW  19
091DA:  MOVWF  x76
091DC:  MOVLW  01
091DE:  MOVWF  x77
091E0:  MOVLW  02
091E2:  MOVWF  x78
091E4:  MOVLB  0
091E6:  CALL   4FA6
....................       strcpy(Menus.Letra,"NO"); 
091EA:  MOVLW  04
091EC:  MOVWF  FEA
091EE:  MOVLW  16
091F0:  MOVWF  FE9
091F2:  MOVFF  FF2,66C
091F6:  BCF    FF2.7
091F8:  MOVLW  00
091FA:  CALL   12C6
091FE:  TBLRD*-
09200:  TBLRD*+
09202:  MOVF   FF5,W
09204:  MOVWF  FEE
09206:  IORLW  00
09208:  BNZ   9200
0920A:  MOVLB  6
0920C:  BTFSC  x6C.7
0920E:  BSF    FF2.7
....................       displayMenu(Menus.Letra,50,45,0,2);} 
09210:  MOVLW  04
09212:  MOVWF  x74
09214:  MOVLW  16
09216:  MOVWF  x73
09218:  MOVLW  32
0921A:  MOVWF  x75
0921C:  MOVLW  2D
0921E:  MOVWF  x76
09220:  CLRF   x77
09222:  MOVLW  02
09224:  MOVWF  x78
09226:  MOVLB  0
09228:  CALL   4FA6
....................       else 
0922C:  BRA    92B8
0922E:  MOVLB  4
....................       {strcpy(Menus.Letra,"SI"); 
09230:  MOVLW  04
09232:  MOVWF  FEA
09234:  MOVLW  16
09236:  MOVWF  FE9
09238:  MOVFF  FF2,66C
0923C:  BCF    FF2.7
0923E:  MOVLW  00
09240:  MOVLB  0
09242:  CALL   12A8
09246:  TBLRD*-
09248:  TBLRD*+
0924A:  MOVF   FF5,W
0924C:  MOVWF  FEE
0924E:  IORLW  00
09250:  BNZ   9248
09252:  MOVLB  6
09254:  BTFSC  x6C.7
09256:  BSF    FF2.7
....................       displayMenu(Menus.Letra,50,25,0,2); 
09258:  MOVLW  04
0925A:  MOVWF  x74
0925C:  MOVLW  16
0925E:  MOVWF  x73
09260:  MOVLW  32
09262:  MOVWF  x75
09264:  MOVLW  19
09266:  MOVWF  x76
09268:  CLRF   x77
0926A:  MOVLW  02
0926C:  MOVWF  x78
0926E:  MOVLB  0
09270:  CALL   4FA6
....................       strcpy(Menus.Letra,"NO"); 
09274:  MOVLW  04
09276:  MOVWF  FEA
09278:  MOVLW  16
0927A:  MOVWF  FE9
0927C:  MOVFF  FF2,66C
09280:  BCF    FF2.7
09282:  MOVLW  00
09284:  CALL   12C6
09288:  TBLRD*-
0928A:  TBLRD*+
0928C:  MOVF   FF5,W
0928E:  MOVWF  FEE
09290:  IORLW  00
09292:  BNZ   928A
09294:  MOVLB  6
09296:  BTFSC  x6C.7
09298:  BSF    FF2.7
....................       displayMenu(Menus.Letra,50,45,1,2);} 
0929A:  MOVLW  04
0929C:  MOVWF  x74
0929E:  MOVLW  16
092A0:  MOVWF  x73
092A2:  MOVLW  32
092A4:  MOVWF  x75
092A6:  MOVLW  2D
092A8:  MOVWF  x76
092AA:  MOVLW  01
092AC:  MOVWF  x77
092AE:  MOVLW  02
092B0:  MOVWF  x78
092B2:  MOVLB  0
092B4:  CALL   4FA6
....................        
....................        
....................          
....................       if(UP)//Si oprime hacia arriba 
092B8:  BSF    F92.5
092BA:  BTFSC  F80.5
092BC:  BRA    92D0
....................       {   
....................          delay_ms(90);unidad++; 
092BE:  MOVLW  5A
092C0:  MOVLB  6
092C2:  MOVWF  x80
092C4:  MOVLB  0
092C6:  CALL   14A0
092CA:  MOVLB  4
092CC:  INCF   xC8,F
092CE:  MOVLB  0
....................       } 
....................              
....................       if(DOWN)//Si oprime hacia abajo 
092D0:  BSF    F96.0
092D2:  BTFSC  F84.0
092D4:  BRA    92E8
....................       { 
....................          delay_ms(90);unidad--; 
092D6:  MOVLW  5A
092D8:  MOVLB  6
092DA:  MOVWF  x80
092DC:  MOVLB  0
092DE:  CALL   14A0
092E2:  MOVLB  4
092E4:  DECF   xC8,F
092E6:  MOVLB  0
....................       } 
....................              
....................       if(RIGHT){//Si oprime SET 
092E8:  BSF    F96.1
092EA:  BTFSC  F84.1
092EC:  BRA    9484
....................          delay_ms(30); 
092EE:  MOVLW  1E
092F0:  MOVLB  6
092F2:  MOVWF  x80
092F4:  MOVLB  0
092F6:  CALL   14A0
....................          if(Flanco4==0){ 
092FA:  MOVLB  4
092FC:  BTFSC  x2C.4
092FE:  BRA    9480
....................             if(unidad==1){ 
09300:  DECFSZ xC8,W
09302:  BRA    946E
....................                glcd_fillscreen(OFF); 
09304:  MOVLB  6
09306:  CLRF   x73
09308:  MOVLB  0
0930A:  CALL   14FE
....................                write_eeprom(33,make8(minutos_trabajo,0)); 
0930E:  MOVFF  4E3,66C
09312:  CLRF   FAA
09314:  MOVLW  21
09316:  MOVWF  FA9
09318:  MOVFF  66C,FA8
0931C:  BCF    FA6.6
0931E:  BCF    FA6.7
09320:  BSF    FA6.2
09322:  MOVF   FF2,W
09324:  MOVWF  00
09326:  BCF    FF2.7
09328:  MOVLB  F
0932A:  MOVLW  55
0932C:  MOVWF  FA7
0932E:  MOVLW  AA
09330:  MOVWF  FA7
09332:  BSF    FA6.1
09334:  BTFSC  FA6.1
09336:  BRA    9334
09338:  BCF    FA6.2
0933A:  MOVF   00,W
0933C:  IORWF  FF2,F
....................                delay_ms(20); 
0933E:  MOVLW  14
09340:  MOVLB  6
09342:  MOVWF  x80
09344:  MOVLB  0
09346:  CALL   14A0
....................                write_eeprom(34,make8(minutos_trabajo,1)); 
0934A:  MOVFF  4E4,66C
0934E:  CLRF   FAA
09350:  MOVLW  22
09352:  MOVWF  FA9
09354:  MOVFF  66C,FA8
09358:  BCF    FA6.6
0935A:  BCF    FA6.7
0935C:  BSF    FA6.2
0935E:  MOVF   FF2,W
09360:  MOVWF  00
09362:  BCF    FF2.7
09364:  MOVLB  F
09366:  MOVLW  55
09368:  MOVWF  FA7
0936A:  MOVLW  AA
0936C:  MOVWF  FA7
0936E:  BSF    FA6.1
09370:  BTFSC  FA6.1
09372:  BRA    9370
09374:  BCF    FA6.2
09376:  MOVF   00,W
09378:  IORWF  FF2,F
....................                delay_ms(20); 
0937A:  MOVLW  14
0937C:  MOVLB  6
0937E:  MOVWF  x80
09380:  MOVLB  0
09382:  CALL   14A0
....................                write_eeprom(16,Ttrabajo[0]); 
09386:  CLRF   FAA
09388:  MOVLW  10
0938A:  MOVWF  FA9
0938C:  MOVFF  50B,FA8
09390:  BCF    FA6.6
09392:  BCF    FA6.7
09394:  BSF    FA6.2
09396:  MOVF   FF2,W
09398:  MOVWF  00
0939A:  BCF    FF2.7
0939C:  MOVLB  F
0939E:  MOVLW  55
093A0:  MOVWF  FA7
093A2:  MOVLW  AA
093A4:  MOVWF  FA7
093A6:  BSF    FA6.1
093A8:  BTFSC  FA6.1
093AA:  BRA    93A8
093AC:  BCF    FA6.2
093AE:  MOVF   00,W
093B0:  IORWF  FF2,F
....................                delay_ms(20); 
093B2:  MOVLW  14
093B4:  MOVLB  6
093B6:  MOVWF  x80
093B8:  MOVLB  0
093BA:  CALL   14A0
....................                write_eeprom(17,Ttrabajo[1]); 
093BE:  CLRF   FAA
093C0:  MOVLW  11
093C2:  MOVWF  FA9
093C4:  MOVFF  50C,FA8
093C8:  BCF    FA6.6
093CA:  BCF    FA6.7
093CC:  BSF    FA6.2
093CE:  MOVF   FF2,W
093D0:  MOVWF  00
093D2:  BCF    FF2.7
093D4:  MOVLB  F
093D6:  MOVLW  55
093D8:  MOVWF  FA7
093DA:  MOVLW  AA
093DC:  MOVWF  FA7
093DE:  BSF    FA6.1
093E0:  BTFSC  FA6.1
093E2:  BRA    93E0
093E4:  BCF    FA6.2
093E6:  MOVF   00,W
093E8:  IORWF  FF2,F
....................                delay_ms(20); 
093EA:  MOVLW  14
093EC:  MOVLB  6
093EE:  MOVWF  x80
093F0:  MOVLB  0
093F2:  CALL   14A0
....................                write_eeprom(18,Ttrabajo[2]); 
093F6:  CLRF   FAA
093F8:  MOVLW  12
093FA:  MOVWF  FA9
093FC:  MOVFF  50D,FA8
09400:  BCF    FA6.6
09402:  BCF    FA6.7
09404:  BSF    FA6.2
09406:  MOVF   FF2,W
09408:  MOVWF  00
0940A:  BCF    FF2.7
0940C:  MOVLB  F
0940E:  MOVLW  55
09410:  MOVWF  FA7
09412:  MOVLW  AA
09414:  MOVWF  FA7
09416:  BSF    FA6.1
09418:  BTFSC  FA6.1
0941A:  BRA    9418
0941C:  BCF    FA6.2
0941E:  MOVF   00,W
09420:  IORWF  FF2,F
....................                delay_ms(20); 
09422:  MOVLW  14
09424:  MOVLB  6
09426:  MOVWF  x80
09428:  MOVLB  0
0942A:  CALL   14A0
....................                write_eeprom(19,Ttrabajo[3]); 
0942E:  CLRF   FAA
09430:  MOVLW  13
09432:  MOVWF  FA9
09434:  MOVFF  50E,FA8
09438:  BCF    FA6.6
0943A:  BCF    FA6.7
0943C:  BSF    FA6.2
0943E:  MOVF   FF2,W
09440:  MOVWF  00
09442:  BCF    FF2.7
09444:  MOVLB  F
09446:  MOVLW  55
09448:  MOVWF  FA7
0944A:  MOVLW  AA
0944C:  MOVWF  FA7
0944E:  BSF    FA6.1
09450:  BTFSC  FA6.1
09452:  BRA    9450
09454:  BCF    FA6.2
09456:  MOVF   00,W
09458:  IORWF  FF2,F
....................                delay_ms(20); 
0945A:  MOVLW  14
0945C:  MOVLB  6
0945E:  MOVWF  x80
09460:  MOVLB  0
09462:  CALL   14A0
....................                Menu=120; 
09466:  MOVLW  78
09468:  MOVLB  4
0946A:  MOVWF  xC7
....................                //reset_cpu(); 
....................             } 
....................             else{ 
0946C:  BRA    947E
....................                Menu=2;glcd_fillscreen(OFF); 
0946E:  MOVLW  02
09470:  MOVWF  xC7
09472:  MOVLB  6
09474:  CLRF   x73
09476:  MOVLB  0
09478:  CALL   14FE
0947C:  MOVLB  4
....................             } 
....................             Flanco4=1; 
0947E:  BSF    x2C.4
....................          } 
....................       }else{ 
09480:  BRA    9488
09482:  MOVLB  0
....................          Flanco4=0; 
09484:  MOVLB  4
09486:  BCF    x2C.4
....................       } 
....................              
....................       if(LEFT)//Si oprime boton de Toma. 
09488:  BSF    F96.2
0948A:  BTFSC  F84.2
0948C:  BRA    94BA
....................       { 
....................          if(Flanco3==0){ 
0948E:  BTFSC  x2C.3
09490:  BRA    94B8
....................             delay_ms(30);Menu=2;glcd_fillscreen(OFF);Opcion=1;unidad=1; 
09492:  MOVLW  1E
09494:  MOVLB  6
09496:  MOVWF  x80
09498:  MOVLB  0
0949A:  CALL   14A0
0949E:  MOVLW  02
094A0:  MOVLB  4
094A2:  MOVWF  xC7
094A4:  MOVLB  6
094A6:  CLRF   x73
094A8:  MOVLB  0
094AA:  CALL   14FE
094AE:  MOVLW  01
094B0:  MOVLB  4
094B2:  MOVWF  xC9
094B4:  MOVWF  xC8
....................             Flanco3=1; 
094B6:  BSF    x2C.3
....................          } 
....................       }else{ 
094B8:  BRA    94BC
....................          Flanco3=0; 
094BA:  BCF    x2C.3
....................       } 
....................        
....................       if(unidad>2) 
094BC:  MOVF   xC8,W
094BE:  SUBLW  02
094C0:  BC    94C6
....................       {unidad=1;} 
094C2:  MOVLW  01
094C4:  MOVWF  xC8
....................       if(unidad<1) 
094C6:  MOVF   xC8,F
094C8:  BNZ   94CE
....................       {unidad=2;} 
094CA:  MOVLW  02
094CC:  MOVWF  xC8
....................      
....................     } 
.................... //_--------------------------------------------------------------------------------------------------------------------------------------------------------        
....................  
.................... //_-------------------------------------------------------------------------------------------------------------------------------------------------------- 
....................       if(Menu==41){ //Menu de Sensor de Flujo. 
094CE:  MOVF   xC7,W
094D0:  SUBLW  29
094D2:  BTFSS  FD8.2
094D4:  BRA    9A98
....................        
....................       if(Ajuste1>10.0) 
094D6:  MOVLB  6
094D8:  CLRF   xA0
094DA:  CLRF   x9F
094DC:  MOVLW  20
094DE:  MOVWF  x9E
094E0:  MOVLW  82
094E2:  MOVWF  x9D
094E4:  MOVFF  53A,6A4
094E8:  MOVFF  539,6A3
094EC:  MOVFF  538,6A2
094F0:  MOVFF  537,6A1
094F4:  MOVLB  0
094F6:  CALL   1BBC
094FA:  BNC   9508
....................          Ajuste1=0.0; 
094FC:  MOVLB  5
094FE:  CLRF   x3A
09500:  CLRF   x39
09502:  CLRF   x38
09504:  CLRF   x37
09506:  MOVLB  0
....................        
....................       strcpy(Menus.Letra,"Sensor de Flujo"); 
09508:  MOVLW  04
0950A:  MOVWF  FEA
0950C:  MOVLW  16
0950E:  MOVWF  FE9
09510:  MOVFF  FF2,66C
09514:  BCF    FF2.7
09516:  MOVLW  00
09518:  CALL   11DA
0951C:  TBLRD*-
0951E:  TBLRD*+
09520:  MOVF   FF5,W
09522:  MOVWF  FEE
09524:  IORLW  00
09526:  BNZ   951E
09528:  MOVLB  6
0952A:  BTFSC  x6C.7
0952C:  BSF    FF2.7
....................       displayMenu(Menus.Letra,10,0,1,1); 
0952E:  MOVLW  04
09530:  MOVWF  x74
09532:  MOVLW  16
09534:  MOVWF  x73
09536:  MOVLW  0A
09538:  MOVWF  x75
0953A:  CLRF   x76
0953C:  MOVLW  01
0953E:  MOVWF  x77
09540:  MOVWF  x78
09542:  MOVLB  0
09544:  CALL   4FA6
....................        
....................       glcd_text57(0, 12, ZF, 1, ON); 
09548:  MOVLB  6
0954A:  CLRF   x84
0954C:  MOVLW  0C
0954E:  MOVWF  x85
09550:  MOVLW  04
09552:  MOVWF  x87
09554:  MOVLW  7E
09556:  MOVWF  x86
09558:  MOVLW  01
0955A:  MOVWF  x88
0955C:  MOVWF  x89
0955E:  MOVLB  0
09560:  CALL   4D36
....................        
....................       glcd_text57(0, 20, ZA, 1, ON); 
09564:  MOVLB  6
09566:  CLRF   x84
09568:  MOVLW  14
0956A:  MOVWF  x85
0956C:  MOVLW  04
0956E:  MOVWF  x87
09570:  MOVLW  8C
09572:  MOVWF  x86
09574:  MOVLW  01
09576:  MOVWF  x88
09578:  MOVWF  x89
0957A:  MOVLB  0
0957C:  CALL   4D36
....................        
....................       glcd_text57(0, 30, AJ, 1, ON);            
09580:  MOVLB  6
09582:  CLRF   x84
09584:  MOVLW  1E
09586:  MOVWF  x85
09588:  MOVLW  04
0958A:  MOVWF  x87
0958C:  MOVLW  94
0958E:  MOVWF  x86
09590:  MOVLW  01
09592:  MOVWF  x88
09594:  MOVWF  x89
09596:  MOVLB  0
09598:  CALL   4D36
....................        
....................       displayfloat(zero_actual,44,20,0,1); 
0959C:  MOVFF  5C2,673
095A0:  MOVFF  5C1,672
095A4:  MOVFF  5C0,671
095A8:  MOVFF  5BF,670
095AC:  MOVLW  2C
095AE:  MOVLB  6
095B0:  MOVWF  x74
095B2:  MOVLW  14
095B4:  MOVWF  x75
095B6:  CLRF   x76
095B8:  MOVLW  01
095BA:  MOVWF  x77
095BC:  MOVLB  0
095BE:  CALL   5CDC
....................       displayfloat(Ajuste1,44,30,0,1); 
095C2:  MOVFF  53A,673
095C6:  MOVFF  539,672
095CA:  MOVFF  538,671
095CE:  MOVFF  537,670
095D2:  MOVLW  2C
095D4:  MOVLB  6
095D6:  MOVWF  x74
095D8:  MOVLW  1E
095DA:  MOVWF  x75
095DC:  CLRF   x76
095DE:  MOVLW  01
095E0:  MOVWF  x77
095E2:  MOVLB  0
095E4:  CALL   5CDC
....................       displayfloat(Inflow_adc,0,40,0,1); 
095E8:  MOVFF  4DA,6A2
095EC:  MOVFF  4D9,6A1
095F0:  CALL   1932
095F4:  MOVFF  00,66C
095F8:  MOVFF  01,66D
095FC:  MOVFF  02,66E
09600:  MOVFF  03,66F
09604:  MOVFF  03,673
09608:  MOVFF  02,672
0960C:  MOVFF  01,671
09610:  MOVFF  00,670
09614:  MOVLB  6
09616:  CLRF   x74
09618:  MOVLW  28
0961A:  MOVWF  x75
0961C:  CLRF   x76
0961E:  MOVLW  01
09620:  MOVWF  x77
09622:  MOVLB  0
09624:  CALL   5CDC
.................... //      displayfloat(Diferencia,0,50,0,1); 
....................        
....................       if(UP)//Si oprime hacia arriba 
09628:  BSF    F92.5
0962A:  BTFSC  F80.5
0962C:  BRA    9674
....................       {   
....................          delay_ms(30);Ajuste1+=0.01; 
0962E:  MOVLW  1E
09630:  MOVLB  6
09632:  MOVWF  x80
09634:  MOVLB  0
09636:  CALL   14A0
0963A:  BCF    FD8.1
0963C:  MOVFF  53A,6A4
09640:  MOVFF  539,6A3
09644:  MOVFF  538,6A2
09648:  MOVFF  537,6A1
0964C:  MOVLW  0A
0964E:  MOVLB  6
09650:  MOVWF  xA8
09652:  MOVLW  D7
09654:  MOVWF  xA7
09656:  MOVLW  23
09658:  MOVWF  xA6
0965A:  MOVLW  78
0965C:  MOVWF  xA5
0965E:  MOVLB  0
09660:  CALL   1E4E
09664:  MOVFF  03,53A
09668:  MOVFF  02,539
0966C:  MOVFF  01,538
09670:  MOVFF  00,537
....................       } 
....................              
....................       if(DOWN)//Si oprime hacia abajo 
09674:  BSF    F96.0
09676:  BTFSC  F84.0
09678:  BRA    96C0
....................       {    
....................          delay_ms(30);Ajuste1-=0.01; 
0967A:  MOVLW  1E
0967C:  MOVLB  6
0967E:  MOVWF  x80
09680:  MOVLB  0
09682:  CALL   14A0
09686:  BSF    FD8.1
09688:  MOVFF  53A,6A4
0968C:  MOVFF  539,6A3
09690:  MOVFF  538,6A2
09694:  MOVFF  537,6A1
09698:  MOVLW  0A
0969A:  MOVLB  6
0969C:  MOVWF  xA8
0969E:  MOVLW  D7
096A0:  MOVWF  xA7
096A2:  MOVLW  23
096A4:  MOVWF  xA6
096A6:  MOVLW  78
096A8:  MOVWF  xA5
096AA:  MOVLB  0
096AC:  CALL   1E4E
096B0:  MOVFF  03,53A
096B4:  MOVFF  02,539
096B8:  MOVFF  01,538
096BC:  MOVFF  00,537
....................       } 
....................              
....................       if(RIGHT)//Si oprime SET 
096C0:  BSF    F96.1
096C2:  BTFSC  F84.1
096C4:  BRA    9932
....................       {   
....................          zero_actual=Inflow_adc; 
096C6:  MOVFF  4DA,6A2
096CA:  MOVFF  4D9,6A1
096CE:  CALL   1932
096D2:  MOVFF  03,5C2
096D6:  MOVFF  02,5C1
096DA:  MOVFF  01,5C0
096DE:  MOVFF  00,5BF
....................          Diferencia=zero_fabrica-Inflow_adc; 
096E2:  MOVFF  4DA,6A2
096E6:  MOVFF  4D9,6A1
096EA:  CALL   1932
096EE:  BSF    FD8.1
096F0:  MOVFF  5BE,6A4
096F4:  MOVFF  5BD,6A3
096F8:  MOVFF  5BC,6A2
096FC:  MOVFF  5BB,6A1
09700:  MOVFF  03,6A8
09704:  MOVFF  02,6A7
09708:  MOVFF  01,6A6
0970C:  MOVFF  00,6A5
09710:  CALL   1E4E
09714:  MOVFF  03,526
09718:  MOVFF  02,525
0971C:  MOVFF  01,524
09720:  MOVFF  00,523
....................              
....................          if(Diferencia>=0) 
09724:  MOVLB  6
09726:  CLRF   xA0
09728:  CLRF   x9F
0972A:  CLRF   x9E
0972C:  CLRF   x9D
0972E:  MOVFF  526,6A4
09732:  MOVFF  525,6A3
09736:  MOVFF  524,6A2
0973A:  MOVFF  523,6A1
0973E:  MOVLB  0
09740:  CALL   1BBC
09744:  BC    9748
09746:  BNZ   9786
....................          { 
....................             negativo=10;write_eeprom(50,negativo);delay_ms(20); 
09748:  MOVLW  0A
0974A:  MOVLB  4
0974C:  MOVWF  xCA
0974E:  CLRF   FAA
09750:  MOVLW  32
09752:  MOVWF  FA9
09754:  MOVFF  4CA,FA8
09758:  BCF    FA6.6
0975A:  BCF    FA6.7
0975C:  BSF    FA6.2
0975E:  MOVF   FF2,W
09760:  MOVWF  00
09762:  BCF    FF2.7
09764:  MOVLB  F
09766:  MOVLW  55
09768:  MOVWF  FA7
0976A:  MOVLW  AA
0976C:  MOVWF  FA7
0976E:  BSF    FA6.1
09770:  BTFSC  FA6.1
09772:  BRA    9770
09774:  BCF    FA6.2
09776:  MOVF   00,W
09778:  IORWF  FF2,F
0977A:  MOVLW  14
0977C:  MOVLB  6
0977E:  MOVWF  x80
09780:  MOVLB  0
09782:  CALL   14A0
....................          } 
....................          if(Diferencia<0) 
09786:  MOVFF  526,6A0
0978A:  MOVFF  525,69F
0978E:  MOVFF  524,69E
09792:  MOVFF  523,69D
09796:  MOVLB  6
09798:  CLRF   xA4
0979A:  CLRF   xA3
0979C:  CLRF   xA2
0979E:  CLRF   xA1
097A0:  MOVLB  0
097A2:  CALL   1BBC
097A6:  BNC   97E6
....................          { 
....................             negativo=20;write_eeprom(50,negativo);delay_ms(20); 
097A8:  MOVLW  14
097AA:  MOVLB  4
097AC:  MOVWF  xCA
097AE:  CLRF   FAA
097B0:  MOVLW  32
097B2:  MOVWF  FA9
097B4:  MOVFF  4CA,FA8
097B8:  BCF    FA6.6
097BA:  BCF    FA6.7
097BC:  BSF    FA6.2
097BE:  MOVF   FF2,W
097C0:  MOVWF  00
097C2:  BCF    FF2.7
097C4:  MOVLB  F
097C6:  MOVLW  55
097C8:  MOVWF  FA7
097CA:  MOVLW  AA
097CC:  MOVWF  FA7
097CE:  BSF    FA6.1
097D0:  BTFSC  FA6.1
097D2:  BRA    97D0
097D4:  BCF    FA6.2
097D6:  MOVF   00,W
097D8:  IORWF  FF2,F
097DA:  MOVLW  14
097DC:  MOVLB  6
097DE:  MOVWF  x80
097E0:  MOVLB  0
097E2:  CALL   14A0
....................          } 
....................          Diferencia=abs(Diferencia); 
097E6:  MOVFF  523,00
097EA:  MOVFF  524,01
097EE:  MOVFF  525,02
097F2:  MOVFF  526,03
097F6:  BCF    01.7
097F8:  MOVFF  526,526
097FC:  MOVFF  525,525
09800:  MOVFF  01,524
09804:  MOVFF  523,523
....................          Temporal1=(int16)Diferencia; 
09808:  MOVFF  526,6A0
0980C:  MOVFF  525,69F
09810:  MOVFF  524,69E
09814:  MOVFF  523,69D
09818:  CALL   1C36
0981C:  MOVFF  02,4DE
09820:  MOVFF  01,4DD
....................          write_eeprom(60,make8(Temporal1,0)); 
09824:  MOVFF  4DD,66C
09828:  CLRF   FAA
0982A:  MOVLW  3C
0982C:  MOVWF  FA9
0982E:  MOVFF  66C,FA8
09832:  BCF    FA6.6
09834:  BCF    FA6.7
09836:  BSF    FA6.2
09838:  MOVF   FF2,W
0983A:  MOVWF  00
0983C:  BCF    FF2.7
0983E:  MOVLB  F
09840:  MOVLW  55
09842:  MOVWF  FA7
09844:  MOVLW  AA
09846:  MOVWF  FA7
09848:  BSF    FA6.1
0984A:  BTFSC  FA6.1
0984C:  BRA    984A
0984E:  BCF    FA6.2
09850:  MOVF   00,W
09852:  IORWF  FF2,F
....................          delay_ms(20); 
09854:  MOVLW  14
09856:  MOVLB  6
09858:  MOVWF  x80
0985A:  MOVLB  0
0985C:  CALL   14A0
....................          write_eeprom(61,make8(Temporal1,1));//Guardar valor de Setpoint en eeprom 
09860:  MOVFF  4DE,66C
09864:  CLRF   FAA
09866:  MOVLW  3D
09868:  MOVWF  FA9
0986A:  MOVFF  66C,FA8
0986E:  BCF    FA6.6
09870:  BCF    FA6.7
09872:  BSF    FA6.2
09874:  MOVF   FF2,W
09876:  MOVWF  00
09878:  BCF    FF2.7
0987A:  MOVLB  F
0987C:  MOVLW  55
0987E:  MOVWF  FA7
09880:  MOVLW  AA
09882:  MOVWF  FA7
09884:  BSF    FA6.1
09886:  BTFSC  FA6.1
09888:  BRA    9886
0988A:  BCF    FA6.2
0988C:  MOVF   00,W
0988E:  IORWF  FF2,F
....................          delay_ms(20); 
09890:  MOVLW  14
09892:  MOVLB  6
09894:  MOVWF  x80
09896:  MOVLB  0
09898:  CALL   14A0
....................  
....................          Temporal1=(int16)zero_actual; 
0989C:  MOVFF  5C2,6A0
098A0:  MOVFF  5C1,69F
098A4:  MOVFF  5C0,69E
098A8:  MOVFF  5BF,69D
098AC:  CALL   1C36
098B0:  MOVFF  02,4DE
098B4:  MOVFF  01,4DD
....................          write_eeprom(29,make8(Temporal1,0)); 
098B8:  MOVFF  4DD,66C
098BC:  CLRF   FAA
098BE:  MOVLW  1D
098C0:  MOVWF  FA9
098C2:  MOVFF  66C,FA8
098C6:  BCF    FA6.6
098C8:  BCF    FA6.7
098CA:  BSF    FA6.2
098CC:  MOVF   FF2,W
098CE:  MOVWF  00
098D0:  BCF    FF2.7
098D2:  MOVLB  F
098D4:  MOVLW  55
098D6:  MOVWF  FA7
098D8:  MOVLW  AA
098DA:  MOVWF  FA7
098DC:  BSF    FA6.1
098DE:  BTFSC  FA6.1
098E0:  BRA    98DE
098E2:  BCF    FA6.2
098E4:  MOVF   00,W
098E6:  IORWF  FF2,F
....................          delay_ms(20); 
098E8:  MOVLW  14
098EA:  MOVLB  6
098EC:  MOVWF  x80
098EE:  MOVLB  0
098F0:  CALL   14A0
....................          write_eeprom(30,make8(Temporal1,1));//Guardar valor de Setpoint en eeprom 
098F4:  MOVFF  4DE,66C
098F8:  CLRF   FAA
098FA:  MOVLW  1E
098FC:  MOVWF  FA9
098FE:  MOVFF  66C,FA8
09902:  BCF    FA6.6
09904:  BCF    FA6.7
09906:  BSF    FA6.2
09908:  MOVF   FF2,W
0990A:  MOVWF  00
0990C:  BCF    FF2.7
0990E:  MOVLB  F
09910:  MOVLW  55
09912:  MOVWF  FA7
09914:  MOVLW  AA
09916:  MOVWF  FA7
09918:  BSF    FA6.1
0991A:  BTFSC  FA6.1
0991C:  BRA    991A
0991E:  BCF    FA6.2
09920:  MOVF   00,W
09922:  IORWF  FF2,F
....................          delay_ms(20); 
09924:  MOVLW  14
09926:  MOVLB  6
09928:  MOVWF  x80
0992A:  MOVLB  0
0992C:  CALL   14A0
....................       } 
....................          else 
09930:  BRA    9938
....................             {Flanco1 = 0;}   
09932:  MOVLB  4
09934:  BCF    x2C.1
09936:  MOVLB  0
....................              
....................       if(LEFT)//Si oprime boton de Toma. 
09938:  BSF    F96.2
0993A:  BTFSC  F84.2
0993C:  BRA    9A96
....................       { 
....................          delay_ms(700);Menu=32;glcd_fillscreen(OFF);Opcion=1;unidad=1; 
0993E:  MOVLW  04
09940:  MOVLB  6
09942:  MOVWF  x6C
09944:  MOVLW  AF
09946:  MOVWF  x80
09948:  MOVLB  0
0994A:  CALL   14A0
0994E:  MOVLB  6
09950:  DECFSZ x6C,F
09952:  BRA    9944
09954:  MOVLW  20
09956:  MOVLB  4
09958:  MOVWF  xC7
0995A:  MOVLB  6
0995C:  CLRF   x73
0995E:  MOVLB  0
09960:  CALL   14FE
09964:  MOVLW  01
09966:  MOVLB  4
09968:  MOVWF  xC9
0996A:  MOVWF  xC8
....................          Temporal=Ajuste1; 
0996C:  MOVFF  53A,542
09970:  MOVFF  539,541
09974:  MOVFF  538,540
09978:  MOVFF  537,53F
....................          Entero=(int)Ajuste1; 
0997C:  MOVFF  53A,6A0
09980:  MOVFF  539,69F
09984:  MOVFF  538,69E
09988:  MOVFF  537,69D
0998C:  MOVLB  0
0998E:  CALL   1C36
09992:  MOVFF  01,4D2
....................          Temporal=Temporal-Entero; 
09996:  MOVLB  6
09998:  CLRF   xA2
0999A:  MOVFF  4D2,6A1
0999E:  MOVLB  0
099A0:  CALL   1932
099A4:  BSF    FD8.1
099A6:  MOVFF  542,6A4
099AA:  MOVFF  541,6A3
099AE:  MOVFF  540,6A2
099B2:  MOVFF  53F,6A1
099B6:  MOVFF  03,6A8
099BA:  MOVFF  02,6A7
099BE:  MOVFF  01,6A6
099C2:  MOVFF  00,6A5
099C6:  CALL   1E4E
099CA:  MOVFF  03,542
099CE:  MOVFF  02,541
099D2:  MOVFF  01,540
099D6:  MOVFF  00,53F
....................          Temporal2=Temporal*10.0; 
099DA:  MOVFF  542,6A0
099DE:  MOVFF  541,69F
099E2:  MOVFF  540,69E
099E6:  MOVFF  53F,69D
099EA:  MOVLB  6
099EC:  CLRF   xA4
099EE:  CLRF   xA3
099F0:  MOVLW  20
099F2:  MOVWF  xA2
099F4:  MOVLW  82
099F6:  MOVWF  xA1
099F8:  MOVLB  0
099FA:  CALL   1AC6
099FE:  MOVFF  03,546
09A02:  MOVFF  02,545
09A06:  MOVFF  01,544
09A0A:  MOVFF  00,543
....................          Decimal1=(int8)Temporal2; 
09A0E:  MOVFF  546,6A0
09A12:  MOVFF  545,69F
09A16:  MOVFF  544,69E
09A1A:  MOVFF  543,69D
09A1E:  CALL   1C36
09A22:  MOVFF  01,4D3
....................          write_eeprom(25,Entero); 
09A26:  CLRF   FAA
09A28:  MOVLW  19
09A2A:  MOVWF  FA9
09A2C:  MOVFF  4D2,FA8
09A30:  BCF    FA6.6
09A32:  BCF    FA6.7
09A34:  BSF    FA6.2
09A36:  MOVF   FF2,W
09A38:  MOVWF  00
09A3A:  BCF    FF2.7
09A3C:  MOVLB  F
09A3E:  MOVLW  55
09A40:  MOVWF  FA7
09A42:  MOVLW  AA
09A44:  MOVWF  FA7
09A46:  BSF    FA6.1
09A48:  BTFSC  FA6.1
09A4A:  BRA    9A48
09A4C:  BCF    FA6.2
09A4E:  MOVF   00,W
09A50:  IORWF  FF2,F
....................          delay_ms(20); 
09A52:  MOVLW  14
09A54:  MOVLB  6
09A56:  MOVWF  x80
09A58:  MOVLB  0
09A5A:  CALL   14A0
....................          write_eeprom(26,Decimal1); 
09A5E:  CLRF   FAA
09A60:  MOVLW  1A
09A62:  MOVWF  FA9
09A64:  MOVFF  4D3,FA8
09A68:  BCF    FA6.6
09A6A:  BCF    FA6.7
09A6C:  BSF    FA6.2
09A6E:  MOVF   FF2,W
09A70:  MOVWF  00
09A72:  BCF    FF2.7
09A74:  MOVLB  F
09A76:  MOVLW  55
09A78:  MOVWF  FA7
09A7A:  MOVLW  AA
09A7C:  MOVWF  FA7
09A7E:  BSF    FA6.1
09A80:  BTFSC  FA6.1
09A82:  BRA    9A80
09A84:  BCF    FA6.2
09A86:  MOVF   00,W
09A88:  IORWF  FF2,F
....................          delay_ms(20); 
09A8A:  MOVLW  14
09A8C:  MOVLB  6
09A8E:  MOVWF  x80
09A90:  MOVLB  0
09A92:  CALL   14A0
09A96:  MOVLB  4
....................       } 
....................     } 
.................... //_--------------------------------------------------------------------------------------------------------------------------------------------------------        
....................  
.................... //_-------------------------------------------------------------------------------------------------------------------------------------------------------- 
....................       if(Menu==42){ //Menu de Sensor de Presin. 
09A98:  MOVF   xC7,W
09A9A:  SUBLW  2A
09A9C:  BTFSS  FD8.2
09A9E:  BRA    9ECC
....................        
....................       if(Ajuste2>10.0) 
09AA0:  MOVLB  6
09AA2:  CLRF   xA0
09AA4:  CLRF   x9F
09AA6:  MOVLW  20
09AA8:  MOVWF  x9E
09AAA:  MOVLW  82
09AAC:  MOVWF  x9D
09AAE:  MOVFF  53E,6A4
09AB2:  MOVFF  53D,6A3
09AB6:  MOVFF  53C,6A2
09ABA:  MOVFF  53B,6A1
09ABE:  MOVLB  0
09AC0:  CALL   1BBC
09AC4:  BNC   9AD2
....................          Ajuste2=0.0; 
09AC6:  MOVLB  5
09AC8:  CLRF   x3E
09ACA:  CLRF   x3D
09ACC:  CLRF   x3C
09ACE:  CLRF   x3B
09AD0:  MOVLB  0
....................        
....................       strcpy(Menus.Letra,"Sensor de Presion"); 
09AD2:  MOVLW  04
09AD4:  MOVWF  FEA
09AD6:  MOVLW  16
09AD8:  MOVWF  FE9
09ADA:  MOVFF  FF2,66C
09ADE:  BCF    FF2.7
09AE0:  MOVLW  00
09AE2:  CALL   1204
09AE6:  TBLRD*-
09AE8:  TBLRD*+
09AEA:  MOVF   FF5,W
09AEC:  MOVWF  FEE
09AEE:  IORLW  00
09AF0:  BNZ   9AE8
09AF2:  MOVLB  6
09AF4:  BTFSC  x6C.7
09AF6:  BSF    FF2.7
....................       displayMenu(Menus.Letra,10,0,1,1); 
09AF8:  MOVLW  04
09AFA:  MOVWF  x74
09AFC:  MOVLW  16
09AFE:  MOVWF  x73
09B00:  MOVLW  0A
09B02:  MOVWF  x75
09B04:  CLRF   x76
09B06:  MOVLW  01
09B08:  MOVWF  x77
09B0A:  MOVWF  x78
09B0C:  MOVLB  0
09B0E:  CALL   4FA6
....................        
....................       glcd_text57(0, 12, ZFP, 1, ON); 
09B12:  MOVLB  6
09B14:  CLRF   x84
09B16:  MOVLW  0C
09B18:  MOVWF  x85
09B1A:  MOVLW  04
09B1C:  MOVWF  x87
09B1E:  MOVLW  A7
09B20:  MOVWF  x86
09B22:  MOVLW  01
09B24:  MOVWF  x88
09B26:  MOVWF  x89
09B28:  MOVLB  0
09B2A:  CALL   4D36
....................        
....................       glcd_text57(0, 20, ZA, 1, ON); 
09B2E:  MOVLB  6
09B30:  CLRF   x84
09B32:  MOVLW  14
09B34:  MOVWF  x85
09B36:  MOVLW  04
09B38:  MOVWF  x87
09B3A:  MOVLW  8C
09B3C:  MOVWF  x86
09B3E:  MOVLW  01
09B40:  MOVWF  x88
09B42:  MOVWF  x89
09B44:  MOVLB  0
09B46:  CALL   4D36
....................        
....................       glcd_text57(0, 30, AJ, 1, ON);            
09B4A:  MOVLB  6
09B4C:  CLRF   x84
09B4E:  MOVLW  1E
09B50:  MOVWF  x85
09B52:  MOVLW  04
09B54:  MOVWF  x87
09B56:  MOVLW  94
09B58:  MOVWF  x86
09B5A:  MOVLW  01
09B5C:  MOVWF  x88
09B5E:  MOVWF  x89
09B60:  MOVLB  0
09B62:  CALL   4D36
....................        
....................       displayfloat(G,44,20,0,1); 
09B66:  MOVFF  5CE,673
09B6A:  MOVFF  5CD,672
09B6E:  MOVFF  5CC,671
09B72:  MOVFF  5CB,670
09B76:  MOVLW  2C
09B78:  MOVLB  6
09B7A:  MOVWF  x74
09B7C:  MOVLW  14
09B7E:  MOVWF  x75
09B80:  CLRF   x76
09B82:  MOVLW  01
09B84:  MOVWF  x77
09B86:  MOVLB  0
09B88:  CALL   5CDC
....................       displayfloat(Ajuste2,44,30,0,1); 
09B8C:  MOVFF  53E,673
09B90:  MOVFF  53D,672
09B94:  MOVFF  53C,671
09B98:  MOVFF  53B,670
09B9C:  MOVLW  2C
09B9E:  MOVLB  6
09BA0:  MOVWF  x74
09BA2:  MOVLW  1E
09BA4:  MOVWF  x75
09BA6:  CLRF   x76
09BA8:  MOVLW  01
09BAA:  MOVWF  x77
09BAC:  MOVLB  0
09BAE:  CALL   5CDC
....................       displayfloat(Filtro_DownFlow_adc,0,40,0,1); 
09BB2:  MOVFF  4DC,6A2
09BB6:  MOVFF  4DB,6A1
09BBA:  CALL   1932
09BBE:  MOVFF  00,66C
09BC2:  MOVFF  01,66D
09BC6:  MOVFF  02,66E
09BCA:  MOVFF  03,66F
09BCE:  MOVFF  03,673
09BD2:  MOVFF  02,672
09BD6:  MOVFF  01,671
09BDA:  MOVFF  00,670
09BDE:  MOVLB  6
09BE0:  CLRF   x74
09BE2:  MOVLW  28
09BE4:  MOVWF  x75
09BE6:  CLRF   x76
09BE8:  MOVLW  01
09BEA:  MOVWF  x77
09BEC:  MOVLB  0
09BEE:  CALL   5CDC
....................       displayfloat(Filtro_DownFlow,0,50,0,1); 
09BF2:  MOVFF  522,673
09BF6:  MOVFF  521,672
09BFA:  MOVFF  520,671
09BFE:  MOVFF  51F,670
09C02:  MOVLB  6
09C04:  CLRF   x74
09C06:  MOVLW  32
09C08:  MOVWF  x75
09C0A:  CLRF   x76
09C0C:  MOVLW  01
09C0E:  MOVWF  x77
09C10:  MOVLB  0
09C12:  CALL   5CDC
....................        
....................       if(UP)//Si oprime hacia arriba 
09C16:  BSF    F92.5
09C18:  BTFSC  F80.5
09C1A:  BRA    9C62
....................       {   
....................          delay_ms(30);Ajuste2+=0.01; 
09C1C:  MOVLW  1E
09C1E:  MOVLB  6
09C20:  MOVWF  x80
09C22:  MOVLB  0
09C24:  CALL   14A0
09C28:  BCF    FD8.1
09C2A:  MOVFF  53E,6A4
09C2E:  MOVFF  53D,6A3
09C32:  MOVFF  53C,6A2
09C36:  MOVFF  53B,6A1
09C3A:  MOVLW  0A
09C3C:  MOVLB  6
09C3E:  MOVWF  xA8
09C40:  MOVLW  D7
09C42:  MOVWF  xA7
09C44:  MOVLW  23
09C46:  MOVWF  xA6
09C48:  MOVLW  78
09C4A:  MOVWF  xA5
09C4C:  MOVLB  0
09C4E:  CALL   1E4E
09C52:  MOVFF  03,53E
09C56:  MOVFF  02,53D
09C5A:  MOVFF  01,53C
09C5E:  MOVFF  00,53B
....................       } 
....................              
....................       if(DOWN)//Si oprime hacia abajo 
09C62:  BSF    F96.0
09C64:  BTFSC  F84.0
09C66:  BRA    9CAE
....................       {   
....................          delay_ms(30);Ajuste2-=0.01; 
09C68:  MOVLW  1E
09C6A:  MOVLB  6
09C6C:  MOVWF  x80
09C6E:  MOVLB  0
09C70:  CALL   14A0
09C74:  BSF    FD8.1
09C76:  MOVFF  53E,6A4
09C7A:  MOVFF  53D,6A3
09C7E:  MOVFF  53C,6A2
09C82:  MOVFF  53B,6A1
09C86:  MOVLW  0A
09C88:  MOVLB  6
09C8A:  MOVWF  xA8
09C8C:  MOVLW  D7
09C8E:  MOVWF  xA7
09C90:  MOVLW  23
09C92:  MOVWF  xA6
09C94:  MOVLW  78
09C96:  MOVWF  xA5
09C98:  MOVLB  0
09C9A:  CALL   1E4E
09C9E:  MOVFF  03,53E
09CA2:  MOVFF  02,53D
09CA6:  MOVFF  01,53C
09CAA:  MOVFF  00,53B
....................       } 
....................              
....................       if(RIGHT)//Si oprime SET 
09CAE:  BSF    F96.1
09CB0:  BTFSC  F84.1
09CB2:  BRA    9D66
....................       {            
....................          G=Filtro_Downflow_adc; 
09CB4:  MOVFF  4DC,6A2
09CB8:  MOVFF  4DB,6A1
09CBC:  CALL   1932
09CC0:  MOVFF  03,5CE
09CC4:  MOVFF  02,5CD
09CC8:  MOVFF  01,5CC
09CCC:  MOVFF  00,5CB
....................          G16=(int16)G; 
09CD0:  MOVFF  5CE,6A0
09CD4:  MOVFF  5CD,69F
09CD8:  MOVFF  5CC,69E
09CDC:  MOVFF  5CB,69D
09CE0:  CALL   1C36
09CE4:  MOVFF  02,4E6
09CE8:  MOVFF  01,4E5
....................          G_l=G16; G_h=(G16>>8); 
09CEC:  MOVFF  4E5,4CB
09CF0:  MOVFF  4E6,4CC
....................              
....................          write_eeprom(62,G_l); 
09CF4:  CLRF   FAA
09CF6:  MOVLW  3E
09CF8:  MOVWF  FA9
09CFA:  MOVFF  4CB,FA8
09CFE:  BCF    FA6.6
09D00:  BCF    FA6.7
09D02:  BSF    FA6.2
09D04:  MOVF   FF2,W
09D06:  MOVWF  00
09D08:  BCF    FF2.7
09D0A:  MOVLB  F
09D0C:  MOVLW  55
09D0E:  MOVWF  FA7
09D10:  MOVLW  AA
09D12:  MOVWF  FA7
09D14:  BSF    FA6.1
09D16:  BTFSC  FA6.1
09D18:  BRA    9D16
09D1A:  BCF    FA6.2
09D1C:  MOVF   00,W
09D1E:  IORWF  FF2,F
....................          delay_ms(20); 
09D20:  MOVLW  14
09D22:  MOVLB  6
09D24:  MOVWF  x80
09D26:  MOVLB  0
09D28:  CALL   14A0
....................          write_eeprom(63,G_h);//Guardar valor de Setpoint en eeprom 
09D2C:  CLRF   FAA
09D2E:  MOVLW  3F
09D30:  MOVWF  FA9
09D32:  MOVFF  4CC,FA8
09D36:  BCF    FA6.6
09D38:  BCF    FA6.7
09D3A:  BSF    FA6.2
09D3C:  MOVF   FF2,W
09D3E:  MOVWF  00
09D40:  BCF    FF2.7
09D42:  MOVLB  F
09D44:  MOVLW  55
09D46:  MOVWF  FA7
09D48:  MOVLW  AA
09D4A:  MOVWF  FA7
09D4C:  BSF    FA6.1
09D4E:  BTFSC  FA6.1
09D50:  BRA    9D4E
09D52:  BCF    FA6.2
09D54:  MOVF   00,W
09D56:  IORWF  FF2,F
....................          delay_ms(20); 
09D58:  MOVLW  14
09D5A:  MOVLB  6
09D5C:  MOVWF  x80
09D5E:  MOVLB  0
09D60:  CALL   14A0
....................       } 
....................          else 
09D64:  BRA    9D6C
....................             {Flanco1 = 0;}   
09D66:  MOVLB  4
09D68:  BCF    x2C.1
09D6A:  MOVLB  0
....................              
....................       if(LEFT)//Si oprime boton de Toma. 
09D6C:  BSF    F96.2
09D6E:  BTFSC  F84.2
09D70:  BRA    9ECA
....................       {                   
....................          delay_ms(700);Menu=32;glcd_fillscreen(OFF);Opcion=1;unidad=1; 
09D72:  MOVLW  04
09D74:  MOVLB  6
09D76:  MOVWF  x6C
09D78:  MOVLW  AF
09D7A:  MOVWF  x80
09D7C:  MOVLB  0
09D7E:  CALL   14A0
09D82:  MOVLB  6
09D84:  DECFSZ x6C,F
09D86:  BRA    9D78
09D88:  MOVLW  20
09D8A:  MOVLB  4
09D8C:  MOVWF  xC7
09D8E:  MOVLB  6
09D90:  CLRF   x73
09D92:  MOVLB  0
09D94:  CALL   14FE
09D98:  MOVLW  01
09D9A:  MOVLB  4
09D9C:  MOVWF  xC9
09D9E:  MOVWF  xC8
....................          Temporal=Ajuste2; 
09DA0:  MOVFF  53E,542
09DA4:  MOVFF  53D,541
09DA8:  MOVFF  53C,540
09DAC:  MOVFF  53B,53F
....................          Entero=(int)Ajuste2; 
09DB0:  MOVFF  53E,6A0
09DB4:  MOVFF  53D,69F
09DB8:  MOVFF  53C,69E
09DBC:  MOVFF  53B,69D
09DC0:  MOVLB  0
09DC2:  CALL   1C36
09DC6:  MOVFF  01,4D2
....................          Temporal=Temporal-Entero; 
09DCA:  MOVLB  6
09DCC:  CLRF   xA2
09DCE:  MOVFF  4D2,6A1
09DD2:  MOVLB  0
09DD4:  CALL   1932
09DD8:  BSF    FD8.1
09DDA:  MOVFF  542,6A4
09DDE:  MOVFF  541,6A3
09DE2:  MOVFF  540,6A2
09DE6:  MOVFF  53F,6A1
09DEA:  MOVFF  03,6A8
09DEE:  MOVFF  02,6A7
09DF2:  MOVFF  01,6A6
09DF6:  MOVFF  00,6A5
09DFA:  CALL   1E4E
09DFE:  MOVFF  03,542
09E02:  MOVFF  02,541
09E06:  MOVFF  01,540
09E0A:  MOVFF  00,53F
....................          Temporal2=Temporal*10.0; 
09E0E:  MOVFF  542,6A0
09E12:  MOVFF  541,69F
09E16:  MOVFF  540,69E
09E1A:  MOVFF  53F,69D
09E1E:  MOVLB  6
09E20:  CLRF   xA4
09E22:  CLRF   xA3
09E24:  MOVLW  20
09E26:  MOVWF  xA2
09E28:  MOVLW  82
09E2A:  MOVWF  xA1
09E2C:  MOVLB  0
09E2E:  CALL   1AC6
09E32:  MOVFF  03,546
09E36:  MOVFF  02,545
09E3A:  MOVFF  01,544
09E3E:  MOVFF  00,543
....................          Decimal1=(int8)Temporal2; 
09E42:  MOVFF  546,6A0
09E46:  MOVFF  545,69F
09E4A:  MOVFF  544,69E
09E4E:  MOVFF  543,69D
09E52:  CALL   1C36
09E56:  MOVFF  01,4D3
....................          write_eeprom(27,Entero); 
09E5A:  CLRF   FAA
09E5C:  MOVLW  1B
09E5E:  MOVWF  FA9
09E60:  MOVFF  4D2,FA8
09E64:  BCF    FA6.6
09E66:  BCF    FA6.7
09E68:  BSF    FA6.2
09E6A:  MOVF   FF2,W
09E6C:  MOVWF  00
09E6E:  BCF    FF2.7
09E70:  MOVLB  F
09E72:  MOVLW  55
09E74:  MOVWF  FA7
09E76:  MOVLW  AA
09E78:  MOVWF  FA7
09E7A:  BSF    FA6.1
09E7C:  BTFSC  FA6.1
09E7E:  BRA    9E7C
09E80:  BCF    FA6.2
09E82:  MOVF   00,W
09E84:  IORWF  FF2,F
....................          delay_ms(20); 
09E86:  MOVLW  14
09E88:  MOVLB  6
09E8A:  MOVWF  x80
09E8C:  MOVLB  0
09E8E:  CALL   14A0
....................          write_eeprom(28,Decimal1); 
09E92:  CLRF   FAA
09E94:  MOVLW  1C
09E96:  MOVWF  FA9
09E98:  MOVFF  4D3,FA8
09E9C:  BCF    FA6.6
09E9E:  BCF    FA6.7
09EA0:  BSF    FA6.2
09EA2:  MOVF   FF2,W
09EA4:  MOVWF  00
09EA6:  BCF    FF2.7
09EA8:  MOVLB  F
09EAA:  MOVLW  55
09EAC:  MOVWF  FA7
09EAE:  MOVLW  AA
09EB0:  MOVWF  FA7
09EB2:  BSF    FA6.1
09EB4:  BTFSC  FA6.1
09EB6:  BRA    9EB4
09EB8:  BCF    FA6.2
09EBA:  MOVF   00,W
09EBC:  IORWF  FF2,F
....................          delay_ms(20); 
09EBE:  MOVLW  14
09EC0:  MOVLB  6
09EC2:  MOVWF  x80
09EC4:  MOVLB  0
09EC6:  CALL   14A0
09ECA:  MOVLB  4
....................       } 
....................     } 
.................... //_--------------------------------------------------------------------------------------------------------------------------------------------------------        
....................  
.................... //_-------------------------------------------------------------------------------------------------------------------------------------------------------- 
....................       if(Menu==43){ //Menu de Velocidad de Motor 
09ECC:  MOVF   xC7,W
09ECE:  SUBLW  2B
09ED0:  BTFSS  FD8.2
09ED2:  BRA    A090
....................        
....................       if(VelMotor>100)VelMotor=1; 
09ED4:  MOVLB  5
09ED6:  MOVF   xDC,W
09ED8:  SUBLW  64
09EDA:  BC    9EE0
09EDC:  MOVLW  01
09EDE:  MOVWF  xDC
....................       if(VelMotor<1)VelMotor=100; 
09EE0:  MOVF   xDC,F
09EE2:  BNZ   9EE8
09EE4:  MOVLW  64
09EE6:  MOVWF  xDC
....................        
....................       strcpy(Menus.Letra,"Seleccion Vel"); 
09EE8:  MOVLW  04
09EEA:  MOVWF  FEA
09EEC:  MOVLW  16
09EEE:  MOVWF  FE9
09EF0:  MOVFF  FF2,66C
09EF4:  BCF    FF2.7
09EF6:  MOVLW  00
09EF8:  MOVLB  0
09EFA:  CALL   12E4
09EFE:  TBLRD*-
09F00:  TBLRD*+
09F02:  MOVF   FF5,W
09F04:  MOVWF  FEE
09F06:  IORLW  00
09F08:  BNZ   9F00
09F0A:  MOVLB  6
09F0C:  BTFSC  x6C.7
09F0E:  BSF    FF2.7
....................       displayMenu(Menus.Letra,10,0,1,1); 
09F10:  MOVLW  04
09F12:  MOVWF  x74
09F14:  MOVLW  16
09F16:  MOVWF  x73
09F18:  MOVLW  0A
09F1A:  MOVWF  x75
09F1C:  CLRF   x76
09F1E:  MOVLW  01
09F20:  MOVWF  x77
09F22:  MOVWF  x78
09F24:  MOVLB  0
09F26:  CALL   4FA6
....................        
....................       displayTiempo(VelMotor,50,40,1,2); 
09F2A:  MOVFF  5DC,66C
09F2E:  MOVLW  32
09F30:  MOVLB  6
09F32:  MOVWF  x6D
09F34:  MOVLW  28
09F36:  MOVWF  x6E
09F38:  MOVLW  01
09F3A:  MOVWF  x6F
09F3C:  MOVLW  02
09F3E:  MOVWF  x70
09F40:  MOVLB  0
09F42:  CALL   5784
....................        
....................       if(UP)//Si oprime hacia arriba 
09F46:  BSF    F92.5
09F48:  BTFSC  F80.5
09F4A:  BRA    9F5E
....................       {   
....................          delay_ms(200);VelMotor++; 
09F4C:  MOVLW  C8
09F4E:  MOVLB  6
09F50:  MOVWF  x80
09F52:  MOVLB  0
09F54:  CALL   14A0
09F58:  MOVLB  5
09F5A:  INCF   xDC,F
09F5C:  MOVLB  0
....................       } 
....................              
....................       if(DOWN)//Si oprime hacia abajo 
09F5E:  BSF    F96.0
09F60:  BTFSC  F84.0
09F62:  BRA    9F76
....................       {   
....................          delay_ms(200);VelMotor--; 
09F64:  MOVLW  C8
09F66:  MOVLB  6
09F68:  MOVWF  x80
09F6A:  MOVLB  0
09F6C:  CALL   14A0
09F70:  MOVLB  5
09F72:  DECF   xDC,F
09F74:  MOVLB  0
....................       } 
....................              
....................       if(RIGHT)//Si oprime SET 
09F76:  BSF    F96.1
09F78:  BTFSC  F84.1
09F7A:  BRA    9F84
....................       {            
....................          VelocidadMotor(VelMotor); 
09F7C:  MOVFF  5DC,66C
09F80:  CALL   1D34
....................       }  
....................              
....................       if(LEFT)//Si oprime boton de Toma. 
09F84:  BSF    F96.2
09F86:  BTFSC  F84.2
09F88:  BRA    A092
....................       {                   
....................          delay_ms(100);glcd_fillscreen(OFF);Opcion=1;unidad=1; 
09F8A:  MOVLW  64
09F8C:  MOVLB  6
09F8E:  MOVWF  x80
09F90:  MOVLB  0
09F92:  CALL   14A0
09F96:  MOVLB  6
09F98:  CLRF   x73
09F9A:  MOVLB  0
09F9C:  CALL   14FE
09FA0:  MOVLW  01
09FA2:  MOVLB  4
09FA4:  MOVWF  xC9
09FA6:  MOVWF  xC8
....................          write_eeprom(32,VelMotor);//Guardar valor de Setpoint en eeprom 
09FA8:  CLRF   FAA
09FAA:  MOVLW  20
09FAC:  MOVWF  FA9
09FAE:  MOVFF  5DC,FA8
09FB2:  BCF    FA6.6
09FB4:  BCF    FA6.7
09FB6:  BSF    FA6.2
09FB8:  MOVF   FF2,W
09FBA:  MOVWF  00
09FBC:  BCF    FF2.7
09FBE:  MOVLB  F
09FC0:  MOVLW  55
09FC2:  MOVWF  FA7
09FC4:  MOVLW  AA
09FC6:  MOVWF  FA7
09FC8:  BSF    FA6.1
09FCA:  BTFSC  FA6.1
09FCC:  BRA    9FCA
09FCE:  BCF    FA6.2
09FD0:  MOVF   00,W
09FD2:  IORWF  FF2,F
....................          delay_ms(20); 
09FD4:  MOVLW  14
09FD6:  MOVLB  6
09FD8:  MOVWF  x80
09FDA:  MOVLB  0
09FDC:  CALL   14A0
....................          glcd_fillScreen(OFF); 
09FE0:  MOVLB  6
09FE2:  CLRF   x73
09FE4:  MOVLB  0
09FE6:  CALL   14FE
....................          strcpy(Menus.Letra,"Velocidad"); 
09FEA:  MOVLW  04
09FEC:  MOVWF  FEA
09FEE:  MOVLW  16
09FF0:  MOVWF  FE9
09FF2:  MOVFF  FF2,66C
09FF6:  BCF    FF2.7
09FF8:  MOVLW  00
09FFA:  CALL   130C
09FFE:  TBLRD*-
0A000:  TBLRD*+
0A002:  MOVF   FF5,W
0A004:  MOVWF  FEE
0A006:  IORLW  00
0A008:  BNZ   A000
0A00A:  MOVLB  6
0A00C:  BTFSC  x6C.7
0A00E:  BSF    FF2.7
....................          displayMenu(Menus.Letra,0,0,0,2); 
0A010:  MOVLW  04
0A012:  MOVWF  x74
0A014:  MOVLW  16
0A016:  MOVWF  x73
0A018:  CLRF   x75
0A01A:  CLRF   x76
0A01C:  CLRF   x77
0A01E:  MOVLW  02
0A020:  MOVWF  x78
0A022:  MOVLB  0
0A024:  CALL   4FA6
....................          strcpy(Menus.Letra,"Guardada"); 
0A028:  MOVLW  04
0A02A:  MOVWF  FEA
0A02C:  MOVLW  16
0A02E:  MOVWF  FE9
0A030:  MOVFF  FF2,66C
0A034:  BCF    FF2.7
0A036:  MOVLW  00
0A038:  CALL   1330
0A03C:  TBLRD*-
0A03E:  TBLRD*+
0A040:  MOVF   FF5,W
0A042:  MOVWF  FEE
0A044:  IORLW  00
0A046:  BNZ   A03E
0A048:  MOVLB  6
0A04A:  BTFSC  x6C.7
0A04C:  BSF    FF2.7
....................          displayMenu(Menus.Letra,0,30,0,2); 
0A04E:  MOVLW  04
0A050:  MOVWF  x74
0A052:  MOVLW  16
0A054:  MOVWF  x73
0A056:  CLRF   x75
0A058:  MOVLW  1E
0A05A:  MOVWF  x76
0A05C:  CLRF   x77
0A05E:  MOVLW  02
0A060:  MOVWF  x78
0A062:  MOVLB  0
0A064:  CALL   4FA6
....................          glcd_update(); 
0A068:  CALL   1558
....................          delay_ms(1000); 
0A06C:  MOVLW  04
0A06E:  MOVLB  6
0A070:  MOVWF  x6C
0A072:  MOVLW  FA
0A074:  MOVWF  x80
0A076:  MOVLB  0
0A078:  CALL   14A0
0A07C:  MOVLB  6
0A07E:  DECFSZ x6C,F
0A080:  BRA    A072
....................          glcd_fillScreen(OFF); 
0A082:  CLRF   x73
0A084:  MOVLB  0
0A086:  CALL   14FE
....................          Menu=32; 
0A08A:  MOVLW  20
0A08C:  MOVLB  4
0A08E:  MOVWF  xC7
0A090:  MOVLB  0
....................       } 
....................     } 
.................... //_--------------------------------------------------------------------------------------------------------------------------------------------------------        
....................  
.................... //_-------------------------------------------------------------------------------------------------------------------------------------------------------- 
....................       if(Menu==44){ //Menu de Parametros Variador 
0A092:  MOVLB  4
0A094:  MOVF   xC7,W
0A096:  SUBLW  2C
0A098:  BTFSS  FD8.2
0A09A:  BRA    A2C8
....................       OUTPUT_TOGGLE(PIN_C0); 
0A09C:  BCF    F94.0
0A09E:  BTG    F8B.0
....................       displayInt16(make16(txbuf[2],txbuf[1]),0,0,0,1); 
0A0A0:  MOVFF  607,66D
0A0A4:  MOVFF  606,66C
0A0A8:  MOVFF  607,66F
0A0AC:  MOVFF  606,66E
0A0B0:  MOVLB  6
0A0B2:  CLRF   x70
0A0B4:  CLRF   x71
0A0B6:  CLRF   x72
0A0B8:  MOVLW  01
0A0BA:  MOVWF  x73
0A0BC:  MOVLB  0
0A0BE:  CALL   5E98
....................       displayInt16(make16(txbuf[4],txbuf[3]),0,9,0,1); 
0A0C2:  MOVFF  609,66D
0A0C6:  MOVFF  608,66C
0A0CA:  MOVFF  609,66F
0A0CE:  MOVFF  608,66E
0A0D2:  MOVLB  6
0A0D4:  CLRF   x70
0A0D6:  MOVLW  09
0A0D8:  MOVWF  x71
0A0DA:  CLRF   x72
0A0DC:  MOVLW  01
0A0DE:  MOVWF  x73
0A0E0:  MOVLB  0
0A0E2:  CALL   5E98
....................       displayInt16(make16(txbuf[6],txbuf[5]),0,18,0,1); 
0A0E6:  MOVFF  60B,66D
0A0EA:  MOVFF  60A,66C
0A0EE:  MOVFF  60B,66F
0A0F2:  MOVFF  60A,66E
0A0F6:  MOVLB  6
0A0F8:  CLRF   x70
0A0FA:  MOVLW  12
0A0FC:  MOVWF  x71
0A0FE:  CLRF   x72
0A100:  MOVLW  01
0A102:  MOVWF  x73
0A104:  MOVLB  0
0A106:  CALL   5E98
....................       displayInt16(make16(txbuf[8],txbuf[7]),0,27,0,1); 
0A10A:  MOVFF  60D,66D
0A10E:  MOVFF  60C,66C
0A112:  MOVFF  60D,66F
0A116:  MOVFF  60C,66E
0A11A:  MOVLB  6
0A11C:  CLRF   x70
0A11E:  MOVLW  1B
0A120:  MOVWF  x71
0A122:  CLRF   x72
0A124:  MOVLW  01
0A126:  MOVWF  x73
0A128:  MOVLB  0
0A12A:  CALL   5E98
....................       displayInt16(make16(txbuf[10],txbuf[9]),0,36,0,1); 
0A12E:  MOVFF  60F,66D
0A132:  MOVFF  60E,66C
0A136:  MOVFF  60F,66F
0A13A:  MOVFF  60E,66E
0A13E:  MOVLB  6
0A140:  CLRF   x70
0A142:  MOVLW  24
0A144:  MOVWF  x71
0A146:  CLRF   x72
0A148:  MOVLW  01
0A14A:  MOVWF  x73
0A14C:  MOVLB  0
0A14E:  CALL   5E98
....................       displayInt16(make16(txbuf[12],txbuf[11]),0,45,0,1); 
0A152:  MOVFF  611,66D
0A156:  MOVFF  610,66C
0A15A:  MOVFF  611,66F
0A15E:  MOVFF  610,66E
0A162:  MOVLB  6
0A164:  CLRF   x70
0A166:  MOVLW  2D
0A168:  MOVWF  x71
0A16A:  CLRF   x72
0A16C:  MOVLW  01
0A16E:  MOVWF  x73
0A170:  MOVLB  0
0A172:  CALL   5E98
....................       displayInt16(make16(txbuf[14],txbuf[13]),0,54,0,1); 
0A176:  MOVFF  613,66D
0A17A:  MOVFF  612,66C
0A17E:  MOVFF  613,66F
0A182:  MOVFF  612,66E
0A186:  MOVLB  6
0A188:  CLRF   x70
0A18A:  MOVLW  36
0A18C:  MOVWF  x71
0A18E:  CLRF   x72
0A190:  MOVLW  01
0A192:  MOVWF  x73
0A194:  MOVLB  0
0A196:  CALL   5E98
....................       instruccion=3; 
0A19A:  MOVLW  03
0A19C:  MOVLB  4
0A19E:  MOVWF  xD5
....................          address=0; 
0A1A0:  CLRF   xD6
....................          regl=0; 
0A1A2:  CLRF   xD7
....................          regh=0; 
0A1A4:  CLRF   xD8
....................          Envio_Esclavos(); 
0A1A6:  MOVLB  0
0A1A8:  CALL   1CE0
....................          delay_ms(1); 
0A1AC:  MOVLW  01
0A1AE:  MOVLB  6
0A1B0:  MOVWF  x80
0A1B2:  MOVLB  0
0A1B4:  CALL   14A0
....................          Lectura_Esclavos(); 
0A1B8:  CALL   1798
....................              
....................       if(LEFT)//Si oprime boton de Toma. 
0A1BC:  BSF    F96.2
0A1BE:  BTFSC  F84.2
0A1C0:  BRA    A2CA
....................       {                   
....................          delay_ms(100);glcd_fillscreen(OFF);Opcion=1;unidad=1; 
0A1C2:  MOVLW  64
0A1C4:  MOVLB  6
0A1C6:  MOVWF  x80
0A1C8:  MOVLB  0
0A1CA:  CALL   14A0
0A1CE:  MOVLB  6
0A1D0:  CLRF   x73
0A1D2:  MOVLB  0
0A1D4:  CALL   14FE
0A1D8:  MOVLW  01
0A1DA:  MOVLB  4
0A1DC:  MOVWF  xC9
0A1DE:  MOVWF  xC8
....................          write_eeprom(32,VelMotor);//Guardar valor de Setpoint en eeprom 
0A1E0:  CLRF   FAA
0A1E2:  MOVLW  20
0A1E4:  MOVWF  FA9
0A1E6:  MOVFF  5DC,FA8
0A1EA:  BCF    FA6.6
0A1EC:  BCF    FA6.7
0A1EE:  BSF    FA6.2
0A1F0:  MOVF   FF2,W
0A1F2:  MOVWF  00
0A1F4:  BCF    FF2.7
0A1F6:  MOVLB  F
0A1F8:  MOVLW  55
0A1FA:  MOVWF  FA7
0A1FC:  MOVLW  AA
0A1FE:  MOVWF  FA7
0A200:  BSF    FA6.1
0A202:  BTFSC  FA6.1
0A204:  BRA    A202
0A206:  BCF    FA6.2
0A208:  MOVF   00,W
0A20A:  IORWF  FF2,F
....................          delay_ms(20); 
0A20C:  MOVLW  14
0A20E:  MOVLB  6
0A210:  MOVWF  x80
0A212:  MOVLB  0
0A214:  CALL   14A0
....................          glcd_fillScreen(OFF); 
0A218:  MOVLB  6
0A21A:  CLRF   x73
0A21C:  MOVLB  0
0A21E:  CALL   14FE
....................          strcpy(Menus.Letra,"Velocidad"); 
0A222:  MOVLW  04
0A224:  MOVWF  FEA
0A226:  MOVLW  16
0A228:  MOVWF  FE9
0A22A:  MOVFF  FF2,66C
0A22E:  BCF    FF2.7
0A230:  MOVLW  00
0A232:  CALL   130C
0A236:  TBLRD*-
0A238:  TBLRD*+
0A23A:  MOVF   FF5,W
0A23C:  MOVWF  FEE
0A23E:  IORLW  00
0A240:  BNZ   A238
0A242:  MOVLB  6
0A244:  BTFSC  x6C.7
0A246:  BSF    FF2.7
....................          displayMenu(Menus.Letra,0,0,0,2); 
0A248:  MOVLW  04
0A24A:  MOVWF  x74
0A24C:  MOVLW  16
0A24E:  MOVWF  x73
0A250:  CLRF   x75
0A252:  CLRF   x76
0A254:  CLRF   x77
0A256:  MOVLW  02
0A258:  MOVWF  x78
0A25A:  MOVLB  0
0A25C:  CALL   4FA6
....................          strcpy(Menus.Letra,"Guardada"); 
0A260:  MOVLW  04
0A262:  MOVWF  FEA
0A264:  MOVLW  16
0A266:  MOVWF  FE9
0A268:  MOVFF  FF2,66C
0A26C:  BCF    FF2.7
0A26E:  MOVLW  00
0A270:  CALL   1330
0A274:  TBLRD*-
0A276:  TBLRD*+
0A278:  MOVF   FF5,W
0A27A:  MOVWF  FEE
0A27C:  IORLW  00
0A27E:  BNZ   A276
0A280:  MOVLB  6
0A282:  BTFSC  x6C.7
0A284:  BSF    FF2.7
....................          displayMenu(Menus.Letra,0,30,0,2); 
0A286:  MOVLW  04
0A288:  MOVWF  x74
0A28A:  MOVLW  16
0A28C:  MOVWF  x73
0A28E:  CLRF   x75
0A290:  MOVLW  1E
0A292:  MOVWF  x76
0A294:  CLRF   x77
0A296:  MOVLW  02
0A298:  MOVWF  x78
0A29A:  MOVLB  0
0A29C:  CALL   4FA6
....................          glcd_update(); 
0A2A0:  CALL   1558
....................          delay_ms(1000); 
0A2A4:  MOVLW  04
0A2A6:  MOVLB  6
0A2A8:  MOVWF  x6C
0A2AA:  MOVLW  FA
0A2AC:  MOVWF  x80
0A2AE:  MOVLB  0
0A2B0:  CALL   14A0
0A2B4:  MOVLB  6
0A2B6:  DECFSZ x6C,F
0A2B8:  BRA    A2AA
....................          glcd_fillScreen(OFF); 
0A2BA:  CLRF   x73
0A2BC:  MOVLB  0
0A2BE:  CALL   14FE
....................          Menu=32; 
0A2C2:  MOVLW  20
0A2C4:  MOVLB  4
0A2C6:  MOVWF  xC7
0A2C8:  MOVLB  0
....................       } 
....................     } 
.................... //_--------------------------------------------------------------------------------------------------------------------------------------------------------        
....................  
.................... //_-------------------------------------------------------------------------------------------------------------------------------------------------------- 
....................       if(Menu==120){ //Menu de Post-Purga. 
0A2CA:  MOVLB  4
0A2CC:  MOVF   xC7,W
0A2CE:  SUBLW  78
0A2D0:  BTFSS  FD8.2
0A2D2:  BRA    A46A
....................        
....................       // Para que inicie el tiempo de Post-Purga se debe oprimir el boton de encendido en el Microcontrolador esclavo. 
....................       strcpy(Menus.Letra,"Tiempo"); 
0A2D4:  MOVLW  04
0A2D6:  MOVWF  FEA
0A2D8:  MOVLW  16
0A2DA:  MOVWF  FE9
0A2DC:  MOVFF  FF2,66C
0A2E0:  BCF    FF2.7
0A2E2:  MOVLW  00
0A2E4:  MOVLB  0
0A2E6:  CALL   1354
0A2EA:  TBLRD*-
0A2EC:  TBLRD*+
0A2EE:  MOVF   FF5,W
0A2F0:  MOVWF  FEE
0A2F2:  IORLW  00
0A2F4:  BNZ   A2EC
0A2F6:  MOVLB  6
0A2F8:  BTFSC  x6C.7
0A2FA:  BSF    FF2.7
....................       displayMenu(Menus.Letra,30,0,1,2); 
0A2FC:  MOVLW  04
0A2FE:  MOVWF  x74
0A300:  MOVLW  16
0A302:  MOVWF  x73
0A304:  MOVLW  1E
0A306:  MOVWF  x75
0A308:  CLRF   x76
0A30A:  MOVLW  01
0A30C:  MOVWF  x77
0A30E:  MOVLW  02
0A310:  MOVWF  x78
0A312:  MOVLB  0
0A314:  CALL   4FA6
....................       strcpy(Menus.Letra,"Post-Purga"); 
0A318:  MOVLW  04
0A31A:  MOVWF  FEA
0A31C:  MOVLW  16
0A31E:  MOVWF  FE9
0A320:  MOVFF  FF2,66C
0A324:  BCF    FF2.7
0A326:  MOVLW  00
0A328:  CALL   1376
0A32C:  TBLRD*-
0A32E:  TBLRD*+
0A330:  MOVF   FF5,W
0A332:  MOVWF  FEE
0A334:  IORLW  00
0A336:  BNZ   A32E
0A338:  MOVLB  6
0A33A:  BTFSC  x6C.7
0A33C:  BSF    FF2.7
....................       displayMenu(Menus.Letra,10,17,1,2); 
0A33E:  MOVLW  04
0A340:  MOVWF  x74
0A342:  MOVLW  16
0A344:  MOVWF  x73
0A346:  MOVLW  0A
0A348:  MOVWF  x75
0A34A:  MOVLW  11
0A34C:  MOVWF  x76
0A34E:  MOVLW  01
0A350:  MOVWF  x77
0A352:  MOVLW  02
0A354:  MOVWF  x78
0A356:  MOVLB  0
0A358:  CALL   4FA6
....................        
....................       tiempo_postpurga=1; 
0A35C:  MOVLB  4
0A35E:  BSF    x2E.0
....................       LuzBlanca_off;  
0A360:  BSF    F8B.2
0A362:  BCF    F94.2
....................       Aux_off; 
0A364:  BCF    F8B.0
0A366:  BCF    F94.0
....................       VelocidadMotor(VelMotor); 
0A368:  MOVFF  5DC,66C
0A36C:  MOVLB  0
0A36E:  CALL   1D34
....................       flag_blower=1; 
0A372:  MOVLB  4
0A374:  BSF    x2C.7
....................        
....................        displayTiempo(Tppurga[3],20,40,0,2);displayTiempo(Tppurga[2],40,40,0,2);glcd_text57(60, 42, Dos_puntos, 2, ON); 
0A376:  MOVFF  4FE,66C
0A37A:  MOVLW  14
0A37C:  MOVLB  6
0A37E:  MOVWF  x6D
0A380:  MOVLW  28
0A382:  MOVWF  x6E
0A384:  CLRF   x6F
0A386:  MOVLW  02
0A388:  MOVWF  x70
0A38A:  MOVLB  0
0A38C:  CALL   5784
0A390:  MOVFF  4FD,66C
0A394:  MOVLW  28
0A396:  MOVLB  6
0A398:  MOVWF  x6D
0A39A:  MOVWF  x6E
0A39C:  CLRF   x6F
0A39E:  MOVLW  02
0A3A0:  MOVWF  x70
0A3A2:  MOVLB  0
0A3A4:  CALL   5784
0A3A8:  MOVLW  3C
0A3AA:  MOVLB  6
0A3AC:  MOVWF  x84
0A3AE:  MOVLW  2A
0A3B0:  MOVWF  x85
0A3B2:  MOVLW  04
0A3B4:  MOVWF  x87
0A3B6:  MOVLW  4D
0A3B8:  MOVWF  x86
0A3BA:  MOVLW  02
0A3BC:  MOVWF  x88
0A3BE:  MOVLW  01
0A3C0:  MOVWF  x89
0A3C2:  MOVLB  0
0A3C4:  CALL   4D36
....................        displayTiempo(Tppurga[1],70,40,0,2);displayTiempo(Tppurga[0],90,40,0,2);  
0A3C8:  MOVFF  4FC,66C
0A3CC:  MOVLW  46
0A3CE:  MOVLB  6
0A3D0:  MOVWF  x6D
0A3D2:  MOVLW  28
0A3D4:  MOVWF  x6E
0A3D6:  CLRF   x6F
0A3D8:  MOVLW  02
0A3DA:  MOVWF  x70
0A3DC:  MOVLB  0
0A3DE:  CALL   5784
0A3E2:  MOVFF  4FB,66C
0A3E6:  MOVLW  5A
0A3E8:  MOVLB  6
0A3EA:  MOVWF  x6D
0A3EC:  MOVLW  28
0A3EE:  MOVWF  x6E
0A3F0:  CLRF   x6F
0A3F2:  MOVLW  02
0A3F4:  MOVWF  x70
0A3F6:  MOVLB  0
0A3F8:  CALL   5784
....................        
....................       if(RIGHT) 
0A3FC:  BSF    F96.1
0A3FE:  BTFSC  F84.1
0A400:  BRA    A434
....................       { 
....................          delay_ms(1000); 
0A402:  MOVLW  04
0A404:  MOVLB  6
0A406:  MOVWF  x6C
0A408:  MOVLW  FA
0A40A:  MOVWF  x80
0A40C:  MOVLB  0
0A40E:  CALL   14A0
0A412:  MOVLB  6
0A414:  DECFSZ x6C,F
0A416:  BRA    A408
....................          if(RIGHT ) 
0A418:  BSF    F96.1
0A41A:  BTFSC  F84.1
0A41C:  BRA    A434
....................          { 
....................             delay_ms(1500); 
0A41E:  MOVLW  06
0A420:  MOVWF  x6C
0A422:  MOVLW  FA
0A424:  MOVWF  x80
0A426:  MOVLB  0
0A428:  CALL   14A0
0A42C:  MOVLB  6
0A42E:  DECFSZ x6C,F
0A430:  BRA    A422
....................             reset_cpu(); 
0A432:  RESET
....................          } 
....................       } 
....................        
....................       if((Tppurga[0]==Tppurgap[0])&&(Tppurga[1]==Tppurgap[1])&&(Tppurga[2]==Tppurgap[2])&&(Tppurga[3]==Tppurgap[3])) 
0A434:  MOVLB  4
0A436:  MOVF   xFF,W
0A438:  SUBWF  xFB,W
0A43A:  BNZ   A46A
0A43C:  MOVLB  5
0A43E:  MOVF   x00,W
0A440:  MOVLB  4
0A442:  SUBWF  xFC,W
0A444:  BNZ   A46A
0A446:  MOVLB  5
0A448:  MOVF   x01,W
0A44A:  MOVLB  4
0A44C:  SUBWF  xFD,W
0A44E:  BNZ   A46A
0A450:  MOVLB  5
0A452:  MOVF   x02,W
0A454:  MOVLB  4
0A456:  SUBWF  xFE,W
0A458:  BNZ   A46A
....................       {tiempo_postpurga=0;glcd_fillScreen(OFF);reset_cpu();} 
0A45A:  BCF    x2E.0
0A45C:  MOVLB  6
0A45E:  CLRF   x73
0A460:  MOVLB  0
0A462:  CALL   14FE
0A466:  RESET
0A468:  MOVLB  4
....................       
....................     } 
.................... //_--------------------------------------------------------------------------------------------------------------------------------------------------------        
....................  
.................... //_-------------------------------------------------------------------------------------------------------------------------------------------------------- 
....................       if(Menu==200){ //Menu de Inicio. 
0A46A:  MOVF   xC7,W
0A46C:  SUBLW  C8
0A46E:  BTFSS  FD8.2
0A470:  BRA    A618
....................           
....................       if(RIGHT){ 
0A472:  BSF    F96.1
0A474:  BTFSC  F84.1
0A476:  BRA    A5F4
....................          delay_ms(1000); 
0A478:  MOVLW  04
0A47A:  MOVLB  6
0A47C:  MOVWF  x6C
0A47E:  MOVLW  FA
0A480:  MOVWF  x80
0A482:  MOVLB  0
0A484:  CALL   14A0
0A488:  MOVLB  6
0A48A:  DECFSZ x6C,F
0A48C:  BRA    A47E
....................          if(RIGHT){  
0A48E:  BSF    F96.1
0A490:  BTFSC  F84.1
0A492:  BRA    A5F0
....................             Display_on; 
0A494:  BSF    F8A.1
0A496:  BCF    F93.1
....................             glcd_init(ON);             //Inicializa la glcd 
0A498:  MOVLW  01
0A49A:  MOVWF  x6C
0A49C:  MOVLB  0
0A49E:  CALL   1610
....................             glcd_fillScreen(OFF);      //Limpia la pantalla 
0A4A2:  MOVLB  6
0A4A4:  CLRF   x73
0A4A6:  MOVLB  0
0A4A8:  CALL   14FE
....................             glcd_text57(0, 0, JP, 2, ON);glcd_text57(5, 20, Cabina, 1, ON);glcd_text57(10, 40, Clase, 2, ON);              
0A4AC:  MOVLB  6
0A4AE:  CLRF   x84
0A4B0:  CLRF   x85
0A4B2:  MOVLW  04
0A4B4:  MOVWF  x87
0A4B6:  MOVLW  2F
0A4B8:  MOVWF  x86
0A4BA:  MOVLW  02
0A4BC:  MOVWF  x88
0A4BE:  MOVLW  01
0A4C0:  MOVWF  x89
0A4C2:  MOVLB  0
0A4C4:  CALL   4D36
0A4C8:  MOVLW  05
0A4CA:  MOVLB  6
0A4CC:  MOVWF  x84
0A4CE:  MOVLW  14
0A4D0:  MOVWF  x85
0A4D2:  MOVLW  04
0A4D4:  MOVWF  x87
0A4D6:  MOVLW  3B
0A4D8:  MOVWF  x86
0A4DA:  MOVLW  01
0A4DC:  MOVWF  x88
0A4DE:  MOVWF  x89
0A4E0:  MOVLB  0
0A4E2:  CALL   4D36
0A4E6:  MOVLW  0A
0A4E8:  MOVLB  6
0A4EA:  MOVWF  x84
0A4EC:  MOVLW  28
0A4EE:  MOVWF  x85
0A4F0:  MOVLW  04
0A4F2:  MOVWF  x87
0A4F4:  MOVLW  52
0A4F6:  MOVWF  x86
0A4F8:  MOVLW  02
0A4FA:  MOVWF  x88
0A4FC:  MOVLW  01
0A4FE:  MOVWF  x89
0A500:  MOVLB  0
0A502:  CALL   4D36
....................             glcd_update();    
0A506:  CALL   1558
....................             delay_ms(3000); 
0A50A:  MOVLW  0C
0A50C:  MOVLB  6
0A50E:  MOVWF  x6C
0A510:  MOVLW  FA
0A512:  MOVWF  x80
0A514:  MOVLB  0
0A516:  CALL   14A0
0A51A:  MOVLB  6
0A51C:  DECFSZ x6C,F
0A51E:  BRA    A510
....................                         
....................             glcd_fillScreen(OFF);      //Limpia la pantalla 
0A520:  CLRF   x73
0A522:  MOVLB  0
0A524:  CALL   14FE
....................             displayContrasena(Contrasena[0],20,30,1);displayContrasena(Contrasena[1],40,30,0); 
0A528:  MOVFF  50F,675
0A52C:  MOVLW  14
0A52E:  MOVLB  6
0A530:  MOVWF  x76
0A532:  MOVLW  1E
0A534:  MOVWF  x77
0A536:  MOVLW  01
0A538:  MOVWF  x78
0A53A:  MOVLB  0
0A53C:  CALL   4EEE
0A540:  MOVFF  510,675
0A544:  MOVLW  28
0A546:  MOVLB  6
0A548:  MOVWF  x76
0A54A:  MOVLW  1E
0A54C:  MOVWF  x77
0A54E:  CLRF   x78
0A550:  MOVLB  0
0A552:  CALL   4EEE
....................             displayContrasena(Contrasena[2],60,30,0);displayContrasena(Contrasena[0],80,30,0); 
0A556:  MOVFF  511,675
0A55A:  MOVLW  3C
0A55C:  MOVLB  6
0A55E:  MOVWF  x76
0A560:  MOVLW  1E
0A562:  MOVWF  x77
0A564:  CLRF   x78
0A566:  MOVLB  0
0A568:  CALL   4EEE
0A56C:  MOVFF  50F,675
0A570:  MOVLW  50
0A572:  MOVLB  6
0A574:  MOVWF  x76
0A576:  MOVLW  1E
0A578:  MOVWF  x77
0A57A:  CLRF   x78
0A57C:  MOVLB  0
0A57E:  CALL   4EEE
....................             glcd_rect(0, 0, 127, 25, YES, ON);strcpy(Menus.Letra,"Clave");glcd_text57(25, 1, Menus.Letra, 3, OFF);    
0A582:  MOVLB  6
0A584:  CLRF   x84
0A586:  CLRF   x85
0A588:  MOVLW  7F
0A58A:  MOVWF  x86
0A58C:  MOVLW  19
0A58E:  MOVWF  x87
0A590:  MOVLW  01
0A592:  MOVWF  x88
0A594:  MOVWF  x89
0A596:  MOVLB  0
0A598:  CALL   4C74
0A59C:  MOVLW  04
0A59E:  MOVWF  FEA
0A5A0:  MOVLW  16
0A5A2:  MOVWF  FE9
0A5A4:  MOVFF  FF2,66C
0A5A8:  BCF    FF2.7
0A5AA:  MOVLW  00
0A5AC:  CALL   0EEE
0A5B0:  TBLRD*-
0A5B2:  TBLRD*+
0A5B4:  MOVF   FF5,W
0A5B6:  MOVWF  FEE
0A5B8:  IORLW  00
0A5BA:  BNZ   A5B2
0A5BC:  MOVLB  6
0A5BE:  BTFSC  x6C.7
0A5C0:  BSF    FF2.7
0A5C2:  MOVLW  19
0A5C4:  MOVWF  x84
0A5C6:  MOVLW  01
0A5C8:  MOVWF  x85
0A5CA:  MOVLW  04
0A5CC:  MOVWF  x87
0A5CE:  MOVLW  16
0A5D0:  MOVWF  x86
0A5D2:  MOVLW  03
0A5D4:  MOVWF  x88
0A5D6:  CLRF   x89
0A5D8:  MOVLB  0
0A5DA:  CALL   4D36
....................             Menu=44; 
0A5DE:  MOVLW  2C
0A5E0:  MOVLB  4
0A5E2:  MOVWF  xC7
....................             glcd_fillScreen(OFF);  
0A5E4:  MOVLB  6
0A5E6:  CLRF   x73
0A5E8:  MOVLB  0
0A5EA:  CALL   14FE
0A5EE:  MOVLB  6
....................          } 
....................       } 
....................       else 
0A5F0:  BRA    A616
0A5F2:  MOVLB  4
....................       { 
....................          Display_off;VelocidadMotor(0);LuzBlanca_off;Aux_off;glcd_fillScreen(OFF);      //Limpia la pantalla 
0A5F4:  BCF    F8A.1
0A5F6:  BCF    F93.1
0A5F8:  MOVLB  6
0A5FA:  CLRF   x6C
0A5FC:  MOVLB  0
0A5FE:  CALL   1D34
0A602:  BSF    F8B.2
0A604:  BCF    F94.2
0A606:  BCF    F8B.0
0A608:  BCF    F94.0
0A60A:  MOVLB  6
0A60C:  CLRF   x73
0A60E:  MOVLB  0
0A610:  CALL   14FE
0A614:  MOVLB  6
0A616:  MOVLB  4
....................       } 
....................     } 
.................... //_--------------------------------------------------------------------------------------------------------------------------------------------------------        
....................    if(tiemporeset>=60) 
0A618:  MOVF   xCD,W
0A61A:  SUBLW  3B
0A61C:  BC    A634
....................    { 
....................       if(Menu!=200){ 
0A61E:  MOVF   xC7,W
0A620:  SUBLW  C8
0A622:  BZ    A634
....................          glcd_init(ON); 
0A624:  MOVLW  01
0A626:  MOVLB  6
0A628:  MOVWF  x6C
0A62A:  MOVLB  0
0A62C:  CALL   1610
....................          tiemporeset=0; 
0A630:  MOVLB  4
0A632:  CLRF   xCD
....................       } 
....................    }  
.................... } 
0A634:  MOVLB  0
0A636:  GOTO   65EA
....................  
.................... } 
....................  
0A63A:  SLEEP 

Configuration Fuses:
   Word  1: 0200   HS NOIESO NOFCMEN
   Word  2: 1E1F   BROWNOUT NOWDT BORV21 NOPUT WDT32768
   Word  3: 0100   CCP2C1 NOPBADEN NOLPT1OSC NOMCLR
   Word  4: 0080   NOSTVREN NODEBUG NOLVP NOXINST
   Word  5: C00F   NOPROTECT NOCPD NOCPB
   Word  6: E00F   NOWRT NOWRTD NOWRTC NOWRTB
   Word  7: 400F   NOEBTR NOEBTRB
